 ACv2_Client

 Timestamp is 58751241 (Tue Jan 10 11:56:33 2017)

 Preferred load address is 10000000

 Start         Length     Name                   Class
 0001:00000000 00000fc7H .text                   CODE
 0001:00000fd0 0000107aH .text$di                CODE
 0001:00002050 0012ef82H .text$mn                CODE
 0001:00130fe0 0000372bH .text$x                 CODE
 0001:00134710 00000658H .text$yd                CODE
 0002:00000000 00000394H .idata$5                DATA
 0002:00000394 00000004H .CRT$XCA                DATA
 0002:00000398 0000000cH .CRT$XCC                DATA
 0002:000003a4 00000008H .CRT$XCL                DATA
 0002:000003ac 000002fcH .CRT$XCU                DATA
 0002:000006a8 00000004H .CRT$XCZ                DATA
 0002:000006ac 00000004H .CRT$XIA                DATA
 0002:000006b0 00000010H .CRT$XIC                DATA
 0002:000006c0 00000004H .CRT$XIU                DATA
 0002:000006c4 00000004H .CRT$XIZ                DATA
 0002:000006c8 00000004H .CRT$XLA                DATA
 0002:000006cc 00000004H .CRT$XLC                DATA
 0002:000006d0 00000004H .CRT$XLZ                DATA
 0002:000006d4 00000004H .CRT$XPA                DATA
 0002:000006d8 0000000cH .CRT$XPX                DATA
 0002:000006e4 00000004H .CRT$XPXA               DATA
 0002:000006e8 00000004H .CRT$XPZ                DATA
 0002:000006ec 00000004H .CRT$XTA                DATA
 0002:000006f0 00000004H .CRT$XTU                DATA
 0002:000006f4 00000004H .CRT$XTZ                DATA
 0002:00000700 0004cf98H .rdata                  DATA
 0002:0004d698 00000018H .rdata$T                DATA
 0002:0004d6b0 00000068H .rdata$debug            DATA
 0002:0004d718 000027d8H .rdata$r                DATA
 0002:0004fef0 00000004H .rtc$IAA                DATA
 0002:0004fef4 00000004H .rtc$IZZ                DATA
 0002:0004fef8 00000004H .rtc$TAA                DATA
 0002:0004fefc 00000004H .rtc$TZZ                DATA
 0002:0004ff00 00004850H .xdata$x                DATA
 0002:00054750 00000000H .edata                  DATA
 0002:00054750 000000dcH .idata$2                DATA
 0002:0005482c 00000014H .idata$3                DATA
 0002:00054840 00000394H .idata$4                DATA
 0002:00054bd4 00000e40H .idata$6                DATA
 0003:00000000 00009f9cH .data                   DATA
 0003:00009fa0 000019ebH .data$r                 DATA
 0003:0000b9a0 000047a8H .bss                    DATA
 0004:00000000 00000001H .tls                    DATA
 0004:00000001 00000001H .tls$ZZZ                DATA
 0005:00000000 00000058H .rsrc$01                DATA
 0005:00000060 00000098H .rsrc$02                DATA

  Address         Publics by Value              Rva+Base       Lib:Object

 0000:00000000       __except_list              00000000     <absolute>
 0000:00000000       ___safe_se_handler_count   00000000     <absolute>
 0000:00000000       ___guard_flags             00000000     <absolute>
 0000:00000000       ___safe_se_handler_table   00000000     <absolute>
 0000:00000000       ___guard_fids_table        00000000     <absolute>
 0000:00000000       ___guard_fids_count        00000000     <absolute>
 0000:00000000       ___ImageBase               10000000     <linker-defined>
 0001:00000000       ??0CDetourEnableWriteOnCodePage@@QAE@PAEJ@Z 10001000 f i detours:detours.obj
 0001:00000080       ??1CDetourEnableWriteOnCodePage@@QAE@XZ 10001080 f i detours:detours.obj
 0001:000000f0       _DetourFunction@8          100010f0 f   detours:detours.obj
 0001:000003e0       ?SetPermission@CDetourEnableWriteOnCodePage@@QAEHK@Z 100013e0 f i detours:detours.obj
 0001:00000420       ?IsValid@CDetourEnableWriteOnCodePage@@QAEHXZ 10001420 f i detours:detours.obj
 0001:000004c0       ?DetourGenJmp@@YAPAEPAE00@Z 100014c0 f i detours:detours.obj
 0001:00000500       ?DetourGenBreak@@YAPAEPAE@Z 10001500 f i detours:detours.obj
 0001:00000520       ?DetourLoadImageHlp@@YAPAU_DETOUR_SYM_INFO@@XZ 10001520 f   detours:detours.obj
 0001:000006e0       _DetourGetFinalCode@8      100016e0 f   detours:detours.obj
 0001:00000750       _DetourFindFunction@8      10001750 f   detours:detours.obj
 0001:000008f0       _DetourCopyInstruction@12  100018f0 f   detours:disasm.obj
 0001:00000920       ??0CDetourDis@@QAE@PAPAEPAJ@Z 10001920 f   detours:disasm.obj
 0001:000009a0       ?Set16BitOperand@CDetourDis@@IAEXXZ 100019a0 f   detours:disasm.obj
 0001:000009c0       ?Set32BitOperand@CDetourDis@@IAEXXZ 100019c0 f   detours:disasm.obj
 0001:000009e0       ?Set16BitAddress@CDetourDis@@IAEXXZ 100019e0 f   detours:disasm.obj
 0001:00000a00       ?Set32BitAddress@CDetourDis@@IAEXXZ 10001a00 f   detours:disasm.obj
 0001:00000a20       ?CopyInstruction@CDetourDis@@QAEPAEPAE0@Z 10001a20 f   detours:disasm.obj
 0001:00000a80       ?CopyBytes@CDetourDis@@IAEPAEPBUCOPYENTRY@1@PAE1@Z 10001a80 f   detours:disasm.obj
 0001:00000c60       ?CopyBytesPrefix@CDetourDis@@IAEPAEPBUCOPYENTRY@1@PAE1@Z 10001c60 f   detours:disasm.obj
 0001:00000cb0       ?AdjustTarget@CDetourDis@@IAEPAEPAE0JJ@Z 10001cb0 f   detours:disasm.obj
 0001:00000d90       ?Invalid@CDetourDis@@IAEPAEPBUCOPYENTRY@1@PAE1@Z 10001d90 f   detours:disasm.obj
 0001:00000db0       ?Copy0F@CDetourDis@@IAEPAEPBUCOPYENTRY@1@PAE1@Z 10001db0 f   detours:disasm.obj
 0001:00000e00       ?Copy66@CDetourDis@@IAEPAEPBUCOPYENTRY@1@PAE1@Z 10001e00 f   detours:disasm.obj
 0001:00000e30       ?Copy67@CDetourDis@@IAEPAEPBUCOPYENTRY@1@PAE1@Z 10001e30 f   detours:disasm.obj
 0001:00000e60       ?CopyF6@CDetourDis@@IAEPAEPBUCOPYENTRY@1@PAE1@Z 10001e60 f   detours:disasm.obj
 0001:00000ec0       ?CopyF7@CDetourDis@@IAEPAEPBUCOPYENTRY@1@PAE1@Z 10001ec0 f   detours:disasm.obj
 0001:00000f20       ?CopyFF@CDetourDis@@IAEPAEPBUCOPYENTRY@1@PAE1@Z 10001f20 f   detours:disasm.obj
 0001:00002050       ??1bad_exception@std@@UAE@XZ 10003050 f i Cmd5Info.obj
 0001:00002060       ??_Gbad_exception@std@@UAEPAXI@Z 10003060 f i Cmd5Info.obj
 0001:00002060       ??_Ebad_exception@std@@UAEPAXI@Z 10003060 f i * CIL library *:* CIL module *
 0001:00002090       ??1bad_alloc@std@@UAE@XZ   10003090 f i Cmd5Info.obj
 0001:000020a0       ??_Ebad_alloc@std@@UAEPAXI@Z 100030a0 f i * CIL library *:* CIL module *
 0001:000020a0       ??_Gbad_alloc@std@@UAEPAXI@Z 100030a0 f i Cmd5Info.obj
 0001:000020d0       ?_Unlock@?$basic_streambuf@DU?$char_traits@D@std@@@std@@UAEXXZ 100030d0 f i Cmd5Info.obj
 0001:000020d0       _Curl_resolver_global_cleanup 100030d0 f i libcurl:asyn-thread.obj
 0001:000020d0       ?sp_enable_shared_from_this@detail@boost@@YAXZZ 100030d0 f i Cmd5Info.obj
 0001:000020d0       ?on_process_enter@boost@@YAXXZ 100030d0 f i libboost_thread-vc120-mt-s-1_55:thread.obj
 0001:000020d0       ??1?$service_id@Vwin_iocp_io_service@detail@asio@boost@@@detail@asio@boost@@QAE@XZ 100030d0 f i Cmd5Info.obj
 0001:000020d0       ??1?$service_id@Vstrand_service@detail@asio@boost@@@detail@asio@boost@@QAE@XZ 100030d0 f i Cmd5Info.obj
 0001:000020d0       _Curl_resolver_cleanup     100030d0 f i libcurl:asyn-thread.obj
 0001:000020d0       ??3@YAXPAX0@Z              100030d0 f i Cmd5Info.obj
 0001:000020d0       ??1?$service_id@Vselect_reactor@detail@asio@boost@@@detail@asio@boost@@QAE@XZ 100030d0 f i Cmd5Info.obj
 0001:000020d0       ?_Lock@?$basic_streambuf@DU?$char_traits@D@std@@@std@@UAEXXZ 100030d0 f i Cmd5Info.obj
 0001:000020d0       ?tss_cleanup_implemented@boost@@YAXXZ 100030d0 f i libboost_thread-vc120-mt-s-1_55:tss_pe.obj
 0001:000020d0       _OPENSSL_cpuid_setup       100030d0 f i libcurl:cryptlib.obj
 0001:000020e0       ?compare@?$char_traits@D@std@@SAHPBD0I@Z 100030e0 f i Cmd5Info.obj
 0001:00002140       ??_Gbad_function_call@boost@@UAEPAXI@Z 10003140 f i Cmd5Info.obj
 0001:00002140       ??_Ebad_function_call@boost@@UAEPAXI@Z 10003140 f i * CIL library *:* CIL module *
 0001:00002140       ??_Gfailure@ios_base@std@@UAEPAXI@Z 10003140 f i Cmd5Info.obj
 0001:00002140       ??_Efailure@ios_base@std@@UAEPAXI@Z 10003140 f i * CIL library *:* CIL module *
 0001:00002140       ??_Gsystem_error@std@@UAEPAXI@Z 10003140 f i Cmd5Info.obj
 0001:00002140       ??_Esystem_error@std@@UAEPAXI@Z 10003140 f i * CIL library *:* CIL module *
 0001:00002140       ??_G_System_error@std@@UAEPAXI@Z 10003140 f i Cmd5Info.obj
 0001:00002140       ??_Eruntime_error@std@@UAEPAXI@Z 10003140 f i * CIL library *:* CIL module *
 0001:00002140       ??_Gruntime_error@std@@UAEPAXI@Z 10003140 f i Cmd5Info.obj
 0001:00002140       ??_E_System_error@std@@UAEPAXI@Z 10003140 f i * CIL library *:* CIL module *
 0001:00002170       ??1out_of_range@std@@UAE@XZ 10003170 f i libboost_thread-vc120-mt-s-1_55:thread.obj
 0001:00002170       ??1failure@ios_base@std@@UAE@XZ 10003170 f i Cmd5Info.obj
 0001:00002170       ??1length_error@std@@UAE@XZ 10003170 f i libcpmt:xthrow.obj
 0001:00002170       ??1bad_function_call@boost@@UAE@XZ 10003170 f i Cmd5Info.obj
 0001:00002170       ??1runtime_error@std@@UAE@XZ 10003170 f i Cmd5Info.obj
 0001:00002180       ??0_Locinfo@std@@QAE@PBD@Z 10003180 f i Cmd5Info.obj
 0001:00002250       ??1_Locinfo@std@@QAE@XZ    10003250 f i Cmd5Info.obj
 0001:000022f0       ??0runtime_error@std@@QAE@ABV01@@Z 100032f0 f i Cmd5Info.obj
 0001:00002310       ??_E?$codecvt@DDH@std@@MAEPAXI@Z 10003310 f i * CIL library *:* CIL module *
 0001:00002310       ??_G_Facet_base@std@@UAEPAXI@Z 10003310 f i Cmd5Info.obj
 0001:00002310       ??_G?$codecvt@DDH@std@@MAEPAXI@Z 10003310 f i Cmd5Info.obj
 0001:00002310       ??_E?$num_put@DV?$ostreambuf_iterator@DU?$char_traits@D@std@@@std@@@std@@MAEPAXI@Z 10003310 f i * CIL library *:* CIL module *
 0001:00002310       ??_E_Facet_base@std@@UAEPAXI@Z 10003310 f i * CIL library *:* CIL module *
 0001:00002310       ??_G?$num_put@DV?$ostreambuf_iterator@DU?$char_traits@D@std@@@std@@@std@@MAEPAXI@Z 10003310 f i CLog.obj
 0001:00002340       ??Bid@locale@std@@QAEIXZ   10003340 f i Cmd5Info.obj
 0001:00002390       ?_Incref@facet@locale@std@@UAEXXZ 10003390 f i Cmd5Info.obj
 0001:000023a0       ?_Decref@facet@locale@std@@UAEPAV_Facet_base@3@XZ 100033a0 f i Cmd5Info.obj
 0001:000023c0       ??1money_base@std@@UAE@XZ  100033c0 f i libcpmt:wlocale.obj
 0001:000023c0       ??1codecvt_base@std@@UAE@XZ 100033c0 f i Cmd5Info.obj
 0001:000023c0       ??1facet@locale@std@@MAE@XZ 100033c0 f i Cmd5Info.obj
 0001:000023c0       ??1time_base@std@@UAE@XZ   100033c0 f i libcpmt:wlocale.obj
 0001:000023d0       ??1locale@std@@QAE@XZ      100033d0 f i Cmd5Info.obj
 0001:000023f0       ?c_str@locale@std@@QBEPBDXZ 100033f0 f i Cmd5Info.obj
 0001:00002410       ?_Getfacet@locale@std@@QBEPBVfacet@12@I@Z 10003410 f i Cmd5Info.obj
 0001:00002450       _ssl_ok                    10003450 f i libcurl:ssl_lib.obj
 0001:00002450       ?do_encoding@codecvt_base@std@@MBEHXZ 10003450 f i Cmd5Info.obj
 0001:00002450       ?do_max_length@codecvt_base@std@@MBEHXZ 10003450 f i Cmd5Info.obj
 0001:00002460       ??0?$ctype@D@std@@QAE@ABV_Locinfo@1@I@Z 10003460 f i Cmd5Info.obj
 0001:000024a0       ?_Getcat@?$ctype@D@std@@SAIPAPBVfacet@locale@2@PBV42@@Z 100034a0 f i Cmd5Info.obj
 0001:00002570       ?do_tolower@?$ctype@D@std@@MBEDD@Z 10003570 f i Cmd5Info.obj
 0001:00002590       ?do_tolower@?$ctype@D@std@@MBEPBDPADPBD@Z 10003590 f i Cmd5Info.obj
 0001:000025e0       ?do_toupper@?$ctype@D@std@@MBEDD@Z 100035e0 f i Cmd5Info.obj
 0001:00002600       ?do_toupper@?$ctype@D@std@@MBEPBDPADPBD@Z 10003600 f i Cmd5Info.obj
 0001:00002650       ?do_widen@?$ctype@D@std@@MBEDD@Z 10003650 f i Cmd5Info.obj
 0001:00002660       ?do_widen@?$ctype@D@std@@MBEPBDPBD0PAD@Z 10003660 f i Cmd5Info.obj
 0001:00002680       ?do_narrow@?$ctype@D@std@@MBEDDD@Z 10003680 f i Cmd5Info.obj
 0001:00002690       ?do_narrow@?$ctype@D@std@@MBEPBDPBD0DPAD@Z 10003690 f i Cmd5Info.obj
 0001:000026b0       ??_E?$ctype@D@std@@MAEPAXI@Z 100036b0 f i * CIL library *:* CIL module *
 0001:000026b0       ??_G?$ctype@D@std@@MAEPAXI@Z 100036b0 f i Cmd5Info.obj
 0001:00002710       ??_E_Iostream_error_category@std@@UAEPAXI@Z 10003710 f i * CIL library *:* CIL module *
 0001:00002710       ??_Eerror_category@std@@UAEPAXI@Z 10003710 f i * CIL library *:* CIL module *
 0001:00002710       ??_G_System_error_category@std@@UAEPAXI@Z 10003710 f i Cmd5Info.obj
 0001:00002710       ??_E_System_error_category@std@@UAEPAXI@Z 10003710 f i * CIL library *:* CIL module *
 0001:00002710       ??_G_Iostream_error_category@std@@UAEPAXI@Z 10003710 f i Cmd5Info.obj
 0001:00002710       ??_G_Generic_error_category@std@@UAEPAXI@Z 10003710 f i Cmd5Info.obj
 0001:00002710       ??_E_Generic_error_category@std@@UAEPAXI@Z 10003710 f i * CIL library *:* CIL module *
 0001:00002710       ??_Gerror_category@std@@UAEPAXI@Z 10003710 f i Cmd5Info.obj
 0001:00002740       ?message@error_code@system@boost@@QBE?AV?$basic_string@DU?$char_traits@D@std@@V?$allocator@D@2@@std@@XZ 10003740 f i Cmd5Info.obj
 0001:00002740       ?message@error_code@std@@QBE?AV?$basic_string@DU?$char_traits@D@std@@V?$allocator@D@2@@2@XZ 10003740 f i Cmd5Info.obj
 0001:00002770       ?default_error_condition@error_category@system@boost@@UBE?AVerror_condition@23@H@Z 10003770 f i Cmd5Info.obj
 0001:00002770       ?default_error_condition@error_category@std@@UBE?AVerror_condition@2@H@Z 10003770 f i Cmd5Info.obj
 0001:00002790       ?equivalent@error_category@std@@UBE_NHABVerror_condition@2@@Z 10003790 f i Cmd5Info.obj
 0001:00002790       ?equivalent@error_category@system@boost@@UBE_NHABVerror_condition@23@@Z 10003790 f i Cmd5Info.obj
 0001:000027d0       ?equivalent@error_category@std@@UBE_NABVerror_code@2@H@Z 100037d0 f i Cmd5Info.obj
 0001:000027d0       ?equivalent@error_category@system@boost@@UBE_NABVerror_code@23@H@Z 100037d0 f i Cmd5Info.obj
 0001:000027f0       ?_Makestr@_System_error@std@@CA?AV?$basic_string@DU?$char_traits@D@std@@V?$allocator@D@2@@2@Verror_code@2@V32@@Z 100037f0 f i Cmd5Info.obj
 0001:000028c0       ??0_System_error@std@@IAE@Verror_code@1@ABV?$basic_string@DU?$char_traits@D@std@@V?$allocator@D@2@@1@@Z 100038c0 f i Cmd5Info.obj
 0001:00002980       ??0system_error@std@@QAE@Verror_code@1@PBD@Z 10003980 f i Cmd5Info.obj
 0001:00002a30       ?name@_Generic_error_category@std@@UBEPBDXZ 10003a30 f i Cmd5Info.obj
 0001:00002a30       ?name@generic_error_category@?A0x2ad791f3@system@boost@@UBEPBDXZ 10003a30 f i libboost_system-vc120-mt-s-1_55:error_code.obj
 0001:00002a40       ?message@_Generic_error_category@std@@UBE?AV?$basic_string@DU?$char_traits@D@std@@V?$allocator@D@2@@2@H@Z 10003a40 f i Cmd5Info.obj
 0001:00002ab0       ?name@_Iostream_error_category@std@@UBEPBDXZ 10003ab0 f i Cmd5Info.obj
 0001:00002ac0       ?message@_Iostream_error_category@std@@UBE?AV?$basic_string@DU?$char_traits@D@std@@V?$allocator@D@2@@2@H@Z 10003ac0 f i Cmd5Info.obj
 0001:00002b10       ?name@system_error_category@?A0x2ad791f3@system@boost@@UBEPBDXZ 10003b10 f i libboost_system-vc120-mt-s-1_55:error_code.obj
 0001:00002b10       ?name@_System_error_category@std@@UBEPBDXZ 10003b10 f i Cmd5Info.obj
 0001:00002b20       ?message@_System_error_category@std@@UBE?AV?$basic_string@DU?$char_traits@D@std@@V?$allocator@D@2@@2@H@Z 10003b20 f i Cmd5Info.obj
 0001:00002b90       ?default_error_condition@_System_error_category@std@@UBE?AVerror_condition@2@H@Z 10003b90 f i Cmd5Info.obj
 0001:00002bd0       ?clear@ios_base@std@@QAEXH_N@Z 10003bd0 f i Cmd5Info.obj
 0001:00002c60       ?getloc@ios_base@std@@QBE?AVlocale@2@XZ 10003c60 f i Cmd5Info.obj
 0001:00002c80       ?_Init@ios_base@std@@IAEXXZ 10003c80 f i Cmd5Info.obj
 0001:00002d10       ??0failure@ios_base@std@@QAE@ABV012@@Z 10003d10 f i Cmd5Info.obj
 0001:00002d40       ??0system_error@std@@QAE@ABV01@@Z 10003d40 f i Cmd5Info.obj
 0001:00002d70       ??0_System_error@std@@QAE@ABV01@@Z 10003d70 f i Cmd5Info.obj
 0001:00002da0       ??_Gios_base@std@@UAEPAXI@Z 10003da0 f i Cmd5Info.obj
 0001:00002da0       ??_Eios_base@std@@UAEPAXI@Z 10003da0 f i * CIL library *:* CIL module *
 0001:00002da0       ??_G?$basic_ios@DU?$char_traits@D@std@@@std@@UAEPAXI@Z 10003da0 f i Cmd5Info.obj
 0001:00002da0       ??_E?$basic_ios@DU?$char_traits@D@std@@@std@@UAEPAXI@Z 10003da0 f i * CIL library *:* CIL module *
 0001:00002dd0       ??1exception@boost@@MAE@XZ 10003dd0 f i Cmd5Info.obj
 0001:00002e00       ??1clone_base@exception_detail@boost@@UAE@XZ 10003e00 f i Cmd5Info.obj
 0001:00002e10       ??_Eclone_base@exception_detail@boost@@UAEPAXI@Z 10003e10 f i * CIL library *:* CIL module *
 0001:00002e10       ??_Gclone_base@exception_detail@boost@@UAEPAXI@Z 10003e10 f i Cmd5Info.obj
 0001:00002e40       ?copy_boost_exception@exception_detail@boost@@YAXPAVexception@2@PBV32@@Z 10003e40 f i Cmd5Info.obj
 0001:00002f30       ?destroy@sp_counted_base@detail@boost@@UAEXXZ 10003f30 f i Cmd5Info.obj
 0001:00002f40       ??_E?$sp_counted_impl_p@V?$clone_impl@Ubad_alloc_@exception_detail@boost@@@exception_detail@boost@@@detail@boost@@UAEPAXI@Z 10003f40 f i * CIL library *:* CIL module *
 0001:00002f40       ??_Esp_counted_base@detail@boost@@UAEPAXI@Z 10003f40 f i * CIL library *:* CIL module *
 0001:00002f40       ??_G?$sp_counted_impl_p@V?$clone_impl@Ubad_exception_@exception_detail@boost@@@exception_detail@boost@@@detail@boost@@UAEPAXI@Z 10003f40 f i Cmd5Info.obj
 0001:00002f40       ??_Gsp_counted_base@detail@boost@@UAEPAXI@Z 10003f40 f i Cmd5Info.obj
 0001:00002f40       ??_E?$sp_counted_impl_p@V?$clone_impl@Ubad_exception_@exception_detail@boost@@@exception_detail@boost@@@detail@boost@@UAEPAXI@Z 10003f40 f i * CIL library *:* CIL module *
 0001:00002f40       ??_G?$sp_counted_impl_p@V?$clone_impl@Ubad_alloc_@exception_detail@boost@@@exception_detail@boost@@@detail@boost@@UAEPAXI@Z 10003f40 f i Cmd5Info.obj
 0001:00002f70       ??1shared_count@detail@boost@@QAE@XZ 10003f70 f i Cmd5Info.obj
 0001:00002fb0       ??_Gerror_category@system@boost@@UAEPAXI@Z 10003fb0 f i Cmd5Info.obj
 0001:00002fb0       ??_Gmisc_category@detail@error@asio@boost@@UAEPAXI@Z 10003fb0 f i Cmd5Info.obj
 0001:00002fb0       ??_Emisc_category@detail@error@asio@boost@@UAEPAXI@Z 10003fb0 f i * CIL library *:* CIL module *
 0001:00002fb0       ??_Eerror_category@system@boost@@UAEPAXI@Z 10003fb0 f i * CIL library *:* CIL module *
 0001:00002fe0       ??1thread_resource_error@boost@@UAE@XZ 10003fe0 f i Cmd5Info.obj
 0001:00002fe0       ??1lock_error@boost@@UAE@XZ 10003fe0 f i libboost_thread-vc120-mt-s-1_55:thread.obj
 0001:00002fe0       ??1system_error@system@boost@@UAE@XZ 10003fe0 f i Cmd5Info.obj
 0001:00003020       ??_Gthread_resource_error@boost@@UAEPAXI@Z 10004020 f i Cmd5Info.obj
 0001:00003020       ??_Ethread_exception@boost@@UAEPAXI@Z 10004020 f i * CIL library *:* CIL module *
 0001:00003020       ??_Esystem_error@system@boost@@UAEPAXI@Z 10004020 f i * CIL library *:* CIL module *
 0001:00003020       ??_Ethread_resource_error@boost@@UAEPAXI@Z 10004020 f i * CIL library *:* CIL module *
 0001:00003020       ??_Gsystem_error@system@boost@@UAEPAXI@Z 10004020 f i Cmd5Info.obj
 0001:00003020       ??_Gthread_exception@boost@@UAEPAXI@Z 10004020 f i Cmd5Info.obj
 0001:00003070       ?what@system_error@system@boost@@UBEPBDXZ 10004070 f i Cmd5Info.obj
 0001:00003160       ?create_anonymous_event@win32@detail@boost@@YAPAXW4event_type@123@W4initial_event_state@123@@Z 10004160 f i Cmd5Info.obj
 0001:00003210       ?get_event@basic_timed_mutex@detail@boost@@AAEPAXXZ 10004210 f i Cmd5Info.obj
 0001:00003250       ??1bad_alloc_@exception_detail@boost@@UAE@XZ 10004250 f i Cmd5Info.obj
 0001:00003290       ??_Ebad_alloc_@exception_detail@boost@@UAEPAXI@Z 10004290 f i * CIL library *:* CIL module *
 0001:00003290       ??_Gbad_alloc_@exception_detail@boost@@UAEPAXI@Z 10004290 f i Cmd5Info.obj
 0001:000032f0       ??1bad_exception_@exception_detail@boost@@UAE@XZ 100042f0 f i Cmd5Info.obj
 0001:00003330       ??_Gbad_exception_@exception_detail@boost@@UAEPAXI@Z 10004330 f i Cmd5Info.obj
 0001:00003330       ??_Ebad_exception_@exception_detail@boost@@UAEPAXI@Z 10004330 f i * CIL library *:* CIL module *
 0001:00003390       ??0exception@boost@@QAE@ABV01@@Z 10004390 f i Cmd5Info.obj
 0001:000033d0       ?do_always_noconv@windows_file_codecvt@@MBE_NXZ 100043d0 f i libboost_filesystem-vc120-mt-s-1_55:path.obj
 0001:000033d0       _Curl_ssl_false_start      100043d0 f i libcurl:vtls.obj
 0001:000033d0       ?has_empty_target@function@detail@boost@@YA_NZZ 100043d0 f i Cmd5Info.obj
 0001:000033d0       ?do_always_noconv@?$codecvt@GDH@std@@MBE_NXZ 100043d0 f i libcpmt:wlocale.obj
 0001:000033d0       ?do_always_noconv@?$codecvt@_WDH@std@@MBE_NXZ 100043d0 f i libboost_filesystem-vc120-mt-s-1_55:path.obj
 0001:000033e0       ?do_throw_error@detail@asio@boost@@YAXABVerror_code@system@3@PBD@Z 100043e0 f i Cmd5Info.obj
 0001:00003490       ?name@misc_category@detail@error@asio@boost@@UBEPBDXZ 10004490 f i Cmd5Info.obj
 0001:000034a0       ?message@misc_category@detail@error@asio@boost@@UBE?AV?$basic_string@DU?$char_traits@D@std@@V?$allocator@D@2@@std@@H@Z 100044a0 f i Cmd5Info.obj
 0001:00003550       ?win_tss_ptr_create@detail@asio@boost@@YAKXZ 10004550 f i Cmd5Info.obj
 0001:000035c0       ?GetIMGMD5s@Cmd5Info@@SA?AV?$map@V?$basic_string@DU?$char_traits@D@std@@V?$allocator@D@2@@std@@V12@U?$less@V?$basic_string@DU?$char_traits@D@std@@V?$allocator@D@2@@std@@@2@V?$allocator@U?$pair@$$CBV?$basic_string@DU?$char_traits@D@std@@V?$allocator@D@2@@std@@V12@@std@@@2@@std@@XZ 100045c0 f   Cmd5Info.obj
 0001:00003890       ??1?$map@V?$basic_string@DU?$char_traits@D@std@@V?$allocator@D@2@@std@@V12@U?$less@V?$basic_string@DU?$char_traits@D@std@@V?$allocator@D@2@@std@@@2@V?$allocator@U?$pair@$$CBV?$basic_string@DU?$char_traits@D@std@@V?$allocator@D@2@@std@@V12@@std@@@2@@std@@QAE@XZ 10004890 f i Cmd5Info.obj
 0001:000038c0       ??1?$pair@V?$basic_string@DU?$char_traits@D@std@@V?$allocator@D@2@@std@@V12@@std@@QAE@XZ 100048c0 f i Cmd5Info.obj
 0001:00003910       ?writeCallback@@YAIPADIIPAX@Z 10004910 f   Cmd5Info.obj
 0001:00003990       ?GetWebsiteText@Cmd5Info@@SA?AV?$basic_string@DU?$char_traits@D@std@@V?$allocator@D@2@@std@@V23@@Z 10004990 f   Cmd5Info.obj
 0001:00003b10       ?DownloadFile@Cmd5Info@@SA?AV?$basic_string@DU?$char_traits@D@std@@V?$allocator@D@2@@std@@V23@V?$basic_string@_WU?$char_traits@_W@std@@V?$allocator@_W@2@@3@@Z 10004b10 f   Cmd5Info.obj
 0001:00003ce0       ??_D?$basic_ofstream@DU?$char_traits@D@std@@@std@@QAEXXZ 10004ce0 f i Cmd5Info.obj
 0001:00003d40       ??0?$basic_string@DU?$char_traits@D@std@@V?$allocator@D@2@@std@@QAE@ABV01@@Z 10004d40 f i Cmd5Info.obj
 0001:00003d70       ??0?$basic_string@DU?$char_traits@D@std@@V?$allocator@D@2@@std@@QAE@PBD@Z 10004d70 f i Cmd5Info.obj
 0001:00003dd0       ??0?$basic_string@DU?$char_traits@D@std@@V?$allocator@D@2@@std@@QAE@$$QAV01@@Z 10004dd0 f i Cmd5Info.obj
 0001:00003e40       ??1?$basic_string@DU?$char_traits@D@std@@V?$allocator@D@2@@std@@QAE@XZ 10004e40 f i Cmd5Info.obj
 0001:00003e70       ??4?$basic_string@DU?$char_traits@D@std@@V?$allocator@D@2@@std@@QAEAAV01@PBD@Z 10004e70 f i Cmd5Info.obj
 0001:00003eb0       ??Y?$basic_string@DU?$char_traits@D@std@@V?$allocator@D@2@@std@@QAEAAV01@PBD@Z 10004eb0 f i Cmd5Info.obj
 0001:00003ef0       ?substr@?$basic_string@DU?$char_traits@D@std@@V?$allocator@D@2@@std@@QBE?AV12@II@Z 10004ef0 f i Cmd5Info.obj
 0001:00003f30       ??1?$_Yarn@D@std@@QAE@XZ   10004f30 f i Cmd5Info.obj
 0001:00003f30       ??1?$_Yarn@_W@std@@QAE@XZ  10004f30 f i Cmd5Info.obj
 0001:00003f50       ??1?$basic_ios@DU?$char_traits@D@std@@@std@@UAE@XZ 10004f50 f i Cmd5Info.obj
 0001:00003f60       ?pbackfail@?$basic_streambuf@DU?$char_traits@D@std@@@std@@MAEHH@Z 10004f60 f i Cmd5Info.obj
 0001:00003f60       ?overflow@?$basic_streambuf@DU?$char_traits@D@std@@@std@@MAEHH@Z 10004f60 f i Cmd5Info.obj
 0001:00003f70       ?showmanyc@?$basic_streambuf@DU?$char_traits@D@std@@@std@@MAE_JXZ 10004f70 f i Cmd5Info.obj
 0001:00003f80       ?underflow@?$basic_streambuf@DU?$char_traits@D@std@@@std@@MAEHXZ 10004f80 f i Cmd5Info.obj
 0001:00003f90       ?uflow@?$basic_streambuf@DU?$char_traits@D@std@@@std@@MAEHXZ 10004f90 f i Cmd5Info.obj
 0001:00003fc0       ?xsgetn@?$basic_streambuf@DU?$char_traits@D@std@@@std@@MAE_JPAD_J@Z 10004fc0 f i Cmd5Info.obj
 0001:000040d0       ?xsputn@?$basic_streambuf@DU?$char_traits@D@std@@@std@@MAE_JPBD_J@Z 100050d0 f i Cmd5Info.obj
 0001:000041e0       ?seekoff@?$basic_streambuf@DU?$char_traits@D@std@@@std@@MAE?AV?$fpos@H@2@_JHH@Z 100051e0 f i Cmd5Info.obj
 0001:00004210       ?seekpos@?$basic_streambuf@DU?$char_traits@D@std@@@std@@MAE?AV?$fpos@H@2@V32@H@Z 10005210 f i Cmd5Info.obj
 0001:00004240       ?setbuf@?$basic_streambuf@DU?$char_traits@D@std@@@std@@MAEPAV12@PAD_J@Z 10005240 f i Cmd5Info.obj
 0001:00004250       ?do_encoding@?$codecvt@_WDH@std@@MBEHXZ 10005250 f i libboost_filesystem-vc120-mt-s-1_55:path.obj
 0001:00004250       ?get_untyped_deleter@?$sp_counted_impl_p@Um_imp@filesystem_error@filesystem@boost@@@detail@boost@@UAEPAXXZ 10005250 f i libboost_filesystem-vc120-mt-s-1_55:operations.obj
 0001:00004250       ?get_untyped_deleter@?$sp_counted_impl_p@V?$clone_impl@Ubad_alloc_@exception_detail@boost@@@exception_detail@boost@@@detail@boost@@UAEPAXXZ 10005250 f i Cmd5Info.obj
 0001:00004250       _Curl_resolver_init        10005250 f i libcurl:asyn-thread.obj
 0001:00004250       ?do_encoding@?$codecvt@GDH@std@@MBEHXZ 10005250 f i libcpmt:wlocale.obj
 0001:00004250       ___init_dummy              10005250 f i LIBCMT:wsetloca.obj
 0001:00004250       _Curl_posttransfer         10005250 f i libcurl:transfer.obj
 0001:00004250       _OPENSSL_issetugid         10005250 f i libcurl:uid.obj
 0001:00004250       _EVP_aes_256_cbc_hmac_sha1 10005250 f i libcurl:e_aes_cbc_hmac_sha1.obj
 0001:00004250       ?get_untyped_deleter@?$sp_counted_impl_p@V?$clone_impl@Ubad_exception_@exception_detail@boost@@@exception_detail@boost@@@detail@boost@@UAEPAXXZ 10005250 f i Cmd5Info.obj
 0001:00004250       _Curl_resolver_global_init 10005250 f i libcurl:asyn-thread.obj
 0001:00004250       _EVP_aes_128_cbc_hmac_sha1 10005250 f i libcurl:e_aes_cbc_hmac_sha1.obj
 0001:00004250       _Curl_ossl_set_engine_default 10005250 f i libcurl:openssl.obj
 0001:00004250       _Curl_resolver_getsock     10005250 f i libcurl:asyn-thread.obj
 0001:00004250       _Curl_ipv6_scope           10005250 f i libcurl:if2ip.obj
 0001:00004250       ___init_collate            10005250 f i LIBCMT:initcoll.obj
 0001:00004250       ?do_encoding@windows_file_codecvt@@MBEHXZ 10005250 f i libboost_filesystem-vc120-mt-s-1_55:path.obj
 0001:00004250       ?sync@?$basic_streambuf@DU?$char_traits@D@std@@@std@@MAEHXZ 10005250 f i Cmd5Info.obj
 0001:00004250       ?do_max_length@windows_file_codecvt@@MBEHXZ 10005250 f i libboost_filesystem-vc120-mt-s-1_55:path.obj
 0001:00004250       __matherr                  10005250 f i LIBCMT:matherr.obj
 0001:00004250       _Curl_if2ip                10005250 f i libcurl:if2ip.obj
 0001:00004260       ?imbue@?$basic_streambuf@DU?$char_traits@D@std@@@std@@MAEXABVlocale@2@@Z 10005260 f i Cmd5Info.obj
 0001:00004260       ??$destroy@PA_W@?$_Wrap_alloc@V?$allocator@_W@std@@@std@@QAEXPAPA_W@Z 10005260 f i Cmd5Info.obj
 0001:00004260       ??$destroy@PAD@?$_Wrap_alloc@V?$allocator@D@std@@@std@@QAEXPAPAD@Z 10005260 f i Cmd5Info.obj
 0001:00004260       ??$destroy@PAU?$_Tree_node@U?$pair@$$CBGP6AXAAVBitStream@RakNet@@H@Z@std@@PAX@std@@@?$_Wrap_alloc@V?$allocator@U?$_Tree_node@U?$pair@$$CBGP6AXAAVBitStream@RakNet@@H@Z@std@@PAX@std@@@std@@@std@@QAEXPAPAU?$_Tree_node@U?$pair@$$CBGP6AXAAVBitStream@RakNet@@H@Z@std@@PAX@1@@Z 10005260 f i CRPC.obj
 0001:00004260       ?do_close@?$messages@G@std@@MBEXH@Z 10005260 f i libcpmt:wlocale.obj
 0001:00004260       ?do_close@?$messages@_W@std@@MBEXH@Z 10005260 f i libcpmt:wlocale.obj
 0001:00004260       ??$destroy@PAU?$_Tree_node@U?$pair@$$CBV?$basic_string@DU?$char_traits@D@std@@V?$allocator@D@2@@std@@V12@@std@@PAX@std@@@?$_Wrap_alloc@V?$allocator@U?$_Tree_node@U?$pair@$$CBV?$basic_string@DU?$char_traits@D@std@@V?$allocator@D@2@@std@@V12@@std@@PAX@std@@@std@@@std@@QAEXPAPAU?$_Tree_node@U?$pair@$$CBV?$basic_string@DU?$char_traits@D@std@@V?$allocator@D@2@@std@@V12@@std@@PAX@1@@Z 10005260 f i Cmd5Info.obj
 0001:00004260       ?do_close@?$messages@D@std@@MBEXH@Z 10005260 f i libcpmt:xlocale.obj
 0001:00004270       ??1iterator@path@filesystem@boost@@QAE@XZ 10005270 f i libboost_filesystem-vc120-mt-s-1_55:operations.obj
 0001:00004270       ??1path@filesystem@boost@@QAE@XZ 10005270 f i CDirectoryScanner.obj
 0001:00004270       ??1?$basic_string@_WU?$char_traits@_W@std@@V?$allocator@_W@2@@std@@QAE@XZ 10005270 f i Cmd5Info.obj
 0001:000042a0       ??1?$basic_ostream@DU?$char_traits@D@std@@@std@@UAE@XZ 100052a0 f i Cmd5Info.obj
 0001:000042c0       ??1?$refcount_ptr@Uerror_info_container@exception_detail@boost@@@exception_detail@boost@@QAE@XZ 100052c0 f i Cmd5Info.obj
 0001:000042e0       ??1?$unique_lock@Vmutex@boost@@@boost@@QAE@XZ 100052e0 f i Cmd5Info.obj
 0001:00004320       ?_Tidy@?$vector@V?$basic_string@DU?$char_traits@D@std@@V?$allocator@D@2@@std@@V?$allocator@V?$basic_string@DU?$char_traits@D@std@@V?$allocator@D@2@@std@@@2@@std@@IAEXXZ 10005320 f i Cmd5Info.obj
 0001:00004320       ??1?$vector@V?$basic_string@DU?$char_traits@D@std@@V?$allocator@D@2@@std@@V?$allocator@V?$basic_string@DU?$char_traits@D@std@@V?$allocator@D@2@@std@@@2@@std@@QAE@XZ 10005320 f i Cmd5Info.obj
 0001:00004360       ?push_back@?$vector@V?$basic_string@DU?$char_traits@D@std@@V?$allocator@D@2@@std@@V?$allocator@V?$basic_string@DU?$char_traits@D@std@@V?$allocator@D@2@@std@@@2@@std@@QAEXABV?$basic_string@DU?$char_traits@D@std@@V?$allocator@D@2@@2@@Z 10005360 f i Cmd5Info.obj
 0001:00004430       ??1?$is_any_ofF@D@detail@algorithm@boost@@QAE@XZ 10005430 f i Cmd5Info.obj
 0001:00004430       ??1?$token_finderF@U?$is_any_ofF@D@detail@algorithm@boost@@@detail@algorithm@boost@@QAE@XZ 10005430 f i Cmd5Info.obj
 0001:00004450       ??0?$basic_ofstream@DU?$char_traits@D@std@@@std@@QAE@PB_WHH@Z 10005450 f i Cmd5Info.obj
 0001:000045c0       ??1?$basic_filebuf@DU?$char_traits@D@std@@@std@@UAE@XZ 100055c0 f i Cmd5Info.obj
 0001:00004630       ?_Lock@?$basic_filebuf@DU?$char_traits@D@std@@@std@@UAEXXZ 10005630 f i Cmd5Info.obj
 0001:00004640       ?_Unlock@?$basic_filebuf@DU?$char_traits@D@std@@@std@@UAEXXZ 10005640 f i Cmd5Info.obj
 0001:00004650       ?overflow@?$basic_filebuf@DU?$char_traits@D@std@@@std@@MAEHH@Z 10005650 f i Cmd5Info.obj
 0001:00004880       ?pbackfail@?$basic_filebuf@DU?$char_traits@D@std@@@std@@MAEHH@Z 10005880 f i Cmd5Info.obj
 0001:00004910       ?underflow@?$basic_filebuf@DU?$char_traits@D@std@@@std@@MAEHXZ 10005910 f i Cmd5Info.obj
 0001:00004950       ?uflow@?$basic_filebuf@DU?$char_traits@D@std@@@std@@MAEHXZ 10005950 f i Cmd5Info.obj
 0001:00004b70       ?seekoff@?$basic_filebuf@DU?$char_traits@D@std@@@std@@MAE?AV?$fpos@H@2@_JHH@Z 10005b70 f i Cmd5Info.obj
 0001:00004c90       ?seekpos@?$basic_filebuf@DU?$char_traits@D@std@@@std@@MAE?AV?$fpos@H@2@V32@H@Z 10005c90 f i Cmd5Info.obj
 0001:00004d90       ?setbuf@?$basic_filebuf@DU?$char_traits@D@std@@@std@@MAEPAV?$basic_streambuf@DU?$char_traits@D@std@@@2@PAD_J@Z 10005d90 f i Cmd5Info.obj
 0001:00004de0       ?sync@?$basic_filebuf@DU?$char_traits@D@std@@@std@@MAEHXZ 10005de0 f i Cmd5Info.obj
 0001:00004e10       ?imbue@?$basic_filebuf@DU?$char_traits@D@std@@@std@@MAEXABVlocale@2@@Z 10005e10 f i Cmd5Info.obj
 0001:00004e30       ??_E?$basic_streambuf@DU?$char_traits@D@std@@@std@@UAEPAXI@Z 10005e30 f i * CIL library *:* CIL module *
 0001:00004e30       ??_G?$basic_streambuf@DU?$char_traits@D@std@@@std@@UAEPAXI@Z 10005e30 f i Cmd5Info.obj
 0001:00004e80       ??_E?$basic_ostream@DU?$char_traits@D@std@@@std@@UAEPAXI@Z 10005e80 f i * CIL library *:* CIL module *
 0001:00004e80       ??_G?$basic_ostream@DU?$char_traits@D@std@@@std@@UAEPAXI@Z 10005e80 f i Cmd5Info.obj
 0001:00004ed0       ??_E?$basic_ofstream@DU?$char_traits@D@std@@@std@@UAEPAXI@Z 10005ed0 f i * CIL library *:* CIL module *
 0001:00004ed0       ??_G?$basic_ofstream@DU?$char_traits@D@std@@@std@@UAEPAXI@Z 10005ed0 f i Cmd5Info.obj
 0001:00004f40       ??_E?$basic_filebuf@DU?$char_traits@D@std@@@std@@UAEPAXI@Z 10005f40 f i * CIL library *:* CIL module *
 0001:00004f40       ??_G?$basic_filebuf@DU?$char_traits@D@std@@@std@@UAEPAXI@Z 10005f40 f i Cmd5Info.obj
 0001:00004f70       ?_Assign_rv@?$basic_string@DU?$char_traits@D@std@@V?$allocator@D@2@@std@@QAEX$$QAV12@@Z 10005f70 f i Cmd5Info.obj
 0001:00004fd0       ?append@?$basic_string@DU?$char_traits@D@std@@V?$allocator@D@2@@std@@QAEAAV12@ABV12@II@Z 10005fd0 f i Cmd5Info.obj
 0001:00005090       ?append@?$basic_string@DU?$char_traits@D@std@@V?$allocator@D@2@@std@@QAEAAV12@PBDI@Z 10006090 f i Cmd5Info.obj
 0001:00005180       ?append@?$basic_string@DU?$char_traits@D@std@@V?$allocator@D@2@@std@@QAEAAV12@ID@Z 10006180 f i Cmd5Info.obj
 0001:00005230       ?assign@?$basic_string@DU?$char_traits@D@std@@V?$allocator@D@2@@std@@QAEAAV12@ABV12@II@Z 10006230 f i Cmd5Info.obj
 0001:00005360       ?assign@?$basic_string@DU?$char_traits@D@std@@V?$allocator@D@2@@std@@QAEAAV12@PBDI@Z 10006360 f i Cmd5Info.obj
 0001:00005460       ?assign@?$basic_string@DU?$char_traits@D@std@@V?$allocator@D@2@@std@@QAEAAV12@ID@Z 10006460 f i Cmd5Info.obj
 0001:00005530       ?erase@?$basic_string@DU?$char_traits@D@std@@V?$allocator@D@2@@std@@QAEAAV12@II@Z 10006530 f i Cmd5Info.obj
 0001:000055d0       ?find@?$basic_string@DU?$char_traits@D@std@@V?$allocator@D@2@@std@@QBEIPBDII@Z 100065d0 f i Cmd5Info.obj
 0001:000056c0       ?_Tidy@?$basic_string@DU?$char_traits@D@std@@V?$allocator@D@2@@std@@QAEX_NI@Z 100066c0 f i Cmd5Info.obj
 0001:00005710       ?init@?$basic_ios@DU?$char_traits@D@std@@@std@@IAEXPAV?$basic_streambuf@DU?$char_traits@D@std@@@2@_N@Z 10006710 f i Cmd5Info.obj
 0001:000057d0       ?_Gnavail@?$basic_streambuf@DU?$char_traits@D@std@@@std@@IBE_JXZ 100067d0 f i Cmd5Info.obj
 0001:000057f0       ?_Pnavail@?$basic_streambuf@DU?$char_traits@D@std@@@std@@IBE_JXZ 100067f0 f i Cmd5Info.obj
 0001:00005810       ?_Eos@?$basic_string@_WU?$char_traits@_W@std@@V?$allocator@_W@2@@std@@QAEXI@Z 10006810 f i Cmd5Info.obj
 0001:00005840       ?_Tidy@?$basic_string@_WU?$char_traits@_W@std@@V?$allocator@_W@2@@std@@QAEX_NI@Z 10006840 f i Cmd5Info.obj
 0001:00005890       ?_Myptr@?$_String_val@U?$_Simple_types@_W@std@@@std@@QBEPB_WXZ 10006890 f i Cmd5Info.obj
 0001:000058a0       ?_Reserve@?$vector@V?$basic_string@DU?$char_traits@D@std@@V?$allocator@D@2@@std@@V?$allocator@V?$basic_string@DU?$char_traits@D@std@@V?$allocator@D@2@@std@@@2@@std@@IAEXI@Z 100068a0 f i Cmd5Info.obj
 0001:00005940       ?open@?$basic_filebuf@DU?$char_traits@D@std@@@std@@QAEPAV12@PB_WHH@Z 10006940 f i Cmd5Info.obj
 0001:00005a00       ?close@?$basic_filebuf@DU?$char_traits@D@std@@@std@@QAEPAV12@XZ 10006a00 f i Cmd5Info.obj
 0001:00005ab0       ?_Init@?$basic_filebuf@DU?$char_traits@D@std@@@std@@IAEXPAU_iobuf@@W4_Initfl@12@@Z 10006ab0 f i Cmd5Info.obj
 0001:00005b50       ?_Endwrite@?$basic_filebuf@DU?$char_traits@D@std@@@std@@IAE_NXZ 10006b50 f i Cmd5Info.obj
 0001:00005cd0       ?_Initcvt@?$basic_filebuf@DU?$char_traits@D@std@@@std@@IAEXPBV?$codecvt@DDH@2@@Z 10006cd0 f i Cmd5Info.obj
 0001:00005d60       ?_Reset_back@?$basic_filebuf@DU?$char_traits@D@std@@@std@@AAEXXZ 10006d60 f i Cmd5Info.obj
 0001:00005d90       ?_Set_back@?$basic_filebuf@DU?$char_traits@D@std@@@std@@AAEXXZ 10006d90 f i Cmd5Info.obj
 0001:00005dd0       ??0sentry@?$basic_ostream@DU?$char_traits@D@std@@@std@@QAE@AAV12@@Z 10006dd0 f i Cmd5Info.obj
 0001:00005e60       ??1sentry@?$basic_ostream@DU?$char_traits@D@std@@@std@@QAE@XZ 10006e60 f i Cmd5Info.obj
 0001:00005e90       _Curl_ossl_cert_status_request 10006e90 f i libcurl:openssl.obj
 0001:00005e90       ?do_always_noconv@?$codecvt@DDH@std@@MBE_NXZ 10006e90 f i Cmd5Info.obj
 0001:00005e90       _Curl_auth_is_digest_supported 10006e90 f i libcurl:digest.obj
 0001:00005e90       _Curl_auth_is_ntlm_supported 10006e90 f i libcurl:ntlm.obj
 0001:00005ea0       ?do_out@?$codecvt@DDH@std@@MBEHAAHPBD1AAPBDPAD3AAPAD@Z 10006ea0 f i Cmd5Info.obj
 0001:00005ea0       ?do_in@?$codecvt@DDH@std@@MBEHAAHPBD1AAPBDPAD3AAPAD@Z 10006ea0 f i Cmd5Info.obj
 0001:00005ec0       ?do_unshift@?$codecvt@DDH@std@@MBEHAAHPAD1AAPAD@Z 10006ec0 f i Cmd5Info.obj
 0001:00005ee0       ?do_length@?$codecvt@DDH@std@@MBEHAAHPBD1I@Z 10006ee0 f i Cmd5Info.obj
 0001:00005f00       ?insert@?$basic_string@DU?$char_traits@D@std@@V?$allocator@D@2@@std@@QAEAAV12@IID@Z 10006f00 f i Cmd5Info.obj
 0001:00005fc0       ?erase@?$basic_string@DU?$char_traits@D@std@@V?$allocator@D@2@@std@@QAEAAV12@I@Z 10006fc0 f i Cmd5Info.obj
 0001:00006000       ?_Chassign@?$basic_string@DU?$char_traits@D@std@@V?$allocator@D@2@@std@@QAEXIID@Z 10007000 f i Cmd5Info.obj
 0001:00006040       ?_Grow@?$basic_string@DU?$char_traits@D@std@@V?$allocator@D@2@@std@@QAE_NI_N@Z 10007040 f i Cmd5Info.obj
 0001:00006100       ??0?$_Wrap_alloc@V?$allocator@U?$_Tree_node@U?$pair@$$CBGP6AXAAVBitStream@RakNet@@H@Z@std@@PAX@std@@@std@@@std@@QAE@XZ 10007100 f i CRPC.obj
 0001:00006100       ??0?$_Wrap_alloc@V?$allocator@D@std@@@std@@QAE@XZ 10007100 f i Cmd5Info.obj
 0001:00006100       ??0?$_Wrap_alloc@V?$allocator@_W@std@@@std@@QAE@XZ 10007100 f i Cmd5Info.obj
 0001:00006100       ??0?$_Wrap_alloc@V?$allocator@U?$_Tree_node@U?$pair@$$CBV?$basic_string@DU?$char_traits@D@std@@V?$allocator@D@2@@std@@V12@@std@@PAX@std@@@std@@@std@@QAE@XZ 10007100 f i Cmd5Info.obj
 0001:00006100       ??0?$_Wrap_alloc@V?$allocator@V?$basic_string@_WU?$char_traits@_W@std@@V?$allocator@_W@2@@std@@@std@@@std@@QAE@XZ 10007100 f i CFileCheck.obj
 0001:00006110       ??0?$basic_streambuf@DU?$char_traits@D@std@@@std@@IAE@XZ 10007110 f i Cmd5Info.obj
 0001:000061a0       ?getloc@?$basic_streambuf@DU?$char_traits@D@std@@@std@@QBE?AVlocale@2@XZ 100071a0 f i Cmd5Info.obj
 0001:000061c0       ?_Osfx@?$basic_ostream@DU?$char_traits@D@std@@@std@@QAEXXZ 100071c0 f i Cmd5Info.obj
 0001:00006260       ?flush@?$basic_ostream@DU?$char_traits@D@std@@@std@@QAEAAV12@XZ 10007260 f i Cmd5Info.obj
 0001:00006350       ?erase@?$_Tree@V?$_Tmap_traits@V?$basic_string@DU?$char_traits@D@std@@V?$allocator@D@2@@std@@V12@U?$less@V?$basic_string@DU?$char_traits@D@std@@V?$allocator@D@2@@std@@@2@V?$allocator@U?$pair@$$CBV?$basic_string@DU?$char_traits@D@std@@V?$allocator@D@2@@std@@V12@@std@@@2@$0A@@std@@@std@@QAE?AV?$_Tree_iterator@V?$_Tree_val@U?$_Tree_simple_types@U?$pair@$$CBV?$basic_string@DU?$char_traits@D@std@@V?$allocator@D@2@@std@@V12@@std@@@std@@@std@@@2@V?$_Tree_const_iterator@V?$_Tree_val@U?$_Tree_simple_types@U?$pair@$$CBV?$basic_string@DU?$char_traits@D@std@@V?$allocator@D@2@@std@@V12@@std@@@std@@@std@@@2@0@Z 10007350 f i Cmd5Info.obj
 0001:00006410       ?_Destroy@?$vector@V?$basic_string@DU?$char_traits@D@std@@V?$allocator@D@2@@std@@V?$allocator@V?$basic_string@DU?$char_traits@D@std@@V?$allocator@D@2@@std@@@2@@std@@IAEXPAV?$basic_string@DU?$char_traits@D@std@@V?$allocator@D@2@@2@0@Z 10007410 f i Cmd5Info.obj
 0001:00006450       ?_Reallocate@?$vector@V?$basic_string@DU?$char_traits@D@std@@V?$allocator@D@2@@std@@V?$allocator@V?$basic_string@DU?$char_traits@D@std@@V?$allocator@D@2@@std@@@2@@std@@IAEXI@Z 10007450 f i Cmd5Info.obj
 0001:000064f0       ??1_Sentry_base@?$basic_ostream@DU?$char_traits@D@std@@@std@@QAE@XZ 100074f0 f i Cmd5Info.obj
 0001:00006510       ?_Copy@?$basic_string@DU?$char_traits@D@std@@V?$allocator@D@2@@std@@QAEXII@Z 10007510 f i Cmd5Info.obj
 0001:00006660       ?erase@?$_Tree@V?$_Tmap_traits@V?$basic_string@DU?$char_traits@D@std@@V?$allocator@D@2@@std@@V12@U?$less@V?$basic_string@DU?$char_traits@D@std@@V?$allocator@D@2@@std@@@2@V?$allocator@U?$pair@$$CBV?$basic_string@DU?$char_traits@D@std@@V?$allocator@D@2@@std@@V12@@std@@@2@$0A@@std@@@std@@QAE?AV?$_Tree_iterator@V?$_Tree_val@U?$_Tree_simple_types@U?$pair@$$CBV?$basic_string@DU?$char_traits@D@std@@V?$allocator@D@2@@std@@V12@@std@@@std@@@std@@@2@V?$_Tree_const_iterator@V?$_Tree_val@U?$_Tree_simple_types@U?$pair@$$CBV?$basic_string@DU?$char_traits@D@std@@V?$allocator@D@2@@std@@V12@@std@@@std@@@std@@@2@@Z 10007660 f i Cmd5Info.obj
 0001:00006950       ?allocate@?$_Wrap_alloc@V?$allocator@D@std@@@std@@QAEPADI@Z 10007950 f i Cmd5Info.obj
 0001:00006980       ?_Erase@?$_Tree@V?$_Tmap_traits@V?$basic_string@DU?$char_traits@D@std@@V?$allocator@D@2@@std@@V12@U?$less@V?$basic_string@DU?$char_traits@D@std@@V?$allocator@D@2@@std@@@2@V?$allocator@U?$pair@$$CBV?$basic_string@DU?$char_traits@D@std@@V?$allocator@D@2@@std@@V12@@std@@@2@$0A@@std@@@std@@IAEXPAU?$_Tree_node@U?$pair@$$CBV?$basic_string@DU?$char_traits@D@std@@V?$allocator@D@2@@std@@V12@@std@@PAX@2@@Z 10007980 f i Cmd5Info.obj
 0001:00006a00       ?_Lrotate@?$_Tree@V?$_Tmap_traits@PBXUtss_data_node@detail@boost@@U?$less@PBX@std@@V?$allocator@U?$pair@QBXUtss_data_node@detail@boost@@@std@@@5@$0A@@std@@@std@@IAEXPAU?$_Tree_node@U?$pair@QBXUtss_data_node@detail@boost@@@std@@PAX@2@@Z 10007a00 f i CHookManager.obj
 0001:00006a00       ?_Lrotate@?$_Tree@V?$_Tmap_traits@V?$basic_string@DU?$char_traits@D@std@@V?$allocator@D@2@@std@@V12@U?$less@V?$basic_string@DU?$char_traits@D@std@@V?$allocator@D@2@@std@@@2@V?$allocator@U?$pair@$$CBV?$basic_string@DU?$char_traits@D@std@@V?$allocator@D@2@@std@@V12@@std@@@2@$0A@@std@@@std@@IAEXPAU?$_Tree_node@U?$pair@$$CBV?$basic_string@DU?$char_traits@D@std@@V?$allocator@D@2@@std@@V12@@std@@PAX@2@@Z 10007a00 f i Cmd5Info.obj
 0001:00006a60       ?_Rrotate@?$_Tree@V?$_Tmap_traits@V?$basic_string@DU?$char_traits@D@std@@V?$allocator@D@2@@std@@V12@U?$less@V?$basic_string@DU?$char_traits@D@std@@V?$allocator@D@2@@std@@@2@V?$allocator@U?$pair@$$CBV?$basic_string@DU?$char_traits@D@std@@V?$allocator@D@2@@std@@V12@@std@@@2@$0A@@std@@@std@@IAEXPAU?$_Tree_node@U?$pair@$$CBV?$basic_string@DU?$char_traits@D@std@@V?$allocator@D@2@@std@@V12@@std@@PAX@2@@Z 10007a60 f i Cmd5Info.obj
 0001:00006a60       ?_Rrotate@?$_Tree@V?$_Tmap_traits@PBXUtss_data_node@detail@boost@@U?$less@PBX@std@@V?$allocator@U?$pair@QBXUtss_data_node@detail@boost@@@std@@@5@$0A@@std@@@std@@IAEXPAU?$_Tree_node@U?$pair@QBXUtss_data_node@detail@boost@@@std@@PAX@2@@Z 10007a60 f i CHookManager.obj
 0001:00006ac0       ?_Buyheadnode@?$_Tree_alloc@$0A@U?$_Tree_base_types@U?$pair@$$CBV?$basic_string@DU?$char_traits@D@std@@V?$allocator@D@2@@std@@V12@@std@@V?$allocator@U?$pair@$$CBV?$basic_string@DU?$char_traits@D@std@@V?$allocator@D@2@@std@@V12@@std@@@2@@std@@@std@@QAEPAU?$_Tree_node@U?$pair@$$CBV?$basic_string@DU?$char_traits@D@std@@V?$allocator@D@2@@std@@V12@@std@@PAX@2@XZ 10007ac0 f i Cmd5Info.obj
 0001:00006af0       ??E?$_Tree_unchecked_const_iterator@V?$_Tree_val@U?$_Tree_simple_types@U?$pair@QBXUtss_data_node@detail@boost@@@std@@@std@@@std@@U_Iterator_base0@2@@std@@QAEAAV01@XZ 10007af0 f i CHookManager.obj
 0001:00006af0       ??E?$_Tree_unchecked_const_iterator@V?$_Tree_val@U?$_Tree_simple_types@U?$pair@$$CBGP6AXAAVBitStream@RakNet@@H@Z@std@@@std@@@std@@U_Iterator_base0@2@@std@@QAEAAV01@XZ 10007af0 f i CRPC.obj
 0001:00006af0       ??E?$_Tree_unchecked_const_iterator@V?$_Tree_val@U?$_Tree_simple_types@U?$pair@$$CBV?$basic_string@DU?$char_traits@D@std@@V?$allocator@D@2@@std@@V12@@std@@@std@@@std@@U_Iterator_base0@2@@std@@QAEAAV01@XZ 10007af0 f i Cmd5Info.obj
 0001:00006b40       ??$use_facet@V?$ctype@D@std@@@std@@YAABV?$ctype@D@0@ABVlocale@0@@Z 10007b40 f i Cmd5Info.obj
 0001:00006c70       ??$throw_exception@Vthread_resource_error@boost@@@boost@@YAXABVthread_resource_error@0@@Z 10007c70 f i Cmd5Info.obj
 0001:00006ce0       ??$?6DU?$char_traits@D@std@@V?$allocator@D@1@@std@@YAAAV?$basic_ostream@DU?$char_traits@D@std@@@0@AAV10@ABV?$basic_string@DU?$char_traits@D@std@@V?$allocator@D@2@@0@@Z 10007ce0 f i Cmd5Info.obj
 0001:00006f60       ??$is_any_of@$$BY01$$CBD@algorithm@boost@@YA?AU?$is_any_ofF@D@detail@01@AAY01$$CBD@Z 10007f60 f i Cmd5Info.obj
 0001:00006fb0       ??$split@V?$vector@V?$basic_string@DU?$char_traits@D@std@@V?$allocator@D@2@@std@@V?$allocator@V?$basic_string@DU?$char_traits@D@std@@V?$allocator@D@2@@std@@@2@@std@@V?$basic_string@DU?$char_traits@D@std@@V?$allocator@D@2@@2@U?$is_any_ofF@D@detail@algorithm@boost@@@algorithm@boost@@YAAAV?$vector@V?$basic_string@DU?$char_traits@D@std@@V?$allocator@D@2@@std@@V?$allocator@V?$basic_string@DU?$char_traits@D@std@@V?$allocator@D@2@@std@@@2@@std@@AAV23@AAV?$basic_string@DU?$char_traits@D@std@@V?$allocator@D@2@@3@U?$is_any_ofF@D@detail@01@W4token_compress_mode_type@01@@Z 10007fb0 f i Cmd5Info.obj
 0001:00007080       ??$endl@DU?$char_traits@D@std@@@std@@YAAAV?$basic_ostream@DU?$char_traits@D@std@@@0@AAV10@@Z 10008080 f i Cmd5Info.obj
 0001:00007130       ??$use_facet@V?$codecvt@DDH@std@@@std@@YAABV?$codecvt@DDH@0@ABVlocale@0@@Z 10008130 f i Cmd5Info.obj
 0001:00007260       ??0clone_base@exception_detail@boost@@QAE@ABV012@@Z 10008260 f i Cmd5Info.obj
 0001:00007270       ??_D?$clone_impl@U?$error_info_injector@Vthread_resource_error@boost@@@exception_detail@boost@@@exception_detail@boost@@QAEXXZ 10008270 f i Cmd5Info.obj
 0001:000072b0       ??0?$clone_impl@U?$error_info_injector@Vthread_resource_error@boost@@@exception_detail@boost@@@exception_detail@boost@@QAE@ABV012@@Z 100082b0 f i Cmd5Info.obj
 0001:00007350       ??0?$error_info_injector@Vthread_resource_error@boost@@@exception_detail@boost@@QAE@ABU012@@Z 10008350 f i Cmd5Info.obj
 0001:00007420       ??0thread_resource_error@boost@@QAE@ABV01@@Z 10008420 f i Cmd5Info.obj
 0001:000074b0       ??0thread_exception@boost@@QAE@ABV01@@Z 100084b0 f i Cmd5Info.obj
 0001:00007540       ??0system_error@system@boost@@QAE@ABV012@@Z 10008540 f i Cmd5Info.obj
 0001:000075d0       ??0bad_alloc@std@@QAE@ABV01@@Z 100085d0 f i Cmd5Info.obj
 0001:000075f0       ??_D?$clone_impl@U?$error_info_injector@Vsystem_error@system@boost@@@exception_detail@boost@@@exception_detail@boost@@QAEXXZ 100085f0 f i Cmd5Info.obj
 0001:00007630       ??0?$clone_impl@U?$error_info_injector@Vsystem_error@system@boost@@@exception_detail@boost@@@exception_detail@boost@@QAE@ABV012@@Z 10008630 f i Cmd5Info.obj
 0001:000076d0       ??0?$error_info_injector@Vsystem_error@system@boost@@@exception_detail@boost@@QAE@ABU012@@Z 100086d0 f i Cmd5Info.obj
 0001:00007790       ??_D?$clone_impl@U?$error_info_injector@Vbad_function_call@boost@@@exception_detail@boost@@@exception_detail@boost@@QAEXXZ 10008790 f i Cmd5Info.obj
 0001:000077b0       ??0?$clone_impl@U?$error_info_injector@Vbad_function_call@boost@@@exception_detail@boost@@@exception_detail@boost@@QAE@ABV012@@Z 100087b0 f i Cmd5Info.obj
 0001:00007890       ??0?$error_info_injector@Vbad_function_call@boost@@@exception_detail@boost@@QAE@ABU012@@Z 10008890 f i Cmd5Info.obj
 0001:00007930       ??0bad_function_call@boost@@QAE@ABV01@@Z 10008930 f i Cmd5Info.obj
 0001:00007950       ??_G?$clone_impl@U?$error_info_injector@Vthread_resource_error@boost@@@exception_detail@boost@@@exception_detail@boost@@UAEPAXI@Z 10008950 f i Cmd5Info.obj
 0001:00007950       ??_E?$clone_impl@U?$error_info_injector@Vthread_resource_error@boost@@@exception_detail@boost@@@exception_detail@boost@@UAEPAXI@Z 10008950 f i * CIL library *:* CIL module *
 0001:000079a0       ??_E?$error_info_injector@Vthread_resource_error@boost@@@exception_detail@boost@@UAEPAXI@Z 100089a0 f i * CIL library *:* CIL module *
 0001:000079a0       ??_G?$error_info_injector@Vthread_resource_error@boost@@@exception_detail@boost@@UAEPAXI@Z 100089a0 f i Cmd5Info.obj
 0001:000079d0       ??_E?$clone_impl@U?$error_info_injector@Vsystem_error@system@boost@@@exception_detail@boost@@@exception_detail@boost@@UAEPAXI@Z 100089d0 f i * CIL library *:* CIL module *
 0001:000079d0       ??_G?$clone_impl@U?$error_info_injector@Vsystem_error@system@boost@@@exception_detail@boost@@@exception_detail@boost@@UAEPAXI@Z 100089d0 f i Cmd5Info.obj
 0001:00007a20       ??_E?$error_info_injector@Vsystem_error@system@boost@@@exception_detail@boost@@UAEPAXI@Z 10008a20 f i * CIL library *:* CIL module *
 0001:00007a20       ??_G?$error_info_injector@Vsystem_error@system@boost@@@exception_detail@boost@@UAEPAXI@Z 10008a20 f i Cmd5Info.obj
 0001:00007a50       ??_E?$clone_impl@U?$error_info_injector@Vbad_function_call@boost@@@exception_detail@boost@@@exception_detail@boost@@UAEPAXI@Z 10008a50 f i * CIL library *:* CIL module *
 0001:00007a50       ??_G?$clone_impl@U?$error_info_injector@Vbad_function_call@boost@@@exception_detail@boost@@@exception_detail@boost@@UAEPAXI@Z 10008a50 f i Cmd5Info.obj
 0001:00007a80       ??_G?$error_info_injector@Vbad_function_call@boost@@@exception_detail@boost@@UAEPAXI@Z 10008a80 f i Cmd5Info.obj
 0001:00007a80       ??_E?$error_info_injector@Vbad_function_call@boost@@@exception_detail@boost@@UAEPAXI@Z 10008a80 f i * CIL library *:* CIL module *
 0001:00007ad0       ?put@?$basic_ostream@DU?$char_traits@D@std@@@std@@QAEAAV12@D@Z 10008ad0 f i Cmd5Info.obj
 0001:00007c70       ?_Getcat@?$codecvt@DDH@std@@SAIPAPBVfacet@locale@2@PBV42@@Z 10008c70 f i Cmd5Info.obj
 0001:00007d20       ??1?$error_info_injector@Vthread_resource_error@boost@@@exception_detail@boost@@UAE@XZ 10008d20 f i Cmd5Info.obj
 0001:00007d90       ?clone@?$clone_impl@U?$error_info_injector@Vthread_resource_error@boost@@@exception_detail@boost@@@exception_detail@boost@@EBEPBVclone_base@23@XZ 10008d90 f i Cmd5Info.obj
 0001:00007e80       ?rethrow@?$clone_impl@U?$error_info_injector@Vthread_resource_error@boost@@@exception_detail@boost@@@exception_detail@boost@@EBEXXZ 10008e80 f i Cmd5Info.obj
 0001:00007f20       ??1?$error_info_injector@Vsystem_error@system@boost@@@exception_detail@boost@@UAE@XZ 10008f20 f i Cmd5Info.obj
 0001:00007f90       ?clone@?$clone_impl@U?$error_info_injector@Vsystem_error@system@boost@@@exception_detail@boost@@@exception_detail@boost@@EBEPBVclone_base@23@XZ 10008f90 f i Cmd5Info.obj
 0001:00008020       ?rethrow@?$clone_impl@U?$error_info_injector@Vsystem_error@system@boost@@@exception_detail@boost@@@exception_detail@boost@@EBEXXZ 10009020 f i Cmd5Info.obj
 0001:000080c0       ??1?$error_info_injector@Vbad_function_call@boost@@@exception_detail@boost@@UAE@XZ 100090c0 f i Cmd5Info.obj
 0001:00008100       ??1?$clone_impl@U?$error_info_injector@Vbad_function_call@boost@@@exception_detail@boost@@@exception_detail@boost@@UAE@XZ 10009100 f i Cmd5Info.obj
 0001:00008160       ?clone@?$clone_impl@U?$error_info_injector@Vbad_function_call@boost@@@exception_detail@boost@@@exception_detail@boost@@EBEPBVclone_base@23@XZ 10009160 f i Cmd5Info.obj
 0001:000081f0       ?rethrow@?$clone_impl@U?$error_info_injector@Vbad_function_call@boost@@@exception_detail@boost@@@exception_detail@boost@@EBEXXZ 100091f0 f i Cmd5Info.obj
 0001:00008220       ??0bad_exception@std@@QAE@ABV01@@Z 10009220 f i Cmd5Info.obj
 0001:00008240       ??0?$clone_impl@U?$error_info_injector@Vsystem_error@system@boost@@@exception_detail@boost@@@exception_detail@boost@@AAE@ABV012@Uclone_tag@012@@Z 10009240 f i Cmd5Info.obj
 0001:00008300       ??0?$clone_impl@U?$error_info_injector@Vbad_function_call@boost@@@exception_detail@boost@@@exception_detail@boost@@AAE@ABV012@Uclone_tag@012@@Z 10009300 f i Cmd5Info.obj
 0001:00008400       ??$enable_error_info@Vthread_resource_error@boost@@@boost@@YA?AU?$error_info_injector@Vthread_resource_error@boost@@@exception_detail@0@ABVthread_resource_error@0@@Z 10009400 f i Cmd5Info.obj
 0001:00008420       ??$enable_current_exception@U?$error_info_injector@Vthread_resource_error@boost@@@exception_detail@boost@@@boost@@YA?AV?$clone_impl@U?$error_info_injector@Vthread_resource_error@boost@@@exception_detail@boost@@@exception_detail@0@ABU?$error_info_injector@Vthread_resource_error@boost@@@20@@Z 10009420 f i Cmd5Info.obj
 0001:000084d0       ??$get_static_exception_object@Ubad_alloc_@exception_detail@boost@@@exception_detail@boost@@YA?AVexception_ptr@1@XZ 100094d0 f i Cmd5Info.obj
 0001:000086d0       ??$get_static_exception_object@Ubad_exception_@exception_detail@boost@@@exception_detail@boost@@YA?AVexception_ptr@1@XZ 100096d0 f i Cmd5Info.obj
 0001:000088d0       ??$enable_error_info@Vsystem_error@system@boost@@@boost@@YA?AU?$error_info_injector@Vsystem_error@system@boost@@@exception_detail@0@ABVsystem_error@system@0@@Z 100098d0 f i Cmd5Info.obj
 0001:000088f0       ??$enable_current_exception@U?$error_info_injector@Vsystem_error@system@boost@@@exception_detail@boost@@@boost@@YA?AV?$clone_impl@U?$error_info_injector@Vsystem_error@system@boost@@@exception_detail@boost@@@exception_detail@0@ABU?$error_info_injector@Vsystem_error@system@boost@@@20@@Z 100098f0 f i Cmd5Info.obj
 0001:00008910       ??$token_finder@U?$is_any_ofF@D@detail@algorithm@boost@@@algorithm@boost@@YA?AU?$token_finderF@U?$is_any_ofF@D@detail@algorithm@boost@@@detail@01@U?$is_any_ofF@D@301@W4token_compress_mode_type@01@@Z 10009910 f i Cmd5Info.obj
 0001:00008a50       ??$iter_split@V?$vector@V?$basic_string@DU?$char_traits@D@std@@V?$allocator@D@2@@std@@V?$allocator@V?$basic_string@DU?$char_traits@D@std@@V?$allocator@D@2@@std@@@2@@std@@V?$basic_string@DU?$char_traits@D@std@@V?$allocator@D@2@@2@U?$token_finderF@U?$is_any_ofF@D@detail@algorithm@boost@@@detail@algorithm@boost@@@algorithm@boost@@YAAAV?$vector@V?$basic_string@DU?$char_traits@D@std@@V?$allocator@D@2@@std@@V?$allocator@V?$basic_string@DU?$char_traits@D@std@@V?$allocator@D@2@@std@@@2@@std@@AAV23@AAV?$basic_string@DU?$char_traits@D@std@@V?$allocator@D@2@@3@U?$token_finderF@U?$is_any_ofF@D@detail@algorithm@boost@@@detail@01@@Z 10009a50 f i Cmd5Info.obj
 0001:00008cf0       ??$_Buynode@U?$pair@V?$basic_string@DU?$char_traits@D@std@@V?$allocator@D@2@@std@@V12@@std@@@?$_Tree_buy@U?$pair@$$CBV?$basic_string@DU?$char_traits@D@std@@V?$allocator@D@2@@std@@V12@@std@@V?$allocator@U?$pair@$$CBV?$basic_string@DU?$char_traits@D@std@@V?$allocator@D@2@@std@@V12@@std@@@2@@std@@QAEPAU?$_Tree_node@U?$pair@$$CBV?$basic_string@DU?$char_traits@D@std@@V?$allocator@D@2@@std@@V12@@std@@PAX@1@$$QAU?$pair@V?$basic_string@DU?$char_traits@D@std@@V?$allocator@D@2@@std@@V12@@1@@Z 10009cf0 f i Cmd5Info.obj
 0001:00008d20       ??$_Insert_nohint@AAU?$pair@$$CBV?$basic_string@DU?$char_traits@D@std@@V?$allocator@D@2@@std@@V12@@std@@PAU?$_Tree_node@U?$pair@$$CBV?$basic_string@DU?$char_traits@D@std@@V?$allocator@D@2@@std@@V12@@std@@PAX@2@@?$_Tree@V?$_Tmap_traits@V?$basic_string@DU?$char_traits@D@std@@V?$allocator@D@2@@std@@V12@U?$less@V?$basic_string@DU?$char_traits@D@std@@V?$allocator@D@2@@std@@@2@V?$allocator@U?$pair@$$CBV?$basic_string@DU?$char_traits@D@std@@V?$allocator@D@2@@std@@V12@@std@@@2@$0A@@std@@@std@@IAE?AU?$pair@V?$_Tree_iterator@V?$_Tree_val@U?$_Tree_simple_types@U?$pair@$$CBV?$basic_string@DU?$char_traits@D@std@@V?$allocator@D@2@@std@@V12@@std@@@std@@@std@@@std@@_N@1@_NAAU?$pair@$$CBV?$basic_string@DU?$char_traits@D@std@@V?$allocator@D@2@@std@@V12@@1@PAU?$_Tree_node@U?$pair@$$CBV?$basic_string@DU?$char_traits@D@std@@V?$allocator@D@2@@std@@V12@@std@@PAX@1@@Z 10009d20 f i Cmd5Info.obj
 0001:00008f40       ??$enable_error_info@Vbad_function_call@boost@@@boost@@YA?AU?$error_info_injector@Vbad_function_call@boost@@@exception_detail@0@ABVbad_function_call@0@@Z 10009f40 f i Cmd5Info.obj
 0001:00008f90       ??$enable_current_exception@U?$error_info_injector@Vbad_function_call@boost@@@exception_detail@boost@@@boost@@YA?AV?$clone_impl@U?$error_info_injector@Vbad_function_call@boost@@@exception_detail@boost@@@exception_detail@0@ABU?$error_info_injector@Vbad_function_call@boost@@@20@@Z 10009f90 f i Cmd5Info.obj
 0001:00008fb0       ??_D?$clone_impl@Ubad_alloc_@exception_detail@boost@@@exception_detail@boost@@QAEXXZ 10009fb0 f i Cmd5Info.obj
 0001:00008fd0       ??0?$clone_impl@Ubad_alloc_@exception_detail@boost@@@exception_detail@boost@@QAE@ABV012@@Z 10009fd0 f i Cmd5Info.obj
 0001:000090b0       ??_D?$clone_impl@Ubad_exception_@exception_detail@boost@@@exception_detail@boost@@QAEXXZ 1000a0b0 f i Cmd5Info.obj
 0001:000090d0       ??0?$clone_impl@Ubad_exception_@exception_detail@boost@@@exception_detail@boost@@QAE@ABV012@@Z 1000a0d0 f i Cmd5Info.obj
 0001:000091b0       ??0?$service_id@Vwin_iocp_io_service@detail@asio@boost@@@detail@asio@boost@@QAE@XZ 1000a1b0 f i Cmd5Info.obj
 0001:000091c0       ??0?$service_id@Vselect_reactor@detail@asio@boost@@@detail@asio@boost@@QAE@XZ 1000a1c0 f i Cmd5Info.obj
 0001:000091d0       ??0?$service_id@Vstrand_service@detail@asio@boost@@@detail@asio@boost@@QAE@XZ 1000a1d0 f i Cmd5Info.obj
 0001:000091e0       ??1?$transform_iterator@U?$copy_iterator_rangeF@V?$basic_string@DU?$char_traits@D@std@@V?$allocator@D@2@@std@@V?$_String_iterator@V?$_String_val@U?$_Simple_types@D@std@@@std@@@2@@detail@algorithm@boost@@V?$split_iterator@V?$_String_iterator@V?$_String_val@U?$_Simple_types@D@std@@@std@@@std@@@34@Uuse_default@4@U64@@boost@@QAE@XZ 1000a1e0 f i Cmd5Info.obj
 0001:000091e0       ??1?$find_iterator_base@V?$_String_iterator@V?$_String_val@U?$_Simple_types@D@std@@@std@@@std@@@detail@algorithm@boost@@IAE@XZ 1000a1e0 f i Cmd5Info.obj
 0001:000091e0       ??1?$split_iterator@V?$_String_iterator@V?$_String_val@U?$_Simple_types@D@std@@@std@@@std@@@algorithm@boost@@QAE@XZ 1000a1e0 f i Cmd5Info.obj
 0001:00009210       ??_E?$clone_impl@Ubad_alloc_@exception_detail@boost@@@exception_detail@boost@@UAEPAXI@Z 1000a210 f i * CIL library *:* CIL module *
 0001:00009210       ??_G?$clone_impl@Ubad_alloc_@exception_detail@boost@@@exception_detail@boost@@UAEPAXI@Z 1000a210 f i Cmd5Info.obj
 0001:00009240       ??0bad_alloc_@exception_detail@boost@@QAE@ABU012@@Z 1000a240 f i Cmd5Info.obj
 0001:000092d0       ??_E?$clone_impl@Ubad_exception_@exception_detail@boost@@@exception_detail@boost@@UAEPAXI@Z 1000a2d0 f i * CIL library *:* CIL module *
 0001:000092d0       ??_G?$clone_impl@Ubad_exception_@exception_detail@boost@@@exception_detail@boost@@UAEPAXI@Z 1000a2d0 f i Cmd5Info.obj
 0001:00009300       ??0bad_exception_@exception_detail@boost@@QAE@ABU012@@Z 1000a300 f i Cmd5Info.obj
 0001:00009390       ?_Destroy_if_not_nil@?$_Tree@V?$_Tmap_traits@V?$basic_string@DU?$char_traits@D@std@@V?$allocator@D@2@@std@@V12@U?$less@V?$basic_string@DU?$char_traits@D@std@@V?$allocator@D@2@@std@@@2@V?$allocator@U?$pair@$$CBV?$basic_string@DU?$char_traits@D@std@@V?$allocator@D@2@@std@@V12@@std@@@2@$0A@@std@@@std@@IAEXPAU?$_Tree_node@U?$pair@$$CBV?$basic_string@DU?$char_traits@D@std@@V?$allocator@D@2@@std@@V12@@std@@PAX@2@@Z 1000a390 f i Cmd5Info.obj
 0001:000093f0       ??R?$less@V?$basic_string@DU?$char_traits@D@std@@V?$allocator@D@2@@std@@@std@@QBE_NABV?$basic_string@DU?$char_traits@D@std@@V?$allocator@D@2@@1@0@Z 1000a3f0 f i Cmd5Info.obj
 0001:00009450       ?_Buynode0@?$_Tree_buy@U?$pair@$$CBV?$basic_string@DU?$char_traits@D@std@@V?$allocator@D@2@@std@@V12@@std@@V?$allocator@U?$pair@$$CBV?$basic_string@DU?$char_traits@D@std@@V?$allocator@D@2@@std@@V12@@std@@@2@@std@@QAEPAU?$_Tree_node@U?$pair@$$CBV?$basic_string@DU?$char_traits@D@std@@V?$allocator@D@2@@std@@V12@@std@@PAX@2@XZ 1000a450 f i Cmd5Info.obj
 0001:00009490       ??0?$error_info_injector@Vthread_resource_error@boost@@@exception_detail@boost@@QAE@ABVthread_resource_error@2@@Z 1000a490 f i Cmd5Info.obj
 0001:00009550       ??0?$error_info_injector@Vsystem_error@system@boost@@@exception_detail@boost@@QAE@ABVsystem_error@system@2@@Z 1000a550 f i Cmd5Info.obj
 0001:00009610       ??0?$clone_impl@U?$error_info_injector@Vsystem_error@system@boost@@@exception_detail@boost@@@exception_detail@boost@@QAE@ABU?$error_info_injector@Vsystem_error@system@boost@@@12@@Z 1000a610 f i Cmd5Info.obj
 0001:000096d0       ??0?$clone_impl@U?$error_info_injector@Vbad_function_call@boost@@@exception_detail@boost@@@exception_detail@boost@@QAE@ABU?$error_info_injector@Vbad_function_call@boost@@@12@@Z 1000a6d0 f i Cmd5Info.obj
 0001:000097d0       ??0?$clone_impl@Ubad_alloc_@exception_detail@boost@@@exception_detail@boost@@QAE@ABUbad_alloc_@12@@Z 1000a7d0 f i Cmd5Info.obj
 0001:000098c0       ??1?$clone_impl@Ubad_alloc_@exception_detail@boost@@@exception_detail@boost@@UAE@XZ 1000a8c0 f i Cmd5Info.obj
 0001:00009930       ?clone@?$clone_impl@Ubad_alloc_@exception_detail@boost@@@exception_detail@boost@@EBEPBVclone_base@23@XZ 1000a930 f i Cmd5Info.obj
 0001:000099c0       ?rethrow@?$clone_impl@Ubad_alloc_@exception_detail@boost@@@exception_detail@boost@@EBEXXZ 1000a9c0 f i Cmd5Info.obj
 0001:000099f0       ??0?$clone_impl@Ubad_exception_@exception_detail@boost@@@exception_detail@boost@@QAE@ABUbad_exception_@12@@Z 1000a9f0 f i Cmd5Info.obj
 0001:00009ae0       ??1?$clone_impl@Ubad_exception_@exception_detail@boost@@@exception_detail@boost@@UAE@XZ 1000aae0 f i Cmd5Info.obj
 0001:00009b50       ?clone@?$clone_impl@Ubad_exception_@exception_detail@boost@@@exception_detail@boost@@EBEPBVclone_base@23@XZ 1000ab50 f i Cmd5Info.obj
 0001:00009be0       ?rethrow@?$clone_impl@Ubad_exception_@exception_detail@boost@@@exception_detail@boost@@EBEXXZ 1000abe0 f i Cmd5Info.obj
 0001:00009c10       ??0?$split_iterator@V?$_String_iterator@V?$_String_val@U?$_Simple_types@D@std@@@std@@@std@@@algorithm@boost@@QAE@ABV012@@Z 1000ac10 f i Cmd5Info.obj
 0001:00009c80       ??0?$clone_impl@Ubad_alloc_@exception_detail@boost@@@exception_detail@boost@@AAE@ABV012@Uclone_tag@012@@Z 1000ac80 f i Cmd5Info.obj
 0001:00009d70       ??0?$clone_impl@Ubad_exception_@exception_detail@boost@@@exception_detail@boost@@AAE@ABV012@Uclone_tag@012@@Z 1000ad70 f i Cmd5Info.obj
 0001:00009e60       ??F?$_Tree_unchecked_const_iterator@V?$_Tree_val@U?$_Tree_simple_types@U?$pair@$$CBV?$basic_string@DU?$char_traits@D@std@@V?$allocator@D@2@@std@@V12@@std@@@std@@@std@@U_Iterator_base0@2@@std@@QAEAAV01@XZ 1000ae60 f i Cmd5Info.obj
 0001:00009e60       ??F?$_Tree_unchecked_const_iterator@V?$_Tree_val@U?$_Tree_simple_types@U?$pair@$$CBGP6AXAAVBitStream@RakNet@@H@Z@std@@@std@@@std@@U_Iterator_base0@2@@std@@QAEAAV01@XZ 1000ae60 f i CRPC.obj
 0001:00009ec0       ??$?0V?$clone_impl@Ubad_alloc_@exception_detail@boost@@@exception_detail@boost@@@?$shared_ptr@$$CBVclone_base@exception_detail@boost@@@boost@@QAE@PAV?$clone_impl@Ubad_alloc_@exception_detail@boost@@@exception_detail@1@@Z 1000aec0 f i Cmd5Info.obj
 0001:00009f80       ??$?0V?$clone_impl@Ubad_exception_@exception_detail@boost@@@exception_detail@boost@@@?$shared_ptr@$$CBVclone_base@exception_detail@boost@@@boost@@QAE@PAV?$clone_impl@Ubad_exception_@exception_detail@boost@@@exception_detail@1@@Z 1000af80 f i Cmd5Info.obj
 0001:0000a040       ??$?0U?$token_finderF@U?$is_any_ofF@D@detail@algorithm@boost@@@detail@algorithm@boost@@@?$split_iterator@V?$_String_iterator@V?$_String_val@U?$_Simple_types@D@std@@@std@@@std@@@algorithm@boost@@QAE@V?$_String_iterator@V?$_String_val@U?$_Simple_types@D@std@@@std@@@std@@0U?$token_finderF@U?$is_any_ofF@D@detail@algorithm@boost@@@detail@12@@Z 1000b040 f i Cmd5Info.obj
 0001:0000a110       ??$make_transform_iterator@U?$copy_iterator_rangeF@V?$basic_string@DU?$char_traits@D@std@@V?$allocator@D@2@@std@@V?$_String_iterator@V?$_String_val@U?$_Simple_types@D@std@@@std@@@2@@detail@algorithm@boost@@V?$split_iterator@V?$_String_iterator@V?$_String_val@U?$_Simple_types@D@std@@@std@@@std@@@34@@boost@@YA?AV?$transform_iterator@U?$copy_iterator_rangeF@V?$basic_string@DU?$char_traits@D@std@@V?$allocator@D@2@@std@@V?$_String_iterator@V?$_String_val@U?$_Simple_types@D@std@@@std@@@2@@detail@algorithm@boost@@V?$split_iterator@V?$_String_iterator@V?$_String_val@U?$_Simple_types@D@std@@@std@@@std@@@34@Uuse_default@4@U64@@0@V?$split_iterator@V?$_String_iterator@V?$_String_val@U?$_Simple_types@D@std@@@std@@@std@@@algorithm@0@U?$copy_iterator_rangeF@V?$basic_string@DU?$char_traits@D@std@@V?$allocator@D@2@@std@@V?$_String_iterator@V?$_String_val@U?$_Simple_types@D@std@@@std@@@2@@detail@30@@Z 1000b110 f i Cmd5Info.obj
 0001:0000a190       ??$?0V?$transform_iterator@U?$copy_iterator_rangeF@V?$basic_string@DU?$char_traits@D@std@@V?$allocator@D@2@@std@@V?$_String_iterator@V?$_String_val@U?$_Simple_types@D@std@@@std@@@2@@detail@algorithm@boost@@V?$split_iterator@V?$_String_iterator@V?$_String_val@U?$_Simple_types@D@std@@@std@@@std@@@34@Uuse_default@4@U64@@boost@@X@?$vector@V?$basic_string@DU?$char_traits@D@std@@V?$allocator@D@2@@std@@V?$allocator@V?$basic_string@DU?$char_traits@D@std@@V?$allocator@D@2@@std@@@2@@std@@QAE@V?$transform_iterator@U?$copy_iterator_rangeF@V?$basic_string@DU?$char_traits@D@std@@V?$allocator@D@2@@std@@V?$_String_iterator@V?$_String_val@U?$_Simple_types@D@std@@@std@@@2@@detail@algorithm@boost@@V?$split_iterator@V?$_String_iterator@V?$_String_val@U?$_Simple_types@D@std@@@std@@@std@@@34@Uuse_default@4@U64@@boost@@0@Z 1000b190 f i Cmd5Info.obj
 0001:0000a270       ??$_Insert_at@AAU?$pair@$$CBV?$basic_string@DU?$char_traits@D@std@@V?$allocator@D@2@@std@@V12@@std@@PAU?$_Tree_node@U?$pair@$$CBV?$basic_string@DU?$char_traits@D@std@@V?$allocator@D@2@@std@@V12@@std@@PAX@2@@?$_Tree@V?$_Tmap_traits@V?$basic_string@DU?$char_traits@D@std@@V?$allocator@D@2@@std@@V12@U?$less@V?$basic_string@DU?$char_traits@D@std@@V?$allocator@D@2@@std@@@2@V?$allocator@U?$pair@$$CBV?$basic_string@DU?$char_traits@D@std@@V?$allocator@D@2@@std@@V12@@std@@@2@$0A@@std@@@std@@IAE?AV?$_Tree_iterator@V?$_Tree_val@U?$_Tree_simple_types@U?$pair@$$CBV?$basic_string@DU?$char_traits@D@std@@V?$allocator@D@2@@std@@V12@@std@@@std@@@std@@@1@_NPAU?$_Tree_node@U?$pair@$$CBV?$basic_string@DU?$char_traits@D@std@@V?$allocator@D@2@@std@@V12@@std@@PAX@1@AAU?$pair@$$CBV?$basic_string@DU?$char_traits@D@std@@V?$allocator@D@2@@std@@V12@@1@1@Z 1000b270 f i Cmd5Info.obj
 0001:0000a480       ??$?RV?$_String_iterator@V?$_String_val@U?$_Simple_types@D@std@@@std@@@std@@@?$token_finderF@U?$is_any_ofF@D@detail@algorithm@boost@@@detail@algorithm@boost@@QBE?AV?$iterator_range@V?$_String_iterator@V?$_String_val@U?$_Simple_types@D@std@@@std@@@std@@@3@V?$_String_iterator@V?$_String_val@U?$_Simple_types@D@std@@@std@@@std@@0@Z 1000b480 f i Cmd5Info.obj
 0001:0000a5c0       ?increment@?$split_iterator@V?$_String_iterator@V?$_String_val@U?$_Simple_types@D@std@@@std@@@std@@@algorithm@boost@@AAEXXZ 1000b5c0 f i Cmd5Info.obj
 0001:0000a640       ??R?$function2@V?$iterator_range@V?$_String_iterator@V?$_String_val@U?$_Simple_types@D@std@@@std@@@std@@@boost@@V?$_String_iterator@V?$_String_val@U?$_Simple_types@D@std@@@std@@@std@@V34@@boost@@QBE?AV?$iterator_range@V?$_String_iterator@V?$_String_val@U?$_Simple_types@D@std@@@std@@@std@@@1@V?$_String_iterator@V?$_String_val@U?$_Simple_types@D@std@@@std@@@std@@0@Z 1000b640 f i Cmd5Info.obj
 0001:0000a700       ??$?0U?$token_finderF@U?$is_any_ofF@D@detail@algorithm@boost@@@detail@algorithm@boost@@@?$find_iterator_base@V?$_String_iterator@V?$_String_val@U?$_Simple_types@D@std@@@std@@@std@@@detail@algorithm@boost@@IAE@U?$token_finderF@U?$is_any_ofF@D@detail@algorithm@boost@@@123@H@Z 1000b700 f i Cmd5Info.obj
 0001:0000a7a0       ??$_Construct@V?$transform_iterator@U?$copy_iterator_rangeF@V?$basic_string@DU?$char_traits@D@std@@V?$allocator@D@2@@std@@V?$_String_iterator@V?$_String_val@U?$_Simple_types@D@std@@@std@@@2@@detail@algorithm@boost@@V?$split_iterator@V?$_String_iterator@V?$_String_val@U?$_Simple_types@D@std@@@std@@@std@@@34@Uuse_default@4@U64@@boost@@@?$vector@V?$basic_string@DU?$char_traits@D@std@@V?$allocator@D@2@@std@@V?$allocator@V?$basic_string@DU?$char_traits@D@std@@V?$allocator@D@2@@std@@@2@@std@@QAEXV?$transform_iterator@U?$copy_iterator_rangeF@V?$basic_string@DU?$char_traits@D@std@@V?$allocator@D@2@@std@@V?$_String_iterator@V?$_String_val@U?$_Simple_types@D@std@@@std@@@2@@detail@algorithm@boost@@V?$split_iterator@V?$_String_iterator@V?$_String_val@U?$_Simple_types@D@std@@@std@@@std@@@34@Uuse_default@4@U64@@boost@@0@Z 1000b7a0 f i Cmd5Info.obj
 0001:0000a870       ??$_Uninit_move@PAV?$basic_string@DU?$char_traits@D@std@@V?$allocator@D@2@@std@@PAV12@V?$allocator@V?$basic_string@DU?$char_traits@D@std@@V?$allocator@D@2@@std@@@2@V12@@std@@YAPAV?$basic_string@DU?$char_traits@D@std@@V?$allocator@D@2@@0@PAV10@00AAU?$_Wrap_alloc@V?$allocator@V?$basic_string@DU?$char_traits@D@std@@V?$allocator@D@2@@std@@@std@@@0@0U_Nonscalar_ptr_iterator_tag@0@@Z 1000b870 f i Cmd5Info.obj
 0001:0000a900       ??$find_if@V?$_String_iterator@V?$_String_val@U?$_Simple_types@D@std@@@std@@@std@@U?$is_any_ofF@D@detail@algorithm@boost@@@std@@YA?AV?$_String_iterator@V?$_String_val@U?$_Simple_types@D@std@@@std@@@0@V10@0U?$is_any_ofF@D@detail@algorithm@boost@@@Z 1000b900 f i Cmd5Info.obj
 0001:0000a9b0       ??$?0V?$clone_impl@Ubad_alloc_@exception_detail@boost@@@exception_detail@boost@@@shared_count@detail@boost@@QAE@PAV?$clone_impl@Ubad_alloc_@exception_detail@boost@@@exception_detail@2@@Z 1000b9b0 f i Cmd5Info.obj
 0001:0000aa50       ??$?0V?$clone_impl@Ubad_exception_@exception_detail@boost@@@exception_detail@boost@@@shared_count@detail@boost@@QAE@PAV?$clone_impl@Ubad_exception_@exception_detail@boost@@@exception_detail@2@@Z 1000ba50 f i Cmd5Info.obj
 0001:0000aaf0       ??$_Sort@PADHU?$less@X@std@@@std@@YAXPAD0HU?$less@X@0@@Z 1000baf0 f i Cmd5Info.obj
 0001:0000abe0       ??$?0U?$token_finderF@U?$is_any_ofF@D@detail@algorithm@boost@@@detail@algorithm@boost@@@?$function2@V?$iterator_range@V?$_String_iterator@V?$_String_val@U?$_Simple_types@D@std@@@std@@@std@@@boost@@V?$_String_iterator@V?$_String_val@U?$_Simple_types@D@std@@@std@@@std@@V34@@boost@@QAE@U?$token_finderF@U?$is_any_ofF@D@detail@algorithm@boost@@@detail@algorithm@1@H@Z 1000bbe0 f i Cmd5Info.obj
 0001:0000ac90       ??$_Construct@V?$transform_iterator@U?$copy_iterator_rangeF@V?$basic_string@DU?$char_traits@D@std@@V?$allocator@D@2@@std@@V?$_String_iterator@V?$_String_val@U?$_Simple_types@D@std@@@std@@@2@@detail@algorithm@boost@@V?$split_iterator@V?$_String_iterator@V?$_String_val@U?$_Simple_types@D@std@@@std@@@std@@@34@Uuse_default@4@U64@@boost@@@?$vector@V?$basic_string@DU?$char_traits@D@std@@V?$allocator@D@2@@std@@V?$allocator@V?$basic_string@DU?$char_traits@D@std@@V?$allocator@D@2@@std@@@2@@std@@QAEXV?$transform_iterator@U?$copy_iterator_rangeF@V?$basic_string@DU?$char_traits@D@std@@V?$allocator@D@2@@std@@V?$_String_iterator@V?$_String_val@U?$_Simple_types@D@std@@@std@@@2@@detail@algorithm@boost@@V?$split_iterator@V?$_String_iterator@V?$_String_val@U?$_Simple_types@D@std@@@std@@@std@@@34@Uuse_default@4@U64@@boost@@0Uinput_iterator_tag@1@@Z 1000bc90 f i Cmd5Info.obj
 0001:0000ae00       ??$_Find_if@PADU?$is_any_ofF@D@detail@algorithm@boost@@@std@@YAPADPAD0U?$is_any_ofF@D@detail@algorithm@boost@@@Z 1000be00 f i Cmd5Info.obj
 0001:0000ae90       ??D?$iterator_facade@V?$transform_iterator@U?$copy_iterator_rangeF@V?$basic_string@DU?$char_traits@D@std@@V?$allocator@D@2@@std@@V?$_String_iterator@V?$_String_val@U?$_Simple_types@D@std@@@std@@@2@@detail@algorithm@boost@@V?$split_iterator@V?$_String_iterator@V?$_String_val@U?$_Simple_types@D@std@@@std@@@std@@@34@Uuse_default@4@U64@@boost@@V?$basic_string@DU?$char_traits@D@std@@V?$allocator@D@2@@std@@Uforward_traversal_tag@2@V34@H@boost@@QBE?AV?$basic_string@DU?$char_traits@D@std@@V?$allocator@D@2@@std@@XZ 1000be90 f i Cmd5Info.obj
 0001:0000aeb0       ?dispose@?$sp_counted_impl_p@V?$clone_impl@Ubad_alloc_@exception_detail@boost@@@exception_detail@boost@@@detail@boost@@UAEXXZ 1000beb0 f i Cmd5Info.obj
 0001:0000aeb0       ?dispose@?$sp_counted_impl_p@V?$clone_impl@Ubad_exception_@exception_detail@boost@@@exception_detail@boost@@@detail@boost@@UAEXXZ 1000beb0 f i Cmd5Info.obj
 0001:0000aec0       ?get_deleter@?$sp_counted_impl_p@V?$clone_impl@Ubad_exception_@exception_detail@boost@@@exception_detail@boost@@@detail@boost@@UAEPAXABVtype_info@@@Z 1000bec0 f i Cmd5Info.obj
 0001:0000aec0       ?get_deleter@?$sp_counted_impl_p@Um_imp@filesystem_error@filesystem@boost@@@detail@boost@@UAEPAXABVtype_info@@@Z 1000bec0 f i libboost_filesystem-vc120-mt-s-1_55:operations.obj
 0001:0000aec0       ?get_deleter@?$sp_counted_impl_p@V?$clone_impl@Ubad_alloc_@exception_detail@boost@@@exception_detail@boost@@@detail@boost@@UAEPAXABVtype_info@@@Z 1000bec0 f i Cmd5Info.obj
 0001:0000aed0       ??$_Unguarded_partition@PADU?$less@X@std@@@std@@YA?AU?$pair@PADPAD@0@PAD0U?$less@X@0@@Z 1000bed0 f i Cmd5Info.obj
 0001:0000b060       ??$assign_to@U?$token_finderF@U?$is_any_ofF@D@detail@algorithm@boost@@@detail@algorithm@boost@@@?$function2@V?$iterator_range@V?$_String_iterator@V?$_String_val@U?$_Simple_types@D@std@@@std@@@std@@@boost@@V?$_String_iterator@V?$_String_val@U?$_Simple_types@D@std@@@std@@@std@@V34@@boost@@AAEXU?$token_finderF@U?$is_any_ofF@D@detail@algorithm@boost@@@detail@algorithm@1@@Z 1000c060 f i Cmd5Info.obj
 0001:0000b110       ??$?0V?$basic_string@DU?$char_traits@D@std@@V?$allocator@D@2@@std@@V01@X@?$pair@$$CBV?$basic_string@DU?$char_traits@D@std@@V?$allocator@D@2@@std@@V12@@std@@QAE@$$QAU?$pair@V?$basic_string@DU?$char_traits@D@std@@V?$allocator@D@2@@std@@V12@@1@@Z 1000c110 f i Cmd5Info.obj
 0001:0000b1d0       ??$dereference@V?$transform_iterator@U?$copy_iterator_rangeF@V?$basic_string@DU?$char_traits@D@std@@V?$allocator@D@2@@std@@V?$_String_iterator@V?$_String_val@U?$_Simple_types@D@std@@@std@@@2@@detail@algorithm@boost@@V?$split_iterator@V?$_String_iterator@V?$_String_val@U?$_Simple_types@D@std@@@std@@@std@@@34@Uuse_default@4@U64@@boost@@@iterator_core_access@boost@@CA?AV?$basic_string@DU?$char_traits@D@std@@V?$allocator@D@2@@std@@ABV?$transform_iterator@U?$copy_iterator_rangeF@V?$basic_string@DU?$char_traits@D@std@@V?$allocator@D@2@@std@@V?$_String_iterator@V?$_String_val@U?$_Simple_types@D@std@@@std@@@2@@detail@algorithm@boost@@V?$split_iterator@V?$_String_iterator@V?$_String_val@U?$_Simple_types@D@std@@@std@@@std@@@34@Uuse_default@4@U64@@1@@Z 1000c1d0 f i Cmd5Info.obj
 0001:0000b1f0       ?dereference@?$transform_iterator@U?$copy_iterator_rangeF@V?$basic_string@DU?$char_traits@D@std@@V?$allocator@D@2@@std@@V?$_String_iterator@V?$_String_val@U?$_Simple_types@D@std@@@std@@@2@@detail@algorithm@boost@@V?$split_iterator@V?$_String_iterator@V?$_String_val@U?$_Simple_types@D@std@@@std@@@std@@@34@Uuse_default@4@U64@@boost@@ABE?AV?$basic_string@DU?$char_traits@D@std@@V?$allocator@D@2@@std@@XZ 1000c1f0 f i Cmd5Info.obj
 0001:0000b210       ?manage@?$functor_manager@U?$token_finderF@U?$is_any_ofF@D@detail@algorithm@boost@@@detail@algorithm@boost@@@function@detail@boost@@SAXABTfunction_buffer@234@AAT5234@W4functor_manager_operation_type@234@@Z 1000c210 f i Cmd5Info.obj
 0001:0000b240       ?invoke@?$function_obj_invoker2@U?$token_finderF@U?$is_any_ofF@D@detail@algorithm@boost@@@detail@algorithm@boost@@V?$iterator_range@V?$_String_iterator@V?$_String_val@U?$_Simple_types@D@std@@@std@@@std@@@4@V?$_String_iterator@V?$_String_val@U?$_Simple_types@D@std@@@std@@@std@@V67@@function@detail@boost@@SA?AV?$iterator_range@V?$_String_iterator@V?$_String_val@U?$_Simple_types@D@std@@@std@@@std@@@4@AATfunction_buffer@234@V?$_String_iterator@V?$_String_val@U?$_Simple_types@D@std@@@std@@@std@@1@Z 1000c240 f i Cmd5Info.obj
 0001:0000b260       ??R?$copy_iterator_rangeF@V?$basic_string@DU?$char_traits@D@std@@V?$allocator@D@2@@std@@V?$_String_iterator@V?$_String_val@U?$_Simple_types@D@std@@@std@@@2@@detail@algorithm@boost@@QBE?AV?$basic_string@DU?$char_traits@D@std@@V?$allocator@D@2@@std@@ABV?$iterator_range@V?$_String_iterator@V?$_String_val@U?$_Simple_types@D@std@@@std@@@std@@@3@@Z 1000c260 f i Cmd5Info.obj
 0001:0000b280       ?manage_small@?$functor_manager_common@U?$token_finderF@U?$is_any_ofF@D@detail@algorithm@boost@@@detail@algorithm@boost@@@function@detail@boost@@SAXABTfunction_buffer@234@AAT5234@W4functor_manager_operation_type@234@@Z 1000c280 f i Cmd5Info.obj
 0001:0000b390       ??$_Median@PADU?$less@X@std@@@std@@YAXPAD00U?$less@X@0@@Z 1000c390 f i Cmd5Info.obj
 0001:0000b4b0       ??$_Make_heap@PADHDU?$less@X@std@@@std@@YAXPAD0U?$less@X@0@PAH0@Z 1000c4b0 f i Cmd5Info.obj
 0001:0000b550       ??$_Sort_heap@PADU?$less@X@std@@@std@@YAXPAD0U?$less@X@0@@Z 1000c550 f i Cmd5Info.obj
 0001:0000b5a0       ??$_Insertion_sort1@PADU?$less@X@std@@D@std@@YAXPAD0U?$less@X@0@0@Z 1000c5a0 f i Cmd5Info.obj
 0001:0000b630       ??$assign_to@U?$token_finderF@U?$is_any_ofF@D@detail@algorithm@boost@@@detail@algorithm@boost@@@?$basic_vtable2@V?$iterator_range@V?$_String_iterator@V?$_String_val@U?$_Simple_types@D@std@@@std@@@std@@@boost@@V?$_String_iterator@V?$_String_val@U?$_Simple_types@D@std@@@std@@@std@@V34@@function@detail@boost@@QBE_NU?$token_finderF@U?$is_any_ofF@D@detail@algorithm@boost@@@2algorithm@3@AATfunction_buffer@123@@Z 1000c630 f i Cmd5Info.obj
 0001:0000b6e0       ??$copy_range@V?$basic_string@DU?$char_traits@D@std@@V?$allocator@D@2@@std@@V?$iterator_range@V?$_String_iterator@V?$_String_val@U?$_Simple_types@D@std@@@std@@@std@@@boost@@@boost@@YA?AV?$basic_string@DU?$char_traits@D@std@@V?$allocator@D@2@@std@@ABV?$iterator_range@V?$_String_iterator@V?$_String_val@U?$_Simple_types@D@std@@@std@@@std@@@0@@Z 1000c6e0 f i Cmd5Info.obj
 0001:0000b720       ??$_Adjust_heap@PADHDU?$less@X@std@@@std@@YAXPADHH$$QADU?$less@X@0@@Z 1000c720 f i Cmd5Info.obj
 0001:0000b7c0       ??$assign_to@U?$token_finderF@U?$is_any_ofF@D@detail@algorithm@boost@@@detail@algorithm@boost@@@?$basic_vtable2@V?$iterator_range@V?$_String_iterator@V?$_String_val@U?$_Simple_types@D@std@@@std@@@std@@@boost@@V?$_String_iterator@V?$_String_val@U?$_Simple_types@D@std@@@std@@@std@@V34@@function@detail@boost@@ABE_NU?$token_finderF@U?$is_any_ofF@D@detail@algorithm@boost@@@2algorithm@3@AATfunction_buffer@123@Ufunction_obj_tag@123@@Z 1000c7c0 f i Cmd5Info.obj
 0001:0000b880       ??$assign_functor@U?$token_finderF@U?$is_any_ofF@D@detail@algorithm@boost@@@detail@algorithm@boost@@@?$basic_vtable2@V?$iterator_range@V?$_String_iterator@V?$_String_val@U?$_Simple_types@D@std@@@std@@@std@@@boost@@V?$_String_iterator@V?$_String_val@U?$_Simple_types@D@std@@@std@@@std@@V34@@function@detail@boost@@ABEXU?$token_finderF@U?$is_any_ofF@D@detail@algorithm@boost@@@2algorithm@3@AATfunction_buffer@123@U?$bool_@$00@mpl@3@@Z 1000c880 f i Cmd5Info.obj
 0001:0000b920       ??$_Construct@V?$_String_iterator@V?$_String_val@U?$_Simple_types@D@std@@@std@@@std@@@?$basic_string@DU?$char_traits@D@std@@V?$allocator@D@2@@std@@QAEXV?$_String_iterator@V?$_String_val@U?$_Simple_types@D@std@@@std@@@1@0Uforward_iterator_tag@1@@Z 1000c920 f i Cmd5Info.obj
 0001:0000ba90       ?equal@?$split_iterator@V?$_String_iterator@V?$_String_val@U?$_Simple_types@D@std@@@std@@@std@@@algorithm@boost@@ABE_NABV123@@Z 1000ca90 f i Cmd5Info.obj
 0001:0000bb2b       ??_E?$error_info_injector@Vthread_resource_error@boost@@@exception_detail@boost@@WCM@AEPAXI@Z 1000cb2b f i Cmd5Info.obj
 0001:0000bb33       ??_E?$clone_impl@U?$error_info_injector@Vbad_function_call@boost@@@exception_detail@boost@@@exception_detail@boost@@WM@AEPAXI@Z 1000cb33 f i Cmd5Info.obj
 0001:0000bb3b       ?rethrow@?$clone_impl@U?$error_info_injector@Vthread_resource_error@boost@@@exception_detail@boost@@@exception_detail@boost@@$0PPPPPPPM@A@BEXXZ 1000cb3b f i Cmd5Info.obj
 0001:0000bb43       ??_E?$clone_impl@U?$error_info_injector@Vthread_resource_error@boost@@@exception_detail@boost@@@exception_detail@boost@@WCM@AEPAXI@Z 1000cb43 f i Cmd5Info.obj
 0001:0000bb4b       ?rethrow@?$clone_impl@U?$error_info_injector@Vbad_function_call@boost@@@exception_detail@boost@@@exception_detail@boost@@$0PPPPPPPM@A@BEXXZ 1000cb4b f i Cmd5Info.obj
 0001:0000bb53       ??_E?$clone_impl@Ubad_exception_@exception_detail@boost@@@exception_detail@boost@@$4PPPPPPPM@CI@AEPAXI@Z 1000cb53 f i Cmd5Info.obj
 0001:0000bb5e       ??_E?$clone_impl@U?$error_info_injector@Vsystem_error@system@boost@@@exception_detail@boost@@@exception_detail@boost@@$4PPPPPPPM@EI@AEPAXI@Z 1000cb5e f i Cmd5Info.obj
 0001:0000bb69       ?clone@?$clone_impl@Ubad_alloc_@exception_detail@boost@@@exception_detail@boost@@$0PPPPPPPM@A@BEPBVclone_base@23@XZ 1000cb69 f i Cmd5Info.obj
 0001:0000bb71       ??_Ebad_exception_@exception_detail@boost@@WBE@AEPAXI@Z 1000cb71 f i Cmd5Info.obj
 0001:0000bb79       ??_E?$error_info_injector@Vbad_function_call@boost@@@exception_detail@boost@@WM@AEPAXI@Z 1000cb79 f i Cmd5Info.obj
 0001:0000bb81       ??_E?$error_info_injector@Vsystem_error@system@boost@@@exception_detail@boost@@WCM@AEPAXI@Z 1000cb81 f i Cmd5Info.obj
 0001:0000bb89       ??_E?$clone_impl@U?$error_info_injector@Vsystem_error@system@boost@@@exception_detail@boost@@@exception_detail@boost@@WCM@AEPAXI@Z 1000cb89 f i Cmd5Info.obj
 0001:0000bb91       ??_Ebad_alloc_@exception_detail@boost@@WBE@AEPAXI@Z 1000cb91 f i Cmd5Info.obj
 0001:0000bb99       ?rethrow@?$clone_impl@U?$error_info_injector@Vsystem_error@system@boost@@@exception_detail@boost@@@exception_detail@boost@@$0PPPPPPPM@A@BEXXZ 1000cb99 f i Cmd5Info.obj
 0001:0000bba1       ?rethrow@?$clone_impl@Ubad_exception_@exception_detail@boost@@@exception_detail@boost@@$0PPPPPPPM@A@BEXXZ 1000cba1 f i Cmd5Info.obj
 0001:0000bba9       ??_E?$clone_impl@Ubad_alloc_@exception_detail@boost@@@exception_detail@boost@@$4PPPPPPPM@CI@AEPAXI@Z 1000cba9 f i Cmd5Info.obj
 0001:0000bbb4       ??_E?$clone_impl@Ubad_exception_@exception_detail@boost@@@exception_detail@boost@@WBE@AEPAXI@Z 1000cbb4 f i Cmd5Info.obj
 0001:0000bbbc       ?clone@?$clone_impl@U?$error_info_injector@Vbad_function_call@boost@@@exception_detail@boost@@@exception_detail@boost@@$0PPPPPPPM@A@BEPBVclone_base@23@XZ 1000cbbc f i Cmd5Info.obj
 0001:0000bbc4       ?clone@?$clone_impl@U?$error_info_injector@Vthread_resource_error@boost@@@exception_detail@boost@@@exception_detail@boost@@$0PPPPPPPM@A@BEPBVclone_base@23@XZ 1000cbc4 f i Cmd5Info.obj
 0001:0000bbcc       ??_E?$basic_ofstream@DU?$char_traits@D@std@@@std@@$4PPPPPPPM@A@AEPAXI@Z 1000cbcc f i Cmd5Info.obj
 0001:0000bbd4       ??_E?$basic_ostream@DU?$char_traits@D@std@@@std@@$4PPPPPPPM@A@AEPAXI@Z 1000cbd4 f i Cmd5Info.obj
 0001:0000bbdc       ?rethrow@?$clone_impl@Ubad_alloc_@exception_detail@boost@@@exception_detail@boost@@$0PPPPPPPM@A@BEXXZ 1000cbdc f i Cmd5Info.obj
 0001:0000bbe4       ??_E?$clone_impl@Ubad_alloc_@exception_detail@boost@@@exception_detail@boost@@WBE@AEPAXI@Z 1000cbe4 f i Cmd5Info.obj
 0001:0000bbec       ??_E?$clone_impl@U?$error_info_injector@Vbad_function_call@boost@@@exception_detail@boost@@@exception_detail@boost@@$4PPPPPPPM@CI@AEPAXI@Z 1000cbec f i Cmd5Info.obj
 0001:0000bbf7       ?clone@?$clone_impl@U?$error_info_injector@Vsystem_error@system@boost@@@exception_detail@boost@@@exception_detail@boost@@$0PPPPPPPM@A@BEPBVclone_base@23@XZ 1000cbf7 f i Cmd5Info.obj
 0001:0000bbff       ??_E?$clone_impl@U?$error_info_injector@Vthread_resource_error@boost@@@exception_detail@boost@@@exception_detail@boost@@$4PPPPPPPM@EI@AEPAXI@Z 1000cbff f i Cmd5Info.obj
 0001:0000bc0a       ?clone@?$clone_impl@Ubad_exception_@exception_detail@boost@@@exception_detail@boost@@$0PPPPPPPM@A@BEPBVclone_base@23@XZ 1000cc0a f i Cmd5Info.obj
 0001:0000bc20       ?MD5Transform@MD5@@CAXQAKQAE@Z 1000cc20 f i ACVerifiedPacket.obj
 0001:0000c2f0       ?Decode@MD5@@CAXPAKPAEI@Z  1000d2f0 f i ACVerifiedPacket.obj
 0001:0000c330       ?Update@MD5@@QAEXPAEI@Z    1000d330 f i ACVerifiedPacket.obj
 0001:0000c3e0       ?Final@MD5@@QAEXXZ         1000d3e0 f i ACVerifiedPacket.obj
 0001:0000c4e0       ?RawVerifiedPacket@ACVerifiedPacket@@YA?AV?$basic_string@DU?$char_traits@D@std@@V?$allocator@D@2@@std@@XZ 1000d4e0 f   ACVerifiedPacket.obj
 0001:0000c6b0       ??0BitStream@RakNet@@QAE@XZ 1000d6b0 f   BitStream.obj
 0001:0000c6e0       ??1BitStream@RakNet@@QAE@XZ 1000d6e0 f   BitStream.obj
 0001:0000c700       ?Write0@BitStream@RakNet@@QAEXXZ 1000d700 f   BitStream.obj
 0001:0000c790       ?Write1@BitStream@RakNet@@QAEXXZ 1000d790 f   BitStream.obj
 0001:0000c840       ?ReadString@BitStream@RakNet@@QAE_NPAE@Z 1000d840 f   BitStream.obj
 0001:0000c8d0       ?WriteBits@BitStream@RakNet@@QAEXPBEH_N@Z 1000d8d0 f   BitStream.obj
 0001:0000c970       ?AddBitsAndReallocate@BitStream@RakNet@@QAEXH@Z 1000d970 f   BitStream.obj
 0001:0000c9f0       ??$Read@G@BitStream@RakNet@@QAE_NAAG@Z 1000d9f0 f i BitStream.obj
 0001:0000caa0       ?Process@CRPC@@SAXGAAVBitStream@RakNet@@H@Z 1000daa0 f   CRPC.obj
 0001:0000cb00       ??A?$map@GP6AXAAVBitStream@RakNet@@H@ZU?$less@G@std@@V?$allocator@U?$pair@$$CBGP6AXAAVBitStream@RakNet@@H@Z@std@@@4@@std@@QAEAAP6AXAAVBitStream@RakNet@@H@ZABG@Z 1000db00 f i CRPC.obj
 0001:0000cba0       ?erase@?$_Tree@V?$_Tmap_traits@GP6AXAAVBitStream@RakNet@@H@ZU?$less@G@std@@V?$allocator@U?$pair@$$CBGP6AXAAVBitStream@RakNet@@H@Z@std@@@4@$0A@@std@@@std@@QAE?AV?$_Tree_iterator@V?$_Tree_val@U?$_Tree_simple_types@U?$pair@$$CBGP6AXAAVBitStream@RakNet@@H@Z@std@@@std@@@std@@@2@V?$_Tree_const_iterator@V?$_Tree_val@U?$_Tree_simple_types@U?$pair@$$CBGP6AXAAVBitStream@RakNet@@H@Z@std@@@std@@@std@@@2@0@Z 1000dba0 f i CRPC.obj
 0001:0000cc50       ?erase@?$_Tree@V?$_Tmap_traits@GP6AXAAVBitStream@RakNet@@H@ZU?$less@G@std@@V?$allocator@U?$pair@$$CBGP6AXAAVBitStream@RakNet@@H@Z@std@@@4@$0A@@std@@@std@@QAE?AV?$_Tree_iterator@V?$_Tree_val@U?$_Tree_simple_types@U?$pair@$$CBGP6AXAAVBitStream@RakNet@@H@Z@std@@@std@@@std@@@2@V?$_Tree_const_iterator@V?$_Tree_val@U?$_Tree_simple_types@U?$pair@$$CBGP6AXAAVBitStream@RakNet@@H@Z@std@@@std@@@std@@@2@@Z 1000dc50 f i CRPC.obj
 0001:0000cec0       ?clear@?$_Tree@V?$_Tmap_traits@GP6AXAAVBitStream@RakNet@@H@ZU?$less@G@std@@V?$allocator@U?$pair@$$CBGP6AXAAVBitStream@RakNet@@H@Z@std@@@4@$0A@@std@@@std@@QAEXXZ 1000dec0 f i CRPC.obj
 0001:0000cf20       ?_Erase@?$_Tree@V?$_Tmap_traits@GP6AXAAVBitStream@RakNet@@H@ZU?$less@G@std@@V?$allocator@U?$pair@$$CBGP6AXAAVBitStream@RakNet@@H@Z@std@@@4@$0A@@std@@@std@@IAEXPAU?$_Tree_node@U?$pair@$$CBGP6AXAAVBitStream@RakNet@@H@Z@std@@PAX@2@@Z 1000df20 f i CRPC.obj
 0001:0000cf60       ?_Lrotate@?$_Tree@V?$_Tmap_traits@GP6AXAAVBitStream@RakNet@@H@ZU?$less@G@std@@V?$allocator@U?$pair@$$CBGP6AXAAVBitStream@RakNet@@H@Z@std@@@4@$0A@@std@@@std@@IAEXPAU?$_Tree_node@U?$pair@$$CBGP6AXAAVBitStream@RakNet@@H@Z@std@@PAX@2@@Z 1000df60 f i CRPC.obj
 0001:0000cfc0       ?_Rrotate@?$_Tree@V?$_Tmap_traits@GP6AXAAVBitStream@RakNet@@H@ZU?$less@G@std@@V?$allocator@U?$pair@$$CBGP6AXAAVBitStream@RakNet@@H@Z@std@@@4@$0A@@std@@@std@@IAEXPAU?$_Tree_node@U?$pair@$$CBGP6AXAAVBitStream@RakNet@@H@Z@std@@PAX@2@@Z 1000dfc0 f i CRPC.obj
 0001:0000d020       ?_Buyheadnode@?$_Tree_alloc@$0A@U?$_Tree_base_types@U?$pair@$$CBGP6AXAAVBitStream@RakNet@@H@Z@std@@V?$allocator@U?$pair@$$CBGP6AXAAVBitStream@RakNet@@H@Z@std@@@2@@std@@@std@@QAEPAU?$_Tree_node@U?$pair@$$CBGP6AXAAVBitStream@RakNet@@H@Z@std@@PAX@2@XZ 1000e020 f i CRPC.obj
 0001:0000d050       ??$_Buynode@ABUpiecewise_construct_t@std@@V?$tuple@ABG@2@V?$tuple@$$$V@2@@?$_Tree_buy@U?$pair@$$CBGP6AXAAVBitStream@RakNet@@H@Z@std@@V?$allocator@U?$pair@$$CBGP6AXAAVBitStream@RakNet@@H@Z@std@@@2@@std@@QAEPAU?$_Tree_node@U?$pair@$$CBGP6AXAAVBitStream@RakNet@@H@Z@std@@PAX@1@ABUpiecewise_construct_t@1@$$QAV?$tuple@ABG@1@$$QAV?$tuple@$$$V@1@@Z 1000e050 f i CRPC.obj
 0001:0000d080       ??$_Insert_hint@AAU?$pair@$$CBGP6AXAAVBitStream@RakNet@@H@Z@std@@PAU?$_Tree_node@U?$pair@$$CBGP6AXAAVBitStream@RakNet@@H@Z@std@@PAX@2@@?$_Tree@V?$_Tmap_traits@GP6AXAAVBitStream@RakNet@@H@ZU?$less@G@std@@V?$allocator@U?$pair@$$CBGP6AXAAVBitStream@RakNet@@H@Z@std@@@4@$0A@@std@@@std@@IAE?AV?$_Tree_iterator@V?$_Tree_val@U?$_Tree_simple_types@U?$pair@$$CBGP6AXAAVBitStream@RakNet@@H@Z@std@@@std@@@std@@@1@V?$_Tree_const_iterator@V?$_Tree_val@U?$_Tree_simple_types@U?$pair@$$CBGP6AXAAVBitStream@RakNet@@H@Z@std@@@std@@@std@@@1@AAU?$pair@$$CBGP6AXAAVBitStream@RakNet@@H@Z@1@PAU?$_Tree_node@U?$pair@$$CBGP6AXAAVBitStream@RakNet@@H@Z@std@@PAX@1@@Z 1000e080 f i CRPC.obj
 0001:0000d210       ?_Buynode0@?$_Tree_buy@U?$pair@$$CBGP6AXAAVBitStream@RakNet@@H@Z@std@@V?$allocator@U?$pair@$$CBGP6AXAAVBitStream@RakNet@@H@Z@std@@@2@@std@@QAEPAU?$_Tree_node@U?$pair@$$CBGP6AXAAVBitStream@RakNet@@H@Z@std@@PAX@2@XZ 1000e210 f i CRPC.obj
 0001:0000d250       ??$_Insert_at@AAU?$pair@$$CBGP6AXAAVBitStream@RakNet@@H@Z@std@@PAU?$_Tree_node@U?$pair@$$CBGP6AXAAVBitStream@RakNet@@H@Z@std@@PAX@2@@?$_Tree@V?$_Tmap_traits@GP6AXAAVBitStream@RakNet@@H@ZU?$less@G@std@@V?$allocator@U?$pair@$$CBGP6AXAAVBitStream@RakNet@@H@Z@std@@@4@$0A@@std@@@std@@IAE?AV?$_Tree_iterator@V?$_Tree_val@U?$_Tree_simple_types@U?$pair@$$CBGP6AXAAVBitStream@RakNet@@H@Z@std@@@std@@@std@@@1@_NPAU?$_Tree_node@U?$pair@$$CBGP6AXAAVBitStream@RakNet@@H@Z@std@@PAX@1@AAU?$pair@$$CBGP6AXAAVBitStream@RakNet@@H@Z@1@1@Z 1000e250 f i CRPC.obj
 0001:0000d480       ??$_Insert_nohint@AAU?$pair@$$CBGP6AXAAVBitStream@RakNet@@H@Z@std@@PAU?$_Tree_node@U?$pair@$$CBGP6AXAAVBitStream@RakNet@@H@Z@std@@PAX@2@@?$_Tree@V?$_Tmap_traits@GP6AXAAVBitStream@RakNet@@H@ZU?$less@G@std@@V?$allocator@U?$pair@$$CBGP6AXAAVBitStream@RakNet@@H@Z@std@@@4@$0A@@std@@@std@@IAE?AU?$pair@V?$_Tree_iterator@V?$_Tree_val@U?$_Tree_simple_types@U?$pair@$$CBGP6AXAAVBitStream@RakNet@@H@Z@std@@@std@@@std@@@std@@_N@1@_NAAU?$pair@$$CBGP6AXAAVBitStream@RakNet@@H@Z@1@PAU?$_Tree_node@U?$pair@$$CBGP6AXAAVBitStream@RakNet@@H@Z@std@@PAX@1@@Z 1000e480 f i CRPC.obj
 0001:0000d5a0       ?digestFile@MD5@@QAEPAEPA_W@Z 1000e5a0 f i CFileCheck.obj
 0001:0000d670       ?digestFileChar@MD5@@QAEPADPA_W@Z 1000e670 f i CFileCheck.obj
 0001:0000d740       ??1CFileCheck@@QAE@XZ      1000e740 f   CFileCheck.obj
 0001:0000d7e0       ?GetFileMD5@CFileCheck@@IAEPAEV?$basic_string@_WU?$char_traits@_W@std@@V?$allocator@_W@2@@std@@@Z 1000e7e0 f   CFileCheck.obj
 0001:0000d960       ?GetFileMD5Chars@CFileCheck@@AAE?AV?$basic_string@DU?$char_traits@D@std@@V?$allocator@D@2@@std@@V?$basic_string@_WU?$char_traits@_W@std@@V?$allocator@_W@2@@3@@Z 1000e960 f   CFileCheck.obj
 0001:0000db20       ?AddFile@CFileCheck@@QAEXV?$basic_string@_WU?$char_traits@_W@std@@V?$allocator@_W@2@@std@@@Z 1000eb20 f   CFileCheck.obj
 0001:0000dbe0       ?AddFile@CFileCheck@@QAEXV?$basic_string@_WU?$char_traits@_W@std@@V?$allocator@_W@2@@std@@V?$basic_string@DU?$char_traits@D@std@@V?$allocator@D@2@@3@@Z 1000ebe0 f   CFileCheck.obj
 0001:0000dd70       ?OnFileExecuted@CFileCheck@@AAEXPB_WPAE@Z 1000ed70 f   CFileCheck.obj
 0001:0000e0f0       ?ResendFiles@CFileCheck@@QAEXXZ 1000f0f0 f   CFileCheck.obj
 0001:0000e260       ?DoesFileExist@CFileCheck@@QAE_NV?$basic_string@_WU?$char_traits@_W@std@@V?$allocator@_W@2@@std@@@Z 1000f260 f   CFileCheck.obj
 0001:0000e3d0       ?clear@?$vector@V?$basic_string@DU?$char_traits@D@std@@V?$allocator@D@2@@std@@V?$allocator@V?$basic_string@DU?$char_traits@D@std@@V?$allocator@D@2@@std@@@2@@std@@QAEXXZ 1000f3d0 f i CFileCheck.obj
 0001:0000e420       ?push_back@?$vector@V?$basic_string@_WU?$char_traits@_W@std@@V?$allocator@_W@2@@std@@V?$allocator@V?$basic_string@_WU?$char_traits@_W@std@@V?$allocator@_W@2@@std@@@2@@std@@QAEXABV?$basic_string@_WU?$char_traits@_W@std@@V?$allocator@_W@2@@2@@Z 1000f420 f i CFileCheck.obj
 0001:0000e500       ??0?$basic_string@_WU?$char_traits@_W@std@@V?$allocator@_W@2@@std@@QAE@ABV01@@Z 1000f500 f i CFileCheck.obj
 0001:0000e530       ??0?$basic_string@_WU?$char_traits@_W@std@@V?$allocator@_W@2@@std@@QAE@PB_W@Z 1000f530 f i CFileCheck.obj
 0001:0000e590       ??0?$basic_string@_WU?$char_traits@_W@std@@V?$allocator@_W@2@@std@@QAE@$$QAV01@@Z 1000f590 f i CFileCheck.obj
 0001:0000e600       ??4?$basic_string@_WU?$char_traits@_W@std@@V?$allocator@_W@2@@std@@QAEAAV01@$$QAV01@@Z 1000f600 f i CFileCheck.obj
 0001:0000e640       ?substr@?$basic_string@_WU?$char_traits@_W@std@@V?$allocator@_W@2@@std@@QBE?AV12@II@Z 1000f640 f i CFileCheck.obj
 0001:0000e680       ?_Reserve@?$vector@V?$basic_string@_WU?$char_traits@_W@std@@V?$allocator@_W@2@@std@@V?$allocator@V?$basic_string@_WU?$char_traits@_W@std@@V?$allocator@_W@2@@std@@@2@@std@@IAEXI@Z 1000f680 f i CFileCheck.obj
 0001:0000e720       ?_Getal@?$_Vector_alloc@$0A@U?$_Vec_base_types@V?$basic_string@_WU?$char_traits@_W@std@@V?$allocator@_W@2@@std@@V?$allocator@V?$basic_string@_WU?$char_traits@_W@std@@V?$allocator@_W@2@@std@@@2@@std@@@std@@QBE?AU?$_Wrap_alloc@V?$allocator@V?$basic_string@_WU?$char_traits@_W@std@@V?$allocator@_W@2@@std@@@std@@@2@XZ 1000f720 f i CFileCheck.obj
 0001:0000e730       ?_Assign_rv@?$basic_string@_WU?$char_traits@_W@std@@V?$allocator@_W@2@@std@@QAEX$$QAV12@@Z 1000f730 f i CFileCheck.obj
 0001:0000e790       ?assign@?$basic_string@_WU?$char_traits@_W@std@@V?$allocator@_W@2@@std@@QAEAAV12@ABV12@II@Z 1000f790 f i CFileCheck.obj
 0001:0000e8b0       ?rfind@?$basic_string@_WU?$char_traits@_W@std@@V?$allocator@_W@2@@std@@QBEIPB_WII@Z 1000f8b0 f i CFileCheck.obj
 0001:0000e970       ?_Reallocate@?$vector@V?$basic_string@_WU?$char_traits@_W@std@@V?$allocator@_W@2@@std@@V?$allocator@V?$basic_string@_WU?$char_traits@_W@std@@V?$allocator@_W@2@@std@@@2@@std@@IAEXI@Z 1000f970 f i CFileCheck.obj
 0001:0000ea20       ?assign@?$basic_string@_WU?$char_traits@_W@std@@V?$allocator@_W@2@@std@@QAEAAV12@PB_WI@Z 1000fa20 f i CFileCheck.obj
 0001:0000eb20       ?erase@?$basic_string@_WU?$char_traits@_W@std@@V?$allocator@_W@2@@std@@QAEAAV12@I@Z 1000fb20 f i CFileCheck.obj
 0001:0000eb60       ?erase@?$basic_string@_WU?$char_traits@_W@std@@V?$allocator@_W@2@@std@@QAEAAV12@II@Z 1000fb60 f i CFileCheck.obj
 0001:0000ec10       ?_Grow@?$basic_string@_WU?$char_traits@_W@std@@V?$allocator@_W@2@@std@@QAE_NI_N@Z 1000fc10 f i CFileCheck.obj
 0001:0000ecd0       ?_Copy@?$basic_string@_WU?$char_traits@_W@std@@V?$allocator@_W@2@@std@@QAEXII@Z 1000fcd0 f i CFileCheck.obj
 0001:0000ee30       ?allocate@?$_Wrap_alloc@V?$allocator@_W@std@@@std@@QAEPA_WI@Z 1000fe30 f i CFileCheck.obj
 0001:0000ee60       ??$Write@W4eRPC@@@BitStream@RakNet@@QAEXW4eRPC@@@Z 1000fe60 f i CFileCheck.obj
 0001:0000ee60       ??$Write@G@BitStream@RakNet@@QAEXG@Z 1000fe60 f i CFileCheck.obj
 0001:0000ef00       ??$Write@E@BitStream@RakNet@@QAEXE@Z 1000ff00 f i CFileCheck.obj
 0001:0000ef70       ??$Write@H@BitStream@RakNet@@QAEXH@Z 1000ff70 f i CFileCheck.obj
 0001:0000f010       ?replace@?$basic_string@_WU?$char_traits@_W@std@@V?$allocator@_W@2@@std@@QAEAAV12@IIPB_WI@Z 10010010 f i CFileCheck.obj
 0001:0000f1d0       ?replace@?$basic_string@_WU?$char_traits@_W@std@@V?$allocator@_W@2@@std@@QAEAAV12@IIABV12@II@Z 100101d0 f i CFileCheck.obj
 0001:0000f570       ??$_Destroy_range@U?$_Wrap_alloc@V?$allocator@V?$basic_string@_WU?$char_traits@_W@std@@V?$allocator@_W@2@@std@@@std@@@std@@@std@@YAXPAV?$basic_string@_WU?$char_traits@_W@std@@V?$allocator@_W@2@@0@0AAU?$_Wrap_alloc@V?$allocator@V?$basic_string@_WU?$char_traits@_W@std@@V?$allocator@_W@2@@std@@@std@@@0@U_Nonscalar_ptr_iterator_tag@0@@Z 10010570 f i CFileCheck.obj
 0001:0000f5b0       ??$_Uninit_move@PAV?$basic_string@_WU?$char_traits@_W@std@@V?$allocator@_W@2@@std@@PAV12@V?$allocator@V?$basic_string@_WU?$char_traits@_W@std@@V?$allocator@_W@2@@std@@@2@V12@@std@@YAPAV?$basic_string@_WU?$char_traits@_W@std@@V?$allocator@_W@2@@0@PAV10@00AAU?$_Wrap_alloc@V?$allocator@V?$basic_string@_WU?$char_traits@_W@std@@V?$allocator@_W@2@@std@@@std@@@0@0U_Nonscalar_ptr_iterator_tag@0@@Z 100105b0 f i CFileCheck.obj
 0001:0000f640       ??1handle_manager@win32@detail@boost@@QAE@XZ 10010640 f i CHookManager.obj
 0001:0000f660       ?free_raw_heap_memory@detail@boost@@YAXPAX@Z 10010660 f i CHookManager.obj
 0001:0000f680       ??0thread_data_base@detail@boost@@QAE@XZ 10010680 f i CHookManager.obj
 0001:0000f740       ?notify_all_at_thread_exit@thread_data_base@detail@boost@@UAEXPAVcondition_variable@3@PAVmutex@3@@Z 10010740 f i CHookManager.obj
 0001:0000f770       ??_G?$thread_data@V?$bind_t@XP6AXPAUHINSTANCE__@@@ZV?$list1@V?$value@PAUHINSTANCE__@@@_bi@boost@@@_bi@boost@@@_bi@boost@@@detail@boost@@UAEPAXI@Z 10010770 f i dllmain.obj
 0001:0000f770       ??_E?$thread_data@V?$bind_t@XP6AXPAUHINSTANCE__@@@ZV?$list1@V?$value@PAUHINSTANCE__@@@_bi@boost@@@_bi@boost@@@_bi@boost@@@detail@boost@@UAEPAXI@Z 10010770 f i * CIL library *:* CIL module *
 0001:0000f770       ??_E?$thread_data@P6AXXZ@detail@boost@@UAEPAXI@Z 10010770 f i * CIL library *:* CIL module *
 0001:0000f770       ??_G?$thread_data@P6AXXZ@detail@boost@@UAEPAXI@Z 10010770 f i CHookManager.obj
 0001:0000f770       ??_Gthread_data_base@detail@boost@@UAEPAXI@Z 10010770 f i CHookManager.obj
 0001:0000f770       ??_Ethread_data_base@detail@boost@@UAEPAXI@Z 10010770 f i * CIL library *:* CIL module *
 0001:0000f7a0       ??1?$map@PBXUtss_data_node@detail@boost@@U?$less@PBX@std@@V?$allocator@U?$pair@QBXUtss_data_node@detail@boost@@@std@@@5@@std@@QAE@XZ 100107a0 f i CHookManager.obj
 0001:0000f7d0       ?make_thread_info@thread@boost@@SA?AV?$intrusive_ptr@Uthread_data_base@detail@boost@@@2@P6AXXZ@Z 100107d0 f i CHookManager.obj
 0001:0000f820       ??1thread@boost@@QAE@XZ    10010820 f i CHookManager.obj
 0001:0000f8a0       ?Load@CHookManager@@SAXXZ  100108a0 f   CHookManager.obj
 0001:00011a40       ?SetConnectPatches@CHookManager@@SAXXZ 10012a40 f   CHookManager.obj
 0001:00011fe0       ?VerifyFilePaths@CHookManager@@CAXXZ 10012fe0 f   CHookManager.obj
 0001:00012c90       ?MainLoading@CHookManager@@CAXXZ 10013c90 f   CHookManager.obj
 0001:00012cc0       ?SlideFix@CHookManager@@CAXXZ 10013cc0 f   CHookManager.obj
 0001:00012cf0       ?OnPauseChange@CHookManager@@CAXXZ 10013cf0 f   CHookManager.obj
 0001:00012ea0       ?OnPause@CHookManager@@CAXXZ 10013ea0 f   CHookManager.obj
 0001:00012ed0       ?NameTagHook@CHookManager@@CAXXZ 10013ed0 f   CHookManager.obj
 0001:00012ef0       ?LoadRakClient@@YAXXZ      10013ef0 f   CHookManager.obj
 0001:00012f90       ?GetSampInfo@CHookManager@@CAXXZ 10013f90 f   CHookManager.obj
 0001:00012fe0       ?GravityHook@CHookManager@@CAXXZ 10013fe0 f   CHookManager.obj
 0001:00013030       ?MarkersHook@CHookManager@@CAXXZ 10014030 f   CHookManager.obj
 0001:00013060       ?WinMainHook@CHookManager@@CAXXZ 10014060 f   CHookManager.obj
 0001:00013080       ?rIdleHook@CHookManager@@CAXXZ 10014080 f   CHookManager.obj
 0001:000130a0       ?CleoHook@CHookManager@@CAXXZ 100140a0 f   CHookManager.obj
 0001:000130c0       ?SetCursorPosHook@CHookManager@@CAXXZ 100140c0 f   CHookManager.obj
 0001:000130f0       ?Fatulous1@CHookManager@@CAXXZ 100140f0 f   CHookManager.obj
 0001:00013110       ?Fatulous2@CHookManager@@CAXXZ 10014110 f   CHookManager.obj
 0001:00013120       ?Fatulous3@CHookManager@@CAXXZ 10014120 f   CHookManager.obj
 0001:00013130       ?KeyPress@CHookManager@@CAXXZ 10014130 f   CHookManager.obj
 0001:000131c0       ?SprintHook@CHookManager@@CAXXZ 100141c0 f   CHookManager.obj
 0001:00013210       ?FOVPatch@CHookManager@@CAXXZ 10014210 f   CHookManager.obj
 0001:00013240       ?WidescreenPatch@CHookManager@@CAXXZ 10014240 f   CHookManager.obj
 0001:00013250       ?LoadScriptsHook@CHookManager@@CAXXZ 10014250 f   CHookManager.obj
 0001:00013260       ?LoadShotgunBullet@CHookManager@@CAXXZ 10014260 f   CHookManager.obj
 0001:00013280       ?LoadBullet@CHookManager@@CAXXZ 10014280 f   CHookManager.obj
 0001:00013290       ?CameraXWriteHook2@CHookManager@@CAXXZ 10014290 f   CHookManager.obj
 0001:000132b0       ?CameraXWriteHook3@CHookManager@@CAXXZ 100142b0 f   CHookManager.obj
 0001:000132d0       ?CameraXWriteHook4@CHookManager@@CAXXZ 100142d0 f   CHookManager.obj
 0001:000132e0       ?CameraXWriteHook5@CHookManager@@CAXXZ 100142e0 f   CHookManager.obj
 0001:000132f0       ?CameraXWriteHook6@CHookManager@@CAXXZ 100142f0 f   CHookManager.obj
 0001:00013310       ?CameraXWriteHook7@CHookManager@@CAXXZ 10014310 f   CHookManager.obj
 0001:00013330       ?CameraXWriteHook8@CHookManager@@CAXXZ 10014330 f   CHookManager.obj
 0001:00013340       ?CameraXWriteHook9@CHookManager@@CAXXZ 10014340 f   CHookManager.obj
 0001:00013350       ?CameraXWriteHook10@CHookManager@@CAXXZ 10014350 f   CHookManager.obj
 0001:00013360       ?CameraXWriteHook11@CHookManager@@CAXXZ 10014360 f   CHookManager.obj
 0001:00013370       ?CameraXWriteHook12@CHookManager@@CAXXZ 10014370 f   CHookManager.obj
 0001:000133a0       ?CameraXAccessHook1@CHookManager@@CAXXZ 100143a0 f   CHookManager.obj
 0001:000133c0       ?CameraXAccessHook2@CHookManager@@CAXXZ 100143c0 f   CHookManager.obj
 0001:000133e0       ?CameraXAccessHook3@CHookManager@@CAXXZ 100143e0 f   CHookManager.obj
 0001:000133f0       ?CameraXAccessHook4@CHookManager@@CAXXZ 100143f0 f   CHookManager.obj
 0001:00013410       ?CameraXAccessHook5@CHookManager@@CAXXZ 10014410 f   CHookManager.obj
 0001:00013430       ?CameraXAccessHook6@CHookManager@@CAXXZ 10014430 f   CHookManager.obj
 0001:00013450       ?CameraXAccessHook7@CHookManager@@CAXXZ 10014450 f   CHookManager.obj
 0001:00013460       ?CameraXAccessHook8@CHookManager@@CAXXZ 10014460 f   CHookManager.obj
 0001:00013470       ?CameraXAccessHook9@CHookManager@@CAXXZ 10014470 f   CHookManager.obj
 0001:00013480       ?CameraXAccessHook10@CHookManager@@CAXXZ 10014480 f   CHookManager.obj
 0001:000134a0       ?CameraXAccessHook11@CHookManager@@CAXXZ 100144a0 f   CHookManager.obj
 0001:000134c0       ?CameraXAccessHook12@CHookManager@@CAXXZ 100144c0 f   CHookManager.obj
 0001:000134d0       ?CameraXAccessHook13@CHookManager@@CAXXZ 100144d0 f   CHookManager.obj
 0001:000134e0       ?CameraXAccessHook14@CHookManager@@CAXXZ 100144e0 f   CHookManager.obj
 0001:000134f0       ?CameraXAccessHook15@CHookManager@@CAXXZ 100144f0 f   CHookManager.obj
 0001:00013500       ?CameraXAccessHook16@CHookManager@@CAXXZ 10014500 f   CHookManager.obj
 0001:00013510       ?CameraXAccessHook17@CHookManager@@CAXXZ 10014510 f   CHookManager.obj
 0001:00013520       ?CameraXAccessHook18@CHookManager@@CAXXZ 10014520 f   CHookManager.obj
 0001:00013530       ?CameraXAccessHook19@CHookManager@@CAXXZ 10014530 f   CHookManager.obj
 0001:00013550       ?CameraXAccessHook20@CHookManager@@CAXXZ 10014550 f   CHookManager.obj
 0001:00013560       ?CameraXAccessHook21@CHookManager@@CAXXZ 10014560 f   CHookManager.obj
 0001:00013570       ?CameraXAccessHook22@CHookManager@@CAXXZ 10014570 f   CHookManager.obj
 0001:00013580       ?CameraXAccessHook23@CHookManager@@CAXXZ 10014580 f   CHookManager.obj
 0001:00013590       ?CameraXAccessHook24@CHookManager@@CAXXZ 10014590 f   CHookManager.obj
 0001:000135a0       ?CameraXAccessHook25@CHookManager@@CAXXZ 100145a0 f   CHookManager.obj
 0001:000135b0       ?CameraXAccessHook26@CHookManager@@CAXXZ 100145b0 f   CHookManager.obj
 0001:000135c0       ?CameraXAccessHook27@CHookManager@@CAXXZ 100145c0 f   CHookManager.obj
 0001:000135d0       ?CameraXAccessHook28@CHookManager@@CAXXZ 100145d0 f   CHookManager.obj
 0001:000135e0       ?CameraXAccessHook29@CHookManager@@CAXXZ 100145e0 f   CHookManager.obj
 0001:00013600       ?CameraXAccessHook30@CHookManager@@CAXXZ 10014600 f   CHookManager.obj
 0001:00013610       ?CameraXAccessHook31@CHookManager@@CAXXZ 10014610 f   CHookManager.obj
 0001:00013620       ?CameraXAccessHook32@CHookManager@@CAXXZ 10014620 f   CHookManager.obj
 0001:00013630       ?CameraXAccessHook33@CHookManager@@CAXXZ 10014630 f   CHookManager.obj
 0001:00013640       ?CameraXAccessHook34@CHookManager@@CAXXZ 10014640 f   CHookManager.obj
 0001:00013650       ?CameraXAccessHook35@CHookManager@@CAXXZ 10014650 f   CHookManager.obj
 0001:00013660       ?CameraXAccessHook36@CHookManager@@CAXXZ 10014660 f   CHookManager.obj
 0001:00013670       ?CameraXAccessHook37@CHookManager@@CAXXZ 10014670 f   CHookManager.obj
 0001:00013680       ?CameraXAccessHook38@CHookManager@@CAXXZ 10014680 f   CHookManager.obj
 0001:00013690       ?CameraXAccessHook39@CHookManager@@CAXXZ 10014690 f   CHookManager.obj
 0001:000136a0       ?CameraXAccessHook40@CHookManager@@CAXXZ 100146a0 f   CHookManager.obj
 0001:000136c0       ?CameraXAccessHook41@CHookManager@@CAXXZ 100146c0 f   CHookManager.obj
 0001:000136d0       ?CameraXAccessHook42@CHookManager@@CAXXZ 100146d0 f   CHookManager.obj
 0001:000136e0       ?CameraXAccessHook43@CHookManager@@CAXXZ 100146e0 f   CHookManager.obj
 0001:000136f0       ?CameraYWriteHook2@CHookManager@@CAXXZ 100146f0 f   CHookManager.obj
 0001:00013710       ?CameraYWriteHook3@CHookManager@@CAXXZ 10014710 f   CHookManager.obj
 0001:00013730       ?CameraYWriteHook4@CHookManager@@CAXXZ 10014730 f   CHookManager.obj
 0001:00013740       ?CameraYWriteHook5@CHookManager@@CAXXZ 10014740 f   CHookManager.obj
 0001:00013760       ?CameraYWriteHook6@CHookManager@@CAXXZ 10014760 f   CHookManager.obj
 0001:00013780       ?CameraYWriteHook7@CHookManager@@CAXXZ 10014780 f   CHookManager.obj
 0001:00013790       ?CameraYWriteHook9@CHookManager@@CAXXZ 10014790 f   CHookManager.obj
 0001:000137a0       ?CameraYWriteHook10@CHookManager@@CAXXZ 100147a0 f   CHookManager.obj
 0001:000137b0       ?CameraYWriteHook11@CHookManager@@CAXXZ 100147b0 f   CHookManager.obj
 0001:000137c0       ?CameraYWriteHook12@CHookManager@@CAXXZ 100147c0 f   CHookManager.obj
 0001:000137d0       ?CameraYWriteHook13@CHookManager@@CAXXZ 100147d0 f   CHookManager.obj
 0001:000137e0       ?CameraYWriteHook14@CHookManager@@CAXXZ 100147e0 f   CHookManager.obj
 0001:000137f0       ?CameraYWriteHook15@CHookManager@@CAXXZ 100147f0 f   CHookManager.obj
 0001:00013800       ?CameraYWriteHook16@CHookManager@@CAXXZ 10014800 f   CHookManager.obj
 0001:00013810       ?CameraYWriteHook17@CHookManager@@CAXXZ 10014810 f   CHookManager.obj
 0001:00013820       ?CameraYAccessHook1@CHookManager@@CAXXZ 10014820 f   CHookManager.obj
 0001:00013830       ?CameraYAccessHook2@CHookManager@@CAXXZ 10014830 f   CHookManager.obj
 0001:00013850       ?CameraYAccessHook3@CHookManager@@CAXXZ 10014850 f   CHookManager.obj
 0001:00013860       ?CameraYAccessHook4@CHookManager@@CAXXZ 10014860 f   CHookManager.obj
 0001:00013880       ?CameraYAccessHook5@CHookManager@@CAXXZ 10014880 f   CHookManager.obj
 0001:000138a0       ?CameraYAccessHook6@CHookManager@@CAXXZ 100148a0 f   CHookManager.obj
 0001:000138b0       ?CameraYAccessHook7@CHookManager@@CAXXZ 100148b0 f   CHookManager.obj
 0001:000138c0       ?CameraYAccessHook8@CHookManager@@CAXXZ 100148c0 f   CHookManager.obj
 0001:000138d0       ?CameraYAccessHook9@CHookManager@@CAXXZ 100148d0 f   CHookManager.obj
 0001:000138e0       ?CameraYAccessHook10@CHookManager@@CAXXZ 100148e0 f   CHookManager.obj
 0001:000138f0       ?CameraYAccessHook11@CHookManager@@CAXXZ 100148f0 f   CHookManager.obj
 0001:00013900       ?CameraYAccessHook12@CHookManager@@CAXXZ 10014900 f   CHookManager.obj
 0001:00013910       ?CameraYAccessHook13@CHookManager@@CAXXZ 10014910 f   CHookManager.obj
 0001:00013920       ?CameraYAccessHook14@CHookManager@@CAXXZ 10014920 f   CHookManager.obj
 0001:00013940       ?CameraYAccessHook15@CHookManager@@CAXXZ 10014940 f   CHookManager.obj
 0001:00013950       ?CameraYAccessHook16@CHookManager@@CAXXZ 10014950 f   CHookManager.obj
 0001:00013970       ?CameraYAccessHook17@CHookManager@@CAXXZ 10014970 f   CHookManager.obj
 0001:00013980       ?CameraYAccessHook18@CHookManager@@CAXXZ 10014980 f   CHookManager.obj
 0001:00013990       ?CameraYAccessHook19@CHookManager@@CAXXZ 10014990 f   CHookManager.obj
 0001:000139a0       ?CameraYAccessHook20@CHookManager@@CAXXZ 100149a0 f   CHookManager.obj
 0001:000139b0       ?CameraYAccessHook21@CHookManager@@CAXXZ 100149b0 f   CHookManager.obj
 0001:000139c0       ?CameraYAccessHook22@CHookManager@@CAXXZ 100149c0 f   CHookManager.obj
 0001:000139d0       ?CameraYAccessHook23@CHookManager@@CAXXZ 100149d0 f   CHookManager.obj
 0001:000139e0       ?CameraYAccessHook24@CHookManager@@CAXXZ 100149e0 f   CHookManager.obj
 0001:000139f0       ?CameraYAccessHook25@CHookManager@@CAXXZ 100149f0 f   CHookManager.obj
 0001:00013a00       ?CameraYAccessHook26@CHookManager@@CAXXZ 10014a00 f   CHookManager.obj
 0001:00013a20       ?CameraYAccessHook27@CHookManager@@CAXXZ 10014a20 f   CHookManager.obj
 0001:00013a40       ?CameraYAccessHook29@CHookManager@@CAXXZ 10014a40 f   CHookManager.obj
 0001:00013a50       ?CameraYAccessHook30@CHookManager@@CAXXZ 10014a50 f   CHookManager.obj
 0001:00013a60       ?CameraYAccessHook31@CHookManager@@CAXXZ 10014a60 f   CHookManager.obj
 0001:00013a70       ?push_back@?$vector@U?$pair@PAVcondition_variable@boost@@PAVmutex@2@@std@@V?$allocator@U?$pair@PAVcondition_variable@boost@@PAVmutex@2@@std@@@2@@std@@QAEX$$QAU?$pair@PAVcondition_variable@boost@@PAVmutex@2@@2@@Z 10014a70 f i CHookManager.obj
 0001:00013af0       ??1?$vector@U?$pair@PAVcondition_variable@boost@@PAVmutex@2@@std@@V?$allocator@U?$pair@PAVcondition_variable@boost@@PAVmutex@2@@std@@@2@@std@@QAE@XZ 10014af0 f i CHookManager.obj
 0001:00013af0       ??1?$vector@V?$_List_iterator@V?$_List_val@U?$_List_simple_types@VIMG_Entry@@@std@@@std@@@std@@V?$allocator@V?$_List_iterator@V?$_List_val@U?$_List_simple_types@VIMG_Entry@@@std@@@std@@@std@@@2@@std@@QAE@XZ 10014af0 f i IMG.obj
 0001:00013b20       ??1?$vector@V?$shared_ptr@Ushared_state_base@detail@boost@@@boost@@V?$allocator@V?$shared_ptr@Ushared_state_base@detail@boost@@@boost@@@std@@@std@@QAE@XZ 10014b20 f i CHookManager.obj
 0001:00013b70       ??1?$intrusive_ptr@Uthread_data_base@detail@boost@@@boost@@QAE@XZ 10014b70 f i CHookManager.obj
 0001:00013ba0       ?run@?$thread_data@P6AXXZ@detail@boost@@UAEXXZ 10014ba0 f i CHookManager.obj
 0001:00013bb0       ?_Reserve@?$vector@U?$pair@PAVcondition_variable@boost@@PAVmutex@2@@std@@V?$allocator@U?$pair@PAVcondition_variable@boost@@PAVmutex@2@@std@@@2@@std@@IAEXI@Z 10014bb0 f i CHookManager.obj
 0001:00013c30       ?erase@?$_Tree@V?$_Tmap_traits@PBXUtss_data_node@detail@boost@@U?$less@PBX@std@@V?$allocator@U?$pair@QBXUtss_data_node@detail@boost@@@std@@@5@$0A@@std@@@std@@QAE?AV?$_Tree_iterator@V?$_Tree_val@U?$_Tree_simple_types@U?$pair@QBXUtss_data_node@detail@boost@@@std@@@std@@@std@@@2@V?$_Tree_const_iterator@V?$_Tree_val@U?$_Tree_simple_types@U?$pair@QBXUtss_data_node@detail@boost@@@std@@@std@@@std@@@2@0@Z 10014c30 f i CHookManager.obj
 0001:00013cf0       ?_Reallocate@?$vector@U?$pair@PAVcondition_variable@boost@@PAVmutex@2@@std@@V?$allocator@U?$pair@PAVcondition_variable@boost@@PAVmutex@2@@std@@@2@@std@@IAEXI@Z 10014cf0 f i CHookManager.obj
 0001:00013d80       ?erase@?$_Tree@V?$_Tmap_traits@PBXUtss_data_node@detail@boost@@U?$less@PBX@std@@V?$allocator@U?$pair@QBXUtss_data_node@detail@boost@@@std@@@5@$0A@@std@@@std@@QAE?AV?$_Tree_iterator@V?$_Tree_val@U?$_Tree_simple_types@U?$pair@QBXUtss_data_node@detail@boost@@@std@@@std@@@std@@@2@V?$_Tree_const_iterator@V?$_Tree_val@U?$_Tree_simple_types@U?$pair@QBXUtss_data_node@detail@boost@@@std@@@std@@@std@@@2@@Z 10014d80 f i CHookManager.obj
 0001:00014030       ?_Erase@?$_Tree@V?$_Tmap_traits@PBXUtss_data_node@detail@boost@@U?$less@PBX@std@@V?$allocator@U?$pair@QBXUtss_data_node@detail@boost@@@std@@@5@$0A@@std@@@std@@IAEXPAU?$_Tree_node@U?$pair@QBXUtss_data_node@detail@boost@@@std@@PAX@2@@Z 10015030 f i CHookManager.obj
 0001:000140b0       ?_Buyheadnode@?$_Tree_alloc@$0A@U?$_Tree_base_types@U?$pair@QBXUtss_data_node@detail@boost@@@std@@V?$allocator@U?$pair@QBXUtss_data_node@detail@boost@@@std@@@2@@std@@@std@@QAEPAU?$_Tree_node@U?$pair@QBXUtss_data_node@detail@boost@@@std@@PAX@2@XZ 100150b0 f i CHookManager.obj
 0001:000140e0       ??$throw_exception@Vbad_alloc@std@@@boost@@YAXABVbad_alloc@std@@@Z 100150e0 f i CHookManager.obj
 0001:00014140       ??$heap_new@V?$thread_data@P6AXXZ@detail@boost@@P6AXXZ@detail@boost@@YAPAV?$thread_data@P6AXXZ@01@$$QAP6AXXZ@Z 10015140 f i CHookManager.obj
 0001:00014200       ??$?0P6AXXZ@thread@boost@@QAE@$$QAP6AXXZ@Z 10015200 f i CHookManager.obj
 0001:000142c0       ??_D?$clone_impl@U?$error_info_injector@Vbad_alloc@std@@@exception_detail@boost@@@exception_detail@boost@@QAEXXZ 100152c0 f i CHookManager.obj
 0001:000142e0       ??0?$clone_impl@U?$error_info_injector@Vbad_alloc@std@@@exception_detail@boost@@@exception_detail@boost@@QAE@ABV012@@Z 100152e0 f i CHookManager.obj
 0001:000143c0       ??0?$error_info_injector@Vbad_alloc@std@@@exception_detail@boost@@QAE@ABU012@@Z 100153c0 f i CHookManager.obj
 0001:00014460       ??_E?$clone_impl@U?$error_info_injector@Vbad_alloc@std@@@exception_detail@boost@@@exception_detail@boost@@UAEPAXI@Z 10015460 f i * CIL library *:* CIL module *
 0001:00014460       ??_G?$clone_impl@U?$error_info_injector@Vbad_alloc@std@@@exception_detail@boost@@@exception_detail@boost@@UAEPAXI@Z 10015460 f i CHookManager.obj
 0001:00014490       ??_E?$error_info_injector@Vbad_alloc@std@@@exception_detail@boost@@UAEPAXI@Z 10015490 f i * CIL library *:* CIL module *
 0001:00014490       ??_G?$error_info_injector@Vbad_alloc@std@@@exception_detail@boost@@UAEPAXI@Z 10015490 f i CHookManager.obj
 0001:000144f0       ??1?$error_info_injector@Vbad_alloc@std@@@exception_detail@boost@@UAE@XZ 100154f0 f i CHookManager.obj
 0001:00014530       ??1?$clone_impl@U?$error_info_injector@Vbad_alloc@std@@@exception_detail@boost@@@exception_detail@boost@@UAE@XZ 10015530 f i CHookManager.obj
 0001:000145a0       ?clone@?$clone_impl@U?$error_info_injector@Vbad_alloc@std@@@exception_detail@boost@@@exception_detail@boost@@EBEPBVclone_base@23@XZ 100155a0 f i CHookManager.obj
 0001:00014630       ?rethrow@?$clone_impl@U?$error_info_injector@Vbad_alloc@std@@@exception_detail@boost@@@exception_detail@boost@@EBEXXZ 10015630 f i CHookManager.obj
 0001:00014660       ??0?$clone_impl@U?$error_info_injector@Vbad_alloc@std@@@exception_detail@boost@@@exception_detail@boost@@AAE@ABV012@Uclone_tag@012@@Z 10015660 f i CHookManager.obj
 0001:00014770       ??$enable_error_info@Vbad_alloc@std@@@boost@@YA?AU?$error_info_injector@Vbad_alloc@std@@@exception_detail@0@ABVbad_alloc@std@@@Z 10015770 f i CHookManager.obj
 0001:000147c0       ??$enable_current_exception@U?$error_info_injector@Vbad_alloc@std@@@exception_detail@boost@@@boost@@YA?AV?$clone_impl@U?$error_info_injector@Vbad_alloc@std@@@exception_detail@boost@@@exception_detail@0@ABU?$error_info_injector@Vbad_alloc@std@@@20@@Z 100157c0 f i CHookManager.obj
 0001:000147e0       ??$_Destroy_range@U?$_Wrap_alloc@V?$allocator@V?$shared_ptr@Ushared_state_base@detail@boost@@@boost@@@std@@@std@@@std@@YAXPAV?$shared_ptr@Ushared_state_base@detail@boost@@@boost@@0AAU?$_Wrap_alloc@V?$allocator@V?$shared_ptr@Ushared_state_base@detail@boost@@@boost@@@std@@@0@U_Nonscalar_ptr_iterator_tag@0@@Z 100157e0 f i CHookManager.obj
 0001:00014830       ??0?$clone_impl@U?$error_info_injector@Vbad_alloc@std@@@exception_detail@boost@@@exception_detail@boost@@QAE@ABU?$error_info_injector@Vbad_alloc@std@@@12@@Z 10015830 f i CHookManager.obj
 0001:00014940       ??$_Uninit_move@PAU?$pair@PAVcondition_variable@boost@@PAVmutex@2@@std@@PAU12@V?$allocator@U?$pair@PAVcondition_variable@boost@@PAVmutex@2@@std@@@2@U12@@std@@YAPAU?$pair@PAVcondition_variable@boost@@PAVmutex@2@@0@PAU10@00AAU?$_Wrap_alloc@V?$allocator@U?$pair@PAVcondition_variable@boost@@PAVmutex@2@@std@@@std@@@0@0U_Nonscalar_ptr_iterator_tag@0@@Z 10015940 f i CHookManager.obj
 0001:00014976       ??_E?$error_info_injector@Vbad_alloc@std@@@exception_detail@boost@@WM@AEPAXI@Z 10015976 f i CHookManager.obj
 0001:0001497e       ?clone@?$clone_impl@U?$error_info_injector@Vbad_alloc@std@@@exception_detail@boost@@@exception_detail@boost@@$0PPPPPPPM@A@BEPBVclone_base@23@XZ 1001597e f i CHookManager.obj
 0001:00014986       ??_E?$clone_impl@U?$error_info_injector@Vbad_alloc@std@@@exception_detail@boost@@@exception_detail@boost@@$4PPPPPPPM@CI@AEPAXI@Z 10015986 f i CHookManager.obj
 0001:00014991       ??_E?$clone_impl@U?$error_info_injector@Vbad_alloc@std@@@exception_detail@boost@@@exception_detail@boost@@WM@AEPAXI@Z 10015991 f i CHookManager.obj
 0001:00014999       ?rethrow@?$clone_impl@U?$error_info_injector@Vbad_alloc@std@@@exception_detail@boost@@@exception_detail@boost@@$0PPPPPPPM@A@BEXXZ 10015999 f i CHookManager.obj
 0001:000149b0       ?CheckForUpdate@CClientUpdater@@SAXPAUHINSTANCE__@@@Z 100159b0 f   CClientUpdater.obj
 0001:00014be0       ?UpdateClient@CClientUpdater@@CAXV?$basic_string@DU?$char_traits@D@std@@V?$allocator@D@2@@std@@PAUHINSTANCE__@@@Z 10015be0 f   CClientUpdater.obj
 0001:00014e00       ?Scan@CDirectoryScanner@@QAEXV?$basic_string@_WU?$char_traits@_W@std@@V?$allocator@_W@2@@std@@@Z 10015e00 f   CDirectoryScanner.obj
 0001:00014ef0       ?MD5_Specific_File@CDirectoryScanner@@QAE?AV?$basic_string@DU?$char_traits@D@std@@V?$allocator@D@2@@std@@V?$basic_string@_WU?$char_traits@_W@std@@V?$allocator@_W@2@@3@@Z 10015ef0 f   CDirectoryScanner.obj
 0001:000150b0       ?img_scan@CDirectoryScanner@@AAEXV?$basic_string@_WU?$char_traits@_W@std@@V?$allocator@_W@2@@std@@@Z 100160b0 f   CDirectoryScanner.obj
 0001:00015a50       ??A?$map@V?$basic_string@DU?$char_traits@D@std@@V?$allocator@D@2@@std@@V12@U?$less@V?$basic_string@DU?$char_traits@D@std@@V?$allocator@D@2@@std@@@2@V?$allocator@U?$pair@$$CBV?$basic_string@DU?$char_traits@D@std@@V?$allocator@D@2@@std@@V12@@std@@@2@@std@@QAEAAV?$basic_string@DU?$char_traits@D@std@@V?$allocator@D@2@@1@$$QAV21@@Z 10016a50 f i CDirectoryScanner.obj
 0001:00015b00       ?append@?$basic_string@_WU?$char_traits@_W@std@@V?$allocator@_W@2@@std@@QAEAAV12@PB_WI@Z 10016b00 f i CDirectoryScanner.obj
 0001:00015be0       ?append@?$basic_string@_WU?$char_traits@_W@std@@V?$allocator@_W@2@@std@@QAEAAV12@ABV12@II@Z 10016be0 f i CDirectoryScanner.obj
 0001:00015cb0       ?_Lbound@?$_Tree@V?$_Tmap_traits@V?$basic_string@DU?$char_traits@D@std@@V?$allocator@D@2@@std@@V12@U?$less@V?$basic_string@DU?$char_traits@D@std@@V?$allocator@D@2@@std@@@2@V?$allocator@U?$pair@$$CBV?$basic_string@DU?$char_traits@D@std@@V?$allocator@D@2@@std@@V12@@std@@@2@$0A@@std@@@std@@IAEPAU?$_Tree_node@U?$pair@$$CBV?$basic_string@DU?$char_traits@D@std@@V?$allocator@D@2@@std@@V12@@std@@PAX@2@ABV?$basic_string@DU?$char_traits@D@std@@V?$allocator@D@2@@2@@Z 10016cb0 f i CDirectoryScanner.obj
 0001:00015d90       ??$replace_first@V?$basic_string@_WU?$char_traits@_W@std@@V?$allocator@_W@2@@std@@$$BY0BA@$$CBDV12@@algorithm@boost@@YAXAAV?$basic_string@_WU?$char_traits@_W@std@@V?$allocator@_W@2@@std@@AAY0BA@$$CBDABV23@@Z 10016d90 f i CDirectoryScanner.obj
 0001:00015e50       ??$_Buynode@ABUpiecewise_construct_t@std@@V?$tuple@$$QAV?$basic_string@DU?$char_traits@D@std@@V?$allocator@D@2@@std@@@2@V?$tuple@$$$V@2@@?$_Tree_buy@U?$pair@$$CBV?$basic_string@DU?$char_traits@D@std@@V?$allocator@D@2@@std@@V12@@std@@V?$allocator@U?$pair@$$CBV?$basic_string@DU?$char_traits@D@std@@V?$allocator@D@2@@std@@V12@@std@@@2@@std@@QAEPAU?$_Tree_node@U?$pair@$$CBV?$basic_string@DU?$char_traits@D@std@@V?$allocator@D@2@@std@@V12@@std@@PAX@1@ABUpiecewise_construct_t@1@$$QAV?$tuple@$$QAV?$basic_string@DU?$char_traits@D@std@@V?$allocator@D@2@@std@@@1@$$QAV?$tuple@$$$V@1@@Z 10016e50 f i CDirectoryScanner.obj
 0001:00015ea0       ??$_Insert_hint@AAU?$pair@$$CBV?$basic_string@DU?$char_traits@D@std@@V?$allocator@D@2@@std@@V12@@std@@PAU?$_Tree_node@U?$pair@$$CBV?$basic_string@DU?$char_traits@D@std@@V?$allocator@D@2@@std@@V12@@std@@PAX@2@@?$_Tree@V?$_Tmap_traits@V?$basic_string@DU?$char_traits@D@std@@V?$allocator@D@2@@std@@V12@U?$less@V?$basic_string@DU?$char_traits@D@std@@V?$allocator@D@2@@std@@@2@V?$allocator@U?$pair@$$CBV?$basic_string@DU?$char_traits@D@std@@V?$allocator@D@2@@std@@V12@@std@@@2@$0A@@std@@@std@@IAE?AV?$_Tree_iterator@V?$_Tree_val@U?$_Tree_simple_types@U?$pair@$$CBV?$basic_string@DU?$char_traits@D@std@@V?$allocator@D@2@@std@@V12@@std@@@std@@@std@@@1@V?$_Tree_const_iterator@V?$_Tree_val@U?$_Tree_simple_types@U?$pair@$$CBV?$basic_string@DU?$char_traits@D@std@@V?$allocator@D@2@@std@@V12@@std@@@std@@@std@@@1@AAU?$pair@$$CBV?$basic_string@DU?$char_traits@D@std@@V?$allocator@D@2@@std@@V12@@1@PAU?$_Tree_node@U?$pair@$$CBV?$basic_string@DU?$char_traits@D@std@@V?$allocator@D@2@@std@@V12@@std@@PAX@1@@Z 10016ea0 f i CDirectoryScanner.obj
 0001:00016070       ??$?RV?$_String_iterator@V?$_String_val@U?$_Simple_types@_W@std@@@std@@@std@@@?$first_finderF@PBDUis_equal@algorithm@boost@@@detail@algorithm@boost@@QBE?AV?$iterator_range@V?$_String_iterator@V?$_String_val@U?$_Simple_types@_W@std@@@std@@@std@@@3@V?$_String_iterator@V?$_String_val@U?$_Simple_types@_W@std@@@std@@@std@@0@Z 10017070 f i CDirectoryScanner.obj
 0001:000160f0       ?replace@?$basic_string@_WU?$char_traits@_W@std@@V?$allocator@_W@2@@std@@QAEAAV12@V?$_String_const_iterator@V?$_String_val@U?$_Simple_types@_W@std@@@std@@@2@000@Z 100170f0 f i CDirectoryScanner.obj
 0001:00016190       ??$?0V?$tuple@$$QAV?$basic_string@DU?$char_traits@D@std@@V?$allocator@D@2@@std@@@std@@V?$tuple@$$$V@1@$0A@$S@?$pair@$$CBV?$basic_string@DU?$char_traits@D@std@@V?$allocator@D@2@@std@@V12@@std@@QAE@AAV?$tuple@$$QAV?$basic_string@DU?$char_traits@D@std@@V?$allocator@D@2@@std@@@1@AAV?$tuple@$$$V@1@U?$_Arg_idx@$0A@@1@U?$_Arg_idx@$S@1@@Z 10017190 f i CDirectoryScanner.obj
 0001:00016210       ?HookD3DFunctions@CDirectX@@SAXXZ 10017210 f   CDirectX.obj
 0001:00016360       ?DirectXCreationHookUS@CDirectX@@CAXXZ 10017360 f   CDirectX.obj
 0001:00016370       ?DirectXCreationHookEU@CDirectX@@CAXXZ 10017370 f   CDirectX.obj
 0001:00016380       ?DirectXCreationProxy@CDirectX@@CAXXZ 10017380 f   CDirectX.obj
 0001:00016410       ??0CInjectedLibraries@@QAE@XZ 10017410 f   CInjectedLibraries.obj
 0001:00016480       ?Scan@CInjectedLibraries@@UAEXXZ 10017480 f   CInjectedLibraries.obj
 0001:00016630       ?IsWindowsVersionOrGreater@@YA_NGGG@Z 10017630 f i CLoader.obj
 0001:00016700       ?Initialize@CLoader@@SAXPAUHINSTANCE__@@@Z 10017700 f   CLoader.obj
 0001:00016940       ??_GMiniDmpSender@@UAEPAXI@Z 10017940 f i CLoader.obj
 0001:00016940       ??_EMiniDmpSender@@UAEPAXI@Z 10017940 f i * CIL library *:* CIL module *
 0001:00016970       ?GetProcessFileName@CLoader@@SA?AV?$basic_string@_WU?$char_traits@_W@std@@V?$allocator@_W@2@@std@@K@Z 10017970 f   CLoader.obj
 0001:00016a90       ?TerminateOtherProcesses@CLoader@@SAXXZ 10017a90 f   CLoader.obj
 0001:00016be0       ?CheckElevation@CLoader@@CAXXZ 10017be0 f   CLoader.obj
 0001:00016c20       ?ProtectProcess@CLoader@@CAKXZ 10017c20 f   CLoader.obj
 0001:000170e0       ?RunElevated@CLoader@@SAXXZ 100180e0 f   CLoader.obj
 0001:00017140       ?IsProcessElevated@CLoader@@SAHXZ 10018140 f   CLoader.obj
 0001:00017200       ??$swprintf_s@$0DC@@@YAHAAY0DC@_WPB_WZZ 10018200 f i CLoader.obj
 0001:00017220       ?compare@?$basic_string@_WU?$char_traits@_W@std@@V?$allocator@_W@2@@std@@QBEHIIPB_WI@Z 10018220 f i CLoader.obj
 0001:000172b0       ?assign@?$basic_string@DU?$char_traits@D@std@@V?$allocator@D@2@@std@@QAEAAV12@$$QAV12@@Z 100182b0 f i CLog.obj
 0001:00017330       ?do_put@?$num_put@DV?$ostreambuf_iterator@DU?$char_traits@D@std@@@std@@@std@@MBE?AV?$ostreambuf_iterator@DU?$char_traits@D@std@@@2@V32@AAVios_base@2@D_N@Z 10018330 f i CLog.obj
 0001:00017520       ?do_put@?$num_put@DV?$ostreambuf_iterator@DU?$char_traits@D@std@@@std@@@std@@MBE?AV?$ostreambuf_iterator@DU?$char_traits@D@std@@@2@V32@AAVios_base@2@DJ@Z 10018520 f i CLog.obj
 0001:000175a0       ?do_put@?$num_put@DV?$ostreambuf_iterator@DU?$char_traits@D@std@@@std@@@std@@MBE?AV?$ostreambuf_iterator@DU?$char_traits@D@std@@@2@V32@AAVios_base@2@DK@Z 100185a0 f i CLog.obj
 0001:00017620       ?do_put@?$num_put@DV?$ostreambuf_iterator@DU?$char_traits@D@std@@@std@@@std@@MBE?AV?$ostreambuf_iterator@DU?$char_traits@D@std@@@2@V32@AAVios_base@2@D_J@Z 10018620 f i CLog.obj
 0001:000176a0       ?do_put@?$num_put@DV?$ostreambuf_iterator@DU?$char_traits@D@std@@@std@@@std@@MBE?AV?$ostreambuf_iterator@DU?$char_traits@D@std@@@2@V32@AAVios_base@2@D_K@Z 100186a0 f i CLog.obj
 0001:00017720       ?do_put@?$num_put@DV?$ostreambuf_iterator@DU?$char_traits@D@std@@@std@@@std@@MBE?AV?$ostreambuf_iterator@DU?$char_traits@D@std@@@2@V32@AAVios_base@2@DN@Z 10018720 f i CLog.obj
 0001:00017960       ?do_put@?$num_put@DV?$ostreambuf_iterator@DU?$char_traits@D@std@@@std@@@std@@MBE?AV?$ostreambuf_iterator@DU?$char_traits@D@std@@@2@V32@AAVios_base@2@DO@Z 10018960 f i CLog.obj
 0001:00017b10       ?do_put@?$num_put@DV?$ostreambuf_iterator@DU?$char_traits@D@std@@@std@@@std@@MBE?AV?$ostreambuf_iterator@DU?$char_traits@D@std@@@2@V32@AAVios_base@2@DPBX@Z 10018b10 f i CLog.obj
 0001:00017b80       ?falsename@?$numpunct@D@std@@QBE?AV?$basic_string@DU?$char_traits@D@std@@V?$allocator@D@2@@2@XZ 10018b80 f i CLog.obj
 0001:00017ba0       ?truename@?$numpunct@D@std@@QBE?AV?$basic_string@DU?$char_traits@D@std@@V?$allocator@D@2@@2@XZ 10018ba0 f i CLog.obj
 0001:00017bc0       ?do_decimal_point@?$numpunct@D@std@@MBEDXZ 10018bc0 f i CLog.obj
 0001:00017bc0       ?do_decimal_point@?$_Mpunct@D@std@@MBEDXZ 10018bc0 f i libcpmt:xlocale.obj
 0001:00017bd0       ?do_thousands_sep@?$numpunct@D@std@@MBEDXZ 10018bd0 f i CLog.obj
 0001:00017bd0       ?do_thousands_sep@?$_Mpunct@D@std@@MBEDXZ 10018bd0 f i libcpmt:xlocale.obj
 0001:00017be0       ?do_grouping@?$numpunct@D@std@@MBE?AV?$basic_string@DU?$char_traits@D@std@@V?$allocator@D@2@@2@XZ 10018be0 f i CLog.obj
 0001:00017c40       ?do_falsename@?$numpunct@D@std@@MBE?AV?$basic_string@DU?$char_traits@D@std@@V?$allocator@D@2@@2@XZ 10018c40 f i CLog.obj
 0001:00017ca0       ?do_truename@?$numpunct@D@std@@MBE?AV?$basic_string@DU?$char_traits@D@std@@V?$allocator@D@2@@2@XZ 10018ca0 f i CLog.obj
 0001:00017d00       ??_G?$numpunct@D@std@@MAEPAXI@Z 10018d00 f i CLog.obj
 0001:00017d00       ??_E?$numpunct@D@std@@MAEPAXI@Z 10018d00 f i * CIL library *:* CIL module *
 0001:00017d50       ?_Ffmt@?$num_put@DV?$ostreambuf_iterator@DU?$char_traits@D@std@@@std@@@std@@ABAPADPADDH@Z 10018d50 f i CLog.obj
 0001:00017e10       ?_Fput@?$num_put@DV?$ostreambuf_iterator@DU?$char_traits@D@std@@@std@@@std@@ABA?AV?$ostreambuf_iterator@DU?$char_traits@D@std@@@2@V32@AAVios_base@2@DPBDIIII@Z 10018e10 f i CLog.obj
 0001:00018290       ?_Ifmt@?$num_put@DV?$ostreambuf_iterator@DU?$char_traits@D@std@@@std@@@std@@ABAPADPADPBDH@Z 10019290 f i CLog.obj
 0001:00018320       ?_Iput@?$num_put@DV?$ostreambuf_iterator@DU?$char_traits@D@std@@@std@@@std@@ABA?AV?$ostreambuf_iterator@DU?$char_traits@D@std@@@2@V32@AAVios_base@2@DPADI@Z 10019320 f i CLog.obj
 0001:000186c0       ?_Put@?$num_put@DV?$ostreambuf_iterator@DU?$char_traits@D@std@@@std@@@std@@ABA?AV?$ostreambuf_iterator@DU?$char_traits@D@std@@@2@V32@PBDI@Z 100196c0 f i CLog.obj
 0001:00018740       ?_Rep@?$num_put@DV?$ostreambuf_iterator@DU?$char_traits@D@std@@@std@@@std@@ABA?AV?$ostreambuf_iterator@DU?$char_traits@D@std@@@2@V32@DI@Z 10019740 f i CLog.obj
 0001:000187c0       ?grouping@?$numpunct@D@std@@QBE?AV?$basic_string@DU?$char_traits@D@std@@V?$allocator@D@2@@2@XZ 100197c0 f i CLog.obj
 0001:000187e0       ?_Tidy@?$numpunct@G@std@@AAEXXZ 100197e0 f i libcpmt:wlocale.obj
 0001:000187e0       ?_Tidy@?$numpunct@_W@std@@AAEXXZ 100197e0 f i libcpmt:wlocale.obj
 0001:000187e0       ?_Tidy@?$numpunct@D@std@@AAEXXZ 100197e0 f i CLog.obj
 0001:00018800       ??4?$ostreambuf_iterator@DU?$char_traits@D@std@@@std@@QAEAAV01@D@Z 10019800 f i CLog.obj
 0001:00018850       ??$use_facet@V?$num_put@DV?$ostreambuf_iterator@DU?$char_traits@D@std@@@std@@@std@@@std@@YAABV?$num_put@DV?$ostreambuf_iterator@DU?$char_traits@D@std@@@std@@@0@ABVlocale@0@@Z 10019850 f i CLog.obj
 0001:00018980       ??$use_facet@V?$numpunct@D@std@@@std@@YAABV?$numpunct@D@0@ABVlocale@0@@Z 10019980 f i CLog.obj
 0001:00018ab0       ?_Getcat@?$num_put@DV?$ostreambuf_iterator@DU?$char_traits@D@std@@@std@@@std@@SAIPAPBVfacet@locale@2@PBV42@@Z 10019ab0 f i CLog.obj
 0001:00018b60       ?_Getcat@?$numpunct@D@std@@SAIPAPBVfacet@locale@2@PBV42@@Z 10019b60 f i CLog.obj
 0001:00018c40       ?_Init@?$numpunct@D@std@@IAEXABV_Locinfo@2@_N@Z 10019c40 f i CLog.obj
 0001:00018da0       ??$_Maklocstr@D@std@@YAPADPBDPADABU_Cvtvec@@@Z 10019da0 f i CLog.obj
 0001:00018de0       ?Cpy@CMem@@SAXPAXPBXH@Z    10019de0 f   CMem.obj
 0001:00018e50       ?HOOK_LoadLibrary@CModuleSecurity@@CGPAUHINSTANCE__@@PB_W@Z 10019e50 f   CModuleSecurity.obj
 0001:00018ef0       ?AddAllowedModule@CModuleSecurity@@SAXPB_W@Z 10019ef0 f   CModuleSecurity.obj
 0001:00018f90       ?AddAllowedModules@CModuleSecurity@@SAXXZ 10019f90 f   CModuleSecurity.obj
 0001:000190b0       ?push_back@?$vector@V?$basic_string@_WU?$char_traits@_W@std@@V?$allocator@_W@2@@std@@V?$allocator@V?$basic_string@_WU?$char_traits@_W@std@@V?$allocator@_W@2@@std@@@2@@std@@QAEX$$QAV?$basic_string@_WU?$char_traits@_W@std@@V?$allocator@_W@2@@2@@Z 1001a0b0 f i CModuleSecurity.obj
 0001:00019150       ??4?$basic_string@DU?$char_traits@D@std@@V?$allocator@D@2@@std@@QAEAAV01@$$QAV01@@Z 1001a150 f i CParseCommandLine.obj
 0001:00019190       ?replace@?$basic_string@DU?$char_traits@D@std@@V?$allocator@D@2@@std@@QAEAAV12@IIPBDI@Z 1001a190 f i CParseCommandLine.obj
 0001:00019340       ?replace@?$basic_string@DU?$char_traits@D@std@@V?$allocator@D@2@@std@@QAEAAV12@IIABV12@II@Z 1001a340 f i CParseCommandLine.obj
 0001:00019690       ??0CProcessList@@QAE@XZ    1001a690 f   CProcessList.obj
 0001:00019760       ?Scan@CProcessList@@UAEXXZ 1001a760 f   CProcessList.obj
 0001:00019a10       ?QueryInterface@CD3D9Proxy@@UAGJABU_GUID@@PAPAX@Z 1001aa10 f   CD3D9Proxy.obj
 0001:00019a10       ?QueryInterface@CD3D9DeviceProxy@@UAGJABU_GUID@@PAPAX@Z 1001aa10 f   CD3D9DeviceProxy.obj
 0001:00019a30       ?AddRef@CD3D9DeviceProxy@@UAGKXZ 1001aa30 f   CD3D9DeviceProxy.obj
 0001:00019a30       ?AddRef@CD3D9Proxy@@UAGKXZ 1001aa30 f   CD3D9Proxy.obj
 0001:00019a50       ?Release@CD3D9DeviceProxy@@UAGKXZ 1001aa50 f   CD3D9DeviceProxy.obj
 0001:00019a70       ?RegisterSoftwareDevice@CD3D9Proxy@@UAGJPAX@Z 1001aa70 f   CD3D9Proxy.obj
 0001:00019a70       ?TestCooperativeLevel@CD3D9DeviceProxy@@UAGJXZ 1001aa70 f   CD3D9DeviceProxy.obj
 0001:00019a90       ?GetAdapterIdentifier@CD3D9Proxy@@UAGJIKPAU_D3DADAPTER_IDENTIFIER9@@@Z 1001aa90 f   CD3D9Proxy.obj
 0001:00019a90       ?EvictManagedResources@CD3D9DeviceProxy@@UAGJXZ 1001aa90 f   CD3D9DeviceProxy.obj
 0001:00019ab0       ?GetDirect3D@CD3D9DeviceProxy@@UAGJPAPAUIDirect3D9@@@Z 1001aab0 f   CD3D9DeviceProxy.obj
 0001:00019ab0       ?GetAdapterModeCount@CD3D9Proxy@@UAGIIW4_D3DFORMAT@@@Z 1001aab0 f   CD3D9Proxy.obj
 0001:00019ad0       ?GetDeviceCaps@CD3D9DeviceProxy@@UAGJPAU_D3DCAPS9@@@Z 1001aad0 f   CD3D9DeviceProxy.obj
 0001:00019ad0       ?EnumAdapterModes@CD3D9Proxy@@UAGJIW4_D3DFORMAT@@IPAU_D3DDISPLAYMODE@@@Z 1001aad0 f   CD3D9Proxy.obj
 0001:00019af0       ?GetAdapterDisplayMode@CD3D9Proxy@@UAGJIPAU_D3DDISPLAYMODE@@@Z 1001aaf0 f   CD3D9Proxy.obj
 0001:00019af0       ?GetDisplayMode@CD3D9DeviceProxy@@UAGJIPAU_D3DDISPLAYMODE@@@Z 1001aaf0 f   CD3D9DeviceProxy.obj
 0001:00019b10       ?CheckDeviceType@CD3D9Proxy@@UAGJIW4_D3DDEVTYPE@@W4_D3DFORMAT@@1H@Z 1001ab10 f   CD3D9Proxy.obj
 0001:00019b10       ?GetCreationParameters@CD3D9DeviceProxy@@UAGJPAU_D3DDEVICE_CREATION_PARAMETERS@@@Z 1001ab10 f   CD3D9DeviceProxy.obj
 0001:00019b30       ?SetCursorProperties@CD3D9DeviceProxy@@UAGJIIPAUIDirect3DSurface9@@@Z 1001ab30 f   CD3D9DeviceProxy.obj
 0001:00019b30       ?CheckDeviceFormat@CD3D9Proxy@@UAGJIW4_D3DDEVTYPE@@W4_D3DFORMAT@@KW4_D3DRESOURCETYPE@@1@Z 1001ab30 f   CD3D9Proxy.obj
 0001:00019b50       ?CheckDeviceFormatConversion@CD3D9Proxy@@UAGJIW4_D3DDEVTYPE@@W4_D3DFORMAT@@1@Z 1001ab50 f   CD3D9Proxy.obj
 0001:00019b50       ?CreateAdditionalSwapChain@CD3D9DeviceProxy@@UAGJPAU_D3DPRESENT_PARAMETERS_@@PAPAUIDirect3DSwapChain9@@@Z 1001ab50 f   CD3D9DeviceProxy.obj
 0001:00019b70       ?GetSwapChain@CD3D9DeviceProxy@@UAGJIPAPAUIDirect3DSwapChain9@@@Z 1001ab70 f   CD3D9DeviceProxy.obj
 0001:00019b70       ?GetDeviceCaps@CD3D9Proxy@@UAGJIW4_D3DDEVTYPE@@PAU_D3DCAPS9@@@Z 1001ab70 f   CD3D9Proxy.obj
 0001:00019b90       ?Reset@CD3D9DeviceProxy@@UAGJPAU_D3DPRESENT_PARAMETERS_@@@Z 1001ab90 f   CD3D9DeviceProxy.obj
 0001:00019be0       ?Present@CD3D9DeviceProxy@@UAGJPBUtagRECT@@0PAUHWND__@@PBU_RGNDATA@@@Z 1001abe0 f   CD3D9DeviceProxy.obj
 0001:00019c60       ?GetBackBuffer@CD3D9DeviceProxy@@UAGJIIW4_D3DBACKBUFFER_TYPE@@PAPAUIDirect3DSurface9@@@Z 1001ac60 f   CD3D9DeviceProxy.obj
 0001:00019c80       ?GetRasterStatus@CD3D9DeviceProxy@@UAGJIPAU_D3DRASTER_STATUS@@@Z 1001ac80 f   CD3D9DeviceProxy.obj
 0001:00019ca0       ?SetDialogBoxMode@CD3D9DeviceProxy@@UAGJH@Z 1001aca0 f   CD3D9DeviceProxy.obj
 0001:00019cc0       ?CreateTexture@CD3D9DeviceProxy@@UAGJIIIKW4_D3DFORMAT@@W4_D3DPOOL@@PAPAUIDirect3DTexture9@@PAPAX@Z 1001acc0 f   CD3D9DeviceProxy.obj
 0001:00019ce0       ?CreateVolumeTexture@CD3D9DeviceProxy@@UAGJIIIIKW4_D3DFORMAT@@W4_D3DPOOL@@PAPAUIDirect3DVolumeTexture9@@PAPAX@Z 1001ace0 f   CD3D9DeviceProxy.obj
 0001:00019d00       ?CreateCubeTexture@CD3D9DeviceProxy@@UAGJIIKW4_D3DFORMAT@@W4_D3DPOOL@@PAPAUIDirect3DCubeTexture9@@PAPAX@Z 1001ad00 f   CD3D9DeviceProxy.obj
 0001:00019d20       ?CreateVertexBuffer@CD3D9DeviceProxy@@UAGJIKKW4_D3DPOOL@@PAPAUIDirect3DVertexBuffer9@@PAPAX@Z 1001ad20 f   CD3D9DeviceProxy.obj
 0001:00019d40       ?CreateIndexBuffer@CD3D9DeviceProxy@@UAGJIKW4_D3DFORMAT@@W4_D3DPOOL@@PAPAUIDirect3DIndexBuffer9@@PAPAX@Z 1001ad40 f   CD3D9DeviceProxy.obj
 0001:00019d60       ?CreateRenderTarget@CD3D9DeviceProxy@@UAGJIIW4_D3DFORMAT@@W4_D3DMULTISAMPLE_TYPE@@KHPAPAUIDirect3DSurface9@@PAPAX@Z 1001ad60 f   CD3D9DeviceProxy.obj
 0001:00019d80       ?CreateDepthStencilSurface@CD3D9DeviceProxy@@UAGJIIW4_D3DFORMAT@@W4_D3DMULTISAMPLE_TYPE@@KHPAPAUIDirect3DSurface9@@PAPAX@Z 1001ad80 f   CD3D9DeviceProxy.obj
 0001:00019da0       ?UpdateSurface@CD3D9DeviceProxy@@UAGJPAUIDirect3DSurface9@@PBUtagRECT@@0PBUtagPOINT@@@Z 1001ada0 f   CD3D9DeviceProxy.obj
 0001:00019dc0       ?UpdateTexture@CD3D9DeviceProxy@@UAGJPAUIDirect3DBaseTexture9@@0@Z 1001adc0 f   CD3D9DeviceProxy.obj
 0001:00019de0       ?GetRenderTargetData@CD3D9DeviceProxy@@UAGJPAUIDirect3DSurface9@@0@Z 1001ade0 f   CD3D9DeviceProxy.obj
 0001:00019e00       ?GetFrontBufferData@CD3D9DeviceProxy@@UAGJIPAUIDirect3DSurface9@@@Z 1001ae00 f   CD3D9DeviceProxy.obj
 0001:00019e20       ?StretchRect@CD3D9DeviceProxy@@UAGJPAUIDirect3DSurface9@@PBUtagRECT@@01W4_D3DTEXTUREFILTERTYPE@@@Z 1001ae20 f   CD3D9DeviceProxy.obj
 0001:00019e40       ?ColorFill@CD3D9DeviceProxy@@UAGJPAUIDirect3DSurface9@@PBUtagRECT@@K@Z 1001ae40 f   CD3D9DeviceProxy.obj
 0001:00019e60       ?CreateOffscreenPlainSurface@CD3D9DeviceProxy@@UAGJIIW4_D3DFORMAT@@W4_D3DPOOL@@PAPAUIDirect3DSurface9@@PAPAX@Z 1001ae60 f   CD3D9DeviceProxy.obj
 0001:00019e80       ?SetRenderTarget@CD3D9DeviceProxy@@UAGJKPAUIDirect3DSurface9@@@Z 1001ae80 f   CD3D9DeviceProxy.obj
 0001:00019ea0       ?GetRenderTarget@CD3D9DeviceProxy@@UAGJKPAPAUIDirect3DSurface9@@@Z 1001aea0 f   CD3D9DeviceProxy.obj
 0001:00019ec0       ?SetDepthStencilSurface@CD3D9DeviceProxy@@UAGJPAUIDirect3DSurface9@@@Z 1001aec0 f   CD3D9DeviceProxy.obj
 0001:00019ee0       ?GetDepthStencilSurface@CD3D9DeviceProxy@@UAGJPAPAUIDirect3DSurface9@@@Z 1001aee0 f   CD3D9DeviceProxy.obj
 0001:00019f00       ?BeginScene@CD3D9DeviceProxy@@UAGJXZ 1001af00 f   CD3D9DeviceProxy.obj
 0001:00019f20       ?EndScene@CD3D9DeviceProxy@@UAGJXZ 1001af20 f   CD3D9DeviceProxy.obj
 0001:00019f40       ?Clear@CD3D9DeviceProxy@@UAGJKPBU_D3DRECT@@KKMK@Z 1001af40 f   CD3D9DeviceProxy.obj
 0001:00019f70       ?SetTransform@CD3D9DeviceProxy@@UAGJW4_D3DTRANSFORMSTATETYPE@@PBU_D3DMATRIX@@@Z 1001af70 f   CD3D9DeviceProxy.obj
 0001:00019f90       ?GetTransform@CD3D9DeviceProxy@@UAGJW4_D3DTRANSFORMSTATETYPE@@PAU_D3DMATRIX@@@Z 1001af90 f   CD3D9DeviceProxy.obj
 0001:00019fb0       ?MultiplyTransform@CD3D9DeviceProxy@@UAGJW4_D3DTRANSFORMSTATETYPE@@PBU_D3DMATRIX@@@Z 1001afb0 f   CD3D9DeviceProxy.obj
 0001:00019fd0       ?SetViewport@CD3D9DeviceProxy@@UAGJPBU_D3DVIEWPORT9@@@Z 1001afd0 f   CD3D9DeviceProxy.obj
 0001:00019ff0       ?GetViewport@CD3D9DeviceProxy@@UAGJPAU_D3DVIEWPORT9@@@Z 1001aff0 f   CD3D9DeviceProxy.obj
 0001:0001a010       ?SetMaterial@CD3D9DeviceProxy@@UAGJPBU_D3DMATERIAL9@@@Z 1001b010 f   CD3D9DeviceProxy.obj
 0001:0001a030       ?GetMaterial@CD3D9DeviceProxy@@UAGJPAU_D3DMATERIAL9@@@Z 1001b030 f   CD3D9DeviceProxy.obj
 0001:0001a050       ?SetLight@CD3D9DeviceProxy@@UAGJKPBU_D3DLIGHT9@@@Z 1001b050 f   CD3D9DeviceProxy.obj
 0001:0001a070       ?GetLight@CD3D9DeviceProxy@@UAGJKPAU_D3DLIGHT9@@@Z 1001b070 f   CD3D9DeviceProxy.obj
 0001:0001a090       ?LightEnable@CD3D9DeviceProxy@@UAGJKH@Z 1001b090 f   CD3D9DeviceProxy.obj
 0001:0001a0b0       ?GetLightEnable@CD3D9DeviceProxy@@UAGJKPAH@Z 1001b0b0 f   CD3D9DeviceProxy.obj
 0001:0001a0d0       ?SetClipPlane@CD3D9DeviceProxy@@UAGJKPBM@Z 1001b0d0 f   CD3D9DeviceProxy.obj
 0001:0001a0f0       ?GetClipPlane@CD3D9DeviceProxy@@UAGJKPAM@Z 1001b0f0 f   CD3D9DeviceProxy.obj
 0001:0001a110       ?SetRenderState@CD3D9DeviceProxy@@UAGJW4_D3DRENDERSTATETYPE@@K@Z 1001b110 f   CD3D9DeviceProxy.obj
 0001:0001a130       ?GetRenderState@CD3D9DeviceProxy@@UAGJW4_D3DRENDERSTATETYPE@@PAK@Z 1001b130 f   CD3D9DeviceProxy.obj
 0001:0001a150       ?CreateStateBlock@CD3D9DeviceProxy@@UAGJW4_D3DSTATEBLOCKTYPE@@PAPAUIDirect3DStateBlock9@@@Z 1001b150 f   CD3D9DeviceProxy.obj
 0001:0001a170       ?BeginStateBlock@CD3D9DeviceProxy@@UAGJXZ 1001b170 f   CD3D9DeviceProxy.obj
 0001:0001a190       ?EndStateBlock@CD3D9DeviceProxy@@UAGJPAPAUIDirect3DStateBlock9@@@Z 1001b190 f   CD3D9DeviceProxy.obj
 0001:0001a1b0       ?SetClipStatus@CD3D9DeviceProxy@@UAGJPBU_D3DCLIPSTATUS9@@@Z 1001b1b0 f   CD3D9DeviceProxy.obj
 0001:0001a1d0       ?GetClipStatus@CD3D9DeviceProxy@@UAGJPAU_D3DCLIPSTATUS9@@@Z 1001b1d0 f   CD3D9DeviceProxy.obj
 0001:0001a1f0       ?GetTexture@CD3D9DeviceProxy@@UAGJKPAPAUIDirect3DBaseTexture9@@@Z 1001b1f0 f   CD3D9DeviceProxy.obj
 0001:0001a210       ?SetTexture@CD3D9DeviceProxy@@UAGJKPAUIDirect3DBaseTexture9@@@Z 1001b210 f   CD3D9DeviceProxy.obj
 0001:0001a230       ?GetTextureStageState@CD3D9DeviceProxy@@UAGJKW4_D3DTEXTURESTAGESTATETYPE@@PAK@Z 1001b230 f   CD3D9DeviceProxy.obj
 0001:0001a250       ?SetTextureStageState@CD3D9DeviceProxy@@UAGJKW4_D3DTEXTURESTAGESTATETYPE@@K@Z 1001b250 f   CD3D9DeviceProxy.obj
 0001:0001a270       ?GetSamplerState@CD3D9DeviceProxy@@UAGJKW4_D3DSAMPLERSTATETYPE@@PAK@Z 1001b270 f   CD3D9DeviceProxy.obj
 0001:0001a290       ?SetSamplerState@CD3D9DeviceProxy@@UAGJKW4_D3DSAMPLERSTATETYPE@@K@Z 1001b290 f   CD3D9DeviceProxy.obj
 0001:0001a2b0       ?ValidateDevice@CD3D9DeviceProxy@@UAGJPAK@Z 1001b2b0 f   CD3D9DeviceProxy.obj
 0001:0001a2d0       ?SetPaletteEntries@CD3D9DeviceProxy@@UAGJIPBUtagPALETTEENTRY@@@Z 1001b2d0 f   CD3D9DeviceProxy.obj
 0001:0001a2f0       ?GetPaletteEntries@CD3D9DeviceProxy@@UAGJIPAUtagPALETTEENTRY@@@Z 1001b2f0 f   CD3D9DeviceProxy.obj
 0001:0001a310       ?SetCurrentTexturePalette@CD3D9DeviceProxy@@UAGJI@Z 1001b310 f   CD3D9DeviceProxy.obj
 0001:0001a330       ?GetCurrentTexturePalette@CD3D9DeviceProxy@@UAGJPAI@Z 1001b330 f   CD3D9DeviceProxy.obj
 0001:0001a350       ?SetScissorRect@CD3D9DeviceProxy@@UAGJPBUtagRECT@@@Z 1001b350 f   CD3D9DeviceProxy.obj
 0001:0001a370       ?GetScissorRect@CD3D9DeviceProxy@@UAGJPAUtagRECT@@@Z 1001b370 f   CD3D9DeviceProxy.obj
 0001:0001a390       ?SetSoftwareVertexProcessing@CD3D9DeviceProxy@@UAGJH@Z 1001b390 f   CD3D9DeviceProxy.obj
 0001:0001a3b0       ?SetNPatchMode@CD3D9DeviceProxy@@UAGJM@Z 1001b3b0 f   CD3D9DeviceProxy.obj
 0001:0001a3e0       ?DrawPrimitive@CD3D9DeviceProxy@@UAGJW4_D3DPRIMITIVETYPE@@II@Z 1001b3e0 f   CD3D9DeviceProxy.obj
 0001:0001a400       ?DrawIndexedPrimitive@CD3D9DeviceProxy@@UAGJW4_D3DPRIMITIVETYPE@@HIIII@Z 1001b400 f   CD3D9DeviceProxy.obj
 0001:0001a420       ?DrawPrimitiveUP@CD3D9DeviceProxy@@UAGJW4_D3DPRIMITIVETYPE@@IPBXI@Z 1001b420 f   CD3D9DeviceProxy.obj
 0001:0001a440       ?DrawIndexedPrimitiveUP@CD3D9DeviceProxy@@UAGJW4_D3DPRIMITIVETYPE@@IIIPBXW4_D3DFORMAT@@1I@Z 1001b440 f   CD3D9DeviceProxy.obj
 0001:0001a460       ?ProcessVertices@CD3D9DeviceProxy@@UAGJIIIPAUIDirect3DVertexBuffer9@@PAUIDirect3DVertexDeclaration9@@K@Z 1001b460 f   CD3D9DeviceProxy.obj
 0001:0001a480       ?CreateVertexDeclaration@CD3D9DeviceProxy@@UAGJPBU_D3DVERTEXELEMENT9@@PAPAUIDirect3DVertexDeclaration9@@@Z 1001b480 f   CD3D9DeviceProxy.obj
 0001:0001a4a0       ?SetVertexDeclaration@CD3D9DeviceProxy@@UAGJPAUIDirect3DVertexDeclaration9@@@Z 1001b4a0 f   CD3D9DeviceProxy.obj
 0001:0001a4c0       ?GetVertexDeclaration@CD3D9DeviceProxy@@UAGJPAPAUIDirect3DVertexDeclaration9@@@Z 1001b4c0 f   CD3D9DeviceProxy.obj
 0001:0001a4e0       ?SetFVF@CD3D9DeviceProxy@@UAGJK@Z 1001b4e0 f   CD3D9DeviceProxy.obj
 0001:0001a500       ?GetFVF@CD3D9DeviceProxy@@UAGJPAK@Z 1001b500 f   CD3D9DeviceProxy.obj
 0001:0001a520       ?CreateVertexShader@CD3D9DeviceProxy@@UAGJPBKPAPAUIDirect3DVertexShader9@@@Z 1001b520 f   CD3D9DeviceProxy.obj
 0001:0001a540       ?SetVertexShader@CD3D9DeviceProxy@@UAGJPAUIDirect3DVertexShader9@@@Z 1001b540 f   CD3D9DeviceProxy.obj
 0001:0001a560       ?GetVertexShader@CD3D9DeviceProxy@@UAGJPAPAUIDirect3DVertexShader9@@@Z 1001b560 f   CD3D9DeviceProxy.obj
 0001:0001a580       ?SetVertexShaderConstantF@CD3D9DeviceProxy@@UAGJIPBMI@Z 1001b580 f   CD3D9DeviceProxy.obj
 0001:0001a5a0       ?GetVertexShaderConstantF@CD3D9DeviceProxy@@UAGJIPAMI@Z 1001b5a0 f   CD3D9DeviceProxy.obj
 0001:0001a5c0       ?SetVertexShaderConstantI@CD3D9DeviceProxy@@UAGJIPBHI@Z 1001b5c0 f   CD3D9DeviceProxy.obj
 0001:0001a5e0       ?GetVertexShaderConstantI@CD3D9DeviceProxy@@UAGJIPAHI@Z 1001b5e0 f   CD3D9DeviceProxy.obj
 0001:0001a600       ?SetVertexShaderConstantB@CD3D9DeviceProxy@@UAGJIPBHI@Z 1001b600 f   CD3D9DeviceProxy.obj
 0001:0001a620       ?GetVertexShaderConstantB@CD3D9DeviceProxy@@UAGJIPAHI@Z 1001b620 f   CD3D9DeviceProxy.obj
 0001:0001a640       ?SetStreamSource@CD3D9DeviceProxy@@UAGJIPAUIDirect3DVertexBuffer9@@II@Z 1001b640 f   CD3D9DeviceProxy.obj
 0001:0001a660       ?GetStreamSource@CD3D9DeviceProxy@@UAGJIPAPAUIDirect3DVertexBuffer9@@PAI1@Z 1001b660 f   CD3D9DeviceProxy.obj
 0001:0001a680       ?SetStreamSourceFreq@CD3D9DeviceProxy@@UAGJII@Z 1001b680 f   CD3D9DeviceProxy.obj
 0001:0001a6a0       ?GetStreamSourceFreq@CD3D9DeviceProxy@@UAGJIPAI@Z 1001b6a0 f   CD3D9DeviceProxy.obj
 0001:0001a6c0       ?SetIndices@CD3D9DeviceProxy@@UAGJPAUIDirect3DIndexBuffer9@@@Z 1001b6c0 f   CD3D9DeviceProxy.obj
 0001:0001a6e0       ?GetIndices@CD3D9DeviceProxy@@UAGJPAPAUIDirect3DIndexBuffer9@@@Z 1001b6e0 f   CD3D9DeviceProxy.obj
 0001:0001a700       ?CreatePixelShader@CD3D9DeviceProxy@@UAGJPBKPAPAUIDirect3DPixelShader9@@@Z 1001b700 f   CD3D9DeviceProxy.obj
 0001:0001a720       ?SetPixelShader@CD3D9DeviceProxy@@UAGJPAUIDirect3DPixelShader9@@@Z 1001b720 f   CD3D9DeviceProxy.obj
 0001:0001a740       ?GetPixelShader@CD3D9DeviceProxy@@UAGJPAPAUIDirect3DPixelShader9@@@Z 1001b740 f   CD3D9DeviceProxy.obj
 0001:0001a760       ?SetPixelShaderConstantF@CD3D9DeviceProxy@@UAGJIPBMI@Z 1001b760 f   CD3D9DeviceProxy.obj
 0001:0001a780       ?GetPixelShaderConstantF@CD3D9DeviceProxy@@UAGJIPAMI@Z 1001b780 f   CD3D9DeviceProxy.obj
 0001:0001a7a0       ?SetPixelShaderConstantI@CD3D9DeviceProxy@@UAGJIPBHI@Z 1001b7a0 f   CD3D9DeviceProxy.obj
 0001:0001a7c0       ?GetPixelShaderConstantI@CD3D9DeviceProxy@@UAGJIPAHI@Z 1001b7c0 f   CD3D9DeviceProxy.obj
 0001:0001a7e0       ?SetPixelShaderConstantB@CD3D9DeviceProxy@@UAGJIPBHI@Z 1001b7e0 f   CD3D9DeviceProxy.obj
 0001:0001a800       ?GetPixelShaderConstantB@CD3D9DeviceProxy@@UAGJIPAHI@Z 1001b800 f   CD3D9DeviceProxy.obj
 0001:0001a820       ?DrawRectPatch@CD3D9DeviceProxy@@UAGJIPBMPBU_D3DRECTPATCH_INFO@@@Z 1001b820 f   CD3D9DeviceProxy.obj
 0001:0001a840       ?DrawTriPatch@CD3D9DeviceProxy@@UAGJIPBMPBU_D3DTRIPATCH_INFO@@@Z 1001b840 f   CD3D9DeviceProxy.obj
 0001:0001a860       ?DeletePatch@CD3D9DeviceProxy@@UAGJI@Z 1001b860 f   CD3D9DeviceProxy.obj
 0001:0001a880       ?CreateQuery@CD3D9DeviceProxy@@UAGJW4_D3DQUERYTYPE@@PAPAUIDirect3DQuery9@@@Z 1001b880 f   CD3D9DeviceProxy.obj
 0001:0001a8a0       ?GetAdapterCount@CD3D9Proxy@@UAGIXZ 1001b8a0 f   CD3D9Proxy.obj
 0001:0001a8a0       ?GetAvailableTextureMem@CD3D9DeviceProxy@@UAGIXZ 1001b8a0 f   CD3D9DeviceProxy.obj
 0001:0001a8c0       ?SetCursorPosition@CD3D9DeviceProxy@@UAGXHHK@Z 1001b8c0 f   CD3D9DeviceProxy.obj
 0001:0001a8c0       ?CheckDeviceMultiSampleType@CD3D9Proxy@@UAGJIW4_D3DDEVTYPE@@W4_D3DFORMAT@@HW4_D3DMULTISAMPLE_TYPE@@PAK@Z 1001b8c0 f   CD3D9Proxy.obj
 0001:0001a8e0       ?CheckDepthStencilMatch@CD3D9Proxy@@UAGJIW4_D3DDEVTYPE@@W4_D3DFORMAT@@11@Z 1001b8e0 f   CD3D9Proxy.obj
 0001:0001a8e0       ?ShowCursor@CD3D9DeviceProxy@@UAGHH@Z 1001b8e0 f   CD3D9DeviceProxy.obj
 0001:0001a900       ?GetAdapterMonitor@CD3D9Proxy@@UAGPAUHMONITOR__@@I@Z 1001b900 f   CD3D9Proxy.obj
 0001:0001a900       ?GetNumberOfSwapChains@CD3D9DeviceProxy@@UAGIXZ 1001b900 f   CD3D9DeviceProxy.obj
 0001:0001a920       ?SetGammaRamp@CD3D9DeviceProxy@@UAGXIKPBU_D3DGAMMARAMP@@@Z 1001b920 f   CD3D9DeviceProxy.obj
 0001:0001a940       ?GetGammaRamp@CD3D9DeviceProxy@@UAGXIPAU_D3DGAMMARAMP@@@Z 1001b940 f   CD3D9DeviceProxy.obj
 0001:0001a960       ?GetSoftwareVertexProcessing@CD3D9DeviceProxy@@UAGHXZ 1001b960 f   CD3D9DeviceProxy.obj
 0001:0001a980       ?GetNPatchMode@CD3D9DeviceProxy@@UAGMXZ 1001b980 f   CD3D9DeviceProxy.obj
 0001:0001a9a0       ?Release@CD3D9Proxy@@UAGKXZ 1001b9a0 f   CD3D9Proxy.obj
 0001:0001a9d0       ?CreateDevice@CD3D9Proxy@@UAGJIW4_D3DDEVTYPE@@PAUHWND__@@KPAU_D3DPRESENT_PARAMETERS_@@PAPAUIDirect3DDevice9@@@Z 1001b9d0 f   CD3D9Proxy.obj
 0001:0001aa70       ?Process@CMessageProxy@@CGJPAUHWND__@@IIJ@Z 1001ba70 f   CMessageProxy.obj
 0001:0001adf0       _DllMain@12                1001bdf0 f   dllmain.obj
 0001:0001ae60       ??$?0P6AXPAUHINSTANCE__@@@ZPAU0@@thread@boost@@QAE@P6AXPAUHINSTANCE__@@@Z0PAUdummy@01@@Z 1001be60 f i dllmain.obj
 0001:0001af20       ??$make_thread_info@V?$bind_t@XP6AXPAUHINSTANCE__@@@ZV?$list1@V?$value@PAUHINSTANCE__@@@_bi@boost@@@_bi@boost@@@_bi@boost@@@thread@boost@@SA?AV?$intrusive_ptr@Uthread_data_base@detail@boost@@@1@$$QAV?$bind_t@XP6AXPAUHINSTANCE__@@@ZV?$list1@V?$value@PAUHINSTANCE__@@@_bi@boost@@@_bi@boost@@@_bi@1@@Z 1001bf20 f i dllmain.obj
 0001:0001af50       ?run@?$thread_data@V?$bind_t@XP6AXPAUHINSTANCE__@@@ZV?$list1@V?$value@PAUHINSTANCE__@@@_bi@boost@@@_bi@boost@@@_bi@boost@@@detail@boost@@UAEXXZ 1001bf50 f i dllmain.obj
 0001:0001af60       ??$heap_new@V?$thread_data@V?$bind_t@XP6AXPAUHINSTANCE__@@@ZV?$list1@V?$value@PAUHINSTANCE__@@@_bi@boost@@@_bi@boost@@@_bi@boost@@@detail@boost@@V?$bind_t@XP6AXPAUHINSTANCE__@@@ZV?$list1@V?$value@PAUHINSTANCE__@@@_bi@boost@@@_bi@boost@@@_bi@3@@detail@boost@@YAPAV?$thread_data@V?$bind_t@XP6AXPAUHINSTANCE__@@@ZV?$list1@V?$value@PAUHINSTANCE__@@@_bi@boost@@@_bi@boost@@@_bi@boost@@@01@$$QAV?$bind_t@XP6AXPAUHINSTANCE__@@@ZV?$list1@V?$value@PAUHINSTANCE__@@@_bi@boost@@@_bi@boost@@@_bi@1@@Z 1001bf60 f i dllmain.obj
 0001:0001b030       ?GTASA_CRC32_fromUpCaseString@@YAKPBD@Z 1001c030 f   GTASA_CRC32.obj
 0001:0001b070       ??1IMG@@QAE@XZ             1001c070 f   IMG.obj
 0001:0001b0f0       ?OpenArchive@IMG@@QAE_NPB_W@Z 1001c0f0 f   IMG.obj
 0001:0001b690       ?CloseArchive@IMG@@QAEXXZ  1001c690 f   IMG.obj
 0001:0001b710       ?GetFileIteratorByName@IMG@@QAE?AV?$_List_iterator@V?$_List_val@U?$_List_simple_types@VIMG_Entry@@@std@@@std@@@std@@PB_W@Z 1001c710 f   IMG.obj
 0001:0001b830       ?GetEndOfHeaderDataPastTheListOfFiles@IMG@@AAEKXZ 1001c830 f   IMG.obj
 0001:0001b880       ?GetIPLfilenameAndNum@IMG@@CA_NPB_WPA_WPAK@Z 1001c880 f   IMG.obj
 0001:0001b940       ?GetIteratorsOfAssociatedFiles@IMG@@AAEXPB_WAAV?$vector@V?$_List_iterator@V?$_List_val@U?$_List_simple_types@VIMG_Entry@@@std@@@std@@@std@@V?$allocator@V?$_List_iterator@V?$_List_val@U?$_List_simple_types@VIMG_Entry@@@std@@@std@@@std@@@2@@std@@@Z 1001c940 f   IMG.obj
 0001:0001ba80       ?LoadFilesInCountinousAlignedMemory@IMG@@AAEXAAV?$vector@V?$_List_iterator@V?$_List_val@U?$_List_simple_types@VIMG_Entry@@@std@@@std@@@std@@V?$allocator@V?$_List_iterator@V?$_List_val@U?$_List_simple_types@VIMG_Entry@@@std@@@std@@@std@@@2@@std@@PAPAXPAIPAU_iobuf@@@Z 1001ca80 f   IMG.obj
 0001:0001bbf0       ?MoveFilesLocatedBeforeListOfFilesToSuitablePosition@IMG@@AAEXPAU_iobuf@@@Z 1001cbf0 f   IMG.obj
 0001:0001bdf0       ?GetPatternToCheckIfPositionIsValid@IMG@@AAEXPA_W@Z 1001cdf0 f   IMG.obj
 0001:0001be80       ?ReadEntryOfVersion1And2Header@IMG@@AAEXAAVIMG_Entry@@PAU_iobuf@@@Z 1001ce80 f   IMG.obj
 0001:0001bee0       ?WriteListOfEntriesVersion1And2@IMG@@AAEXPAU_iobuf@@@Z 1001cee0 f   IMG.obj
 0001:0001bf60       ?WriteListOfEntries@IMG@@AAEXPAU_iobuf@@@Z 1001cf60 f   IMG.obj
 0001:0001c440       ?FindFirstEmptySpaceForFile@IMG@@AAE_KIPAV?$vector@V?$_List_iterator@V?$_List_val@U?$_List_simple_types@VIMG_Entry@@@std@@@std@@@std@@V?$allocator@V?$_List_iterator@V?$_List_val@U?$_List_simple_types@VIMG_Entry@@@std@@@std@@@std@@@2@@std@@@Z 1001d440 f   IMG.obj
 0001:0001c780       ??0IMG_Entry@@QAE@PAVIMG@@@Z 1001d780 f   IMG.obj
 0001:0001c7c0       ?UpdateFileNameHash@IMG_Entry@@AAEXXZ 1001d7c0 f   IMG.obj
 0001:0001c8a0       ?ReadEntireFile@IMG_Entry@@QAEIPAX@Z 1001d8a0 f   IMG.obj
 0001:0001c920       ??0?$list@VIMG_Entry@@V?$allocator@VIMG_Entry@@@std@@@std@@QAE@XZ 1001d920 f i IMG.obj
 0001:0001c940       ?push_back@?$list@VIMG_Entry@@V?$allocator@VIMG_Entry@@@std@@@std@@QAEX$$QAVIMG_Entry@@@Z 1001d940 f i IMG.obj
 0001:0001c990       ??1?$list@VIMG_Entry@@V?$allocator@VIMG_Entry@@@std@@@std@@QAE@XZ 1001d990 f i IMG.obj
 0001:0001c9d0       ?push_back@?$vector@V?$_List_iterator@V?$_List_val@U?$_List_simple_types@VIMG_Entry@@@std@@@std@@@std@@V?$allocator@V?$_List_iterator@V?$_List_val@U?$_List_simple_types@VIMG_Entry@@@std@@@std@@@std@@@2@@std@@QAEXABV?$_List_iterator@V?$_List_val@U?$_List_simple_types@VIMG_Entry@@@std@@@std@@@2@@Z 1001d9d0 f i IMG.obj
 0001:0001ca40       ?_Reserve@?$vector@V?$_List_iterator@V?$_List_val@U?$_List_simple_types@VIMG_Entry@@@std@@@std@@@std@@V?$allocator@V?$_List_iterator@V?$_List_val@U?$_List_simple_types@VIMG_Entry@@@std@@@std@@@std@@@2@@std@@IAEXI@Z 1001da40 f i IMG.obj
 0001:0001cab0       ?_Reallocate@?$vector@V?$_List_iterator@V?$_List_val@U?$_List_simple_types@VIMG_Entry@@@std@@@std@@@std@@V?$allocator@V?$_List_iterator@V?$_List_val@U?$_List_simple_types@VIMG_Entry@@@std@@@std@@@std@@@2@@std@@IAEXI@Z 1001dab0 f i IMG.obj
 0001:0001cb30       ?_Buynode0@?$_List_alloc@$0A@U?$_List_base_types@VIMG_Entry@@V?$allocator@VIMG_Entry@@@std@@@std@@@std@@QAEPAU?$_List_node@VIMG_Entry@@PAX@2@PAU32@0@Z 1001db30 f i IMG.obj
 0001:0001cb70       ??$sort@V<lambda_cc40c387a7659019280e6678a95eac80>@@@?$list@VIMG_Entry@@V?$allocator@VIMG_Entry@@@std@@@std@@QAEXV<lambda_cc40c387a7659019280e6678a95eac80>@@@Z 1001db70 f i IMG.obj
 0001:0001ce70       ?_Splice_same@?$list@VIMG_Entry@@V?$allocator@VIMG_Entry@@@std@@@std@@QAEXV?$_List_const_iterator@V?$_List_val@U?$_List_simple_types@VIMG_Entry@@@std@@@std@@@2@AAV12@00I@Z 1001de70 f i IMG.obj
 0001:0001cef0       ??$_For_each@V?$_List_unchecked_iterator@V?$_List_val@U?$_List_simple_types@VIMG_Entry@@@std@@@std@@@std@@V<lambda_296c2e26422fe6b5f2306a2de4355a91>@@@std@@YAXV?$_List_unchecked_iterator@V?$_List_val@U?$_List_simple_types@VIMG_Entry@@@std@@@std@@@0@0AAV<lambda_296c2e26422fe6b5f2306a2de4355a91>@@@Z 1001def0 f i IMG.obj
 0001:0001d070       ??$_Max_element@V?$_List_unchecked_iterator@V?$_List_val@U?$_List_simple_types@VIMG_Entry@@@std@@@std@@@std@@V<lambda_026a63328970fd21f827b337764d92cc>@@@std@@YA?AV?$_List_unchecked_iterator@V?$_List_val@U?$_List_simple_types@VIMG_Entry@@@std@@@std@@@0@V10@0V<lambda_026a63328970fd21f827b337764d92cc>@@@Z 1001e070 f i IMG.obj
 0001:0001d100       ??$merge@V<lambda_cc40c387a7659019280e6678a95eac80>@@@?$list@VIMG_Entry@@V?$allocator@VIMG_Entry@@@std@@@std@@QAEXAAV01@V<lambda_cc40c387a7659019280e6678a95eac80>@@@Z 1001e100 f i IMG.obj
 0001:0001d190       ??$_Buynode@ABVIMG_Entry@@@?$_List_buy@VIMG_Entry@@V?$allocator@VIMG_Entry@@@std@@@std@@QAEPAU?$_List_node@VIMG_Entry@@PAX@1@PAU21@0ABVIMG_Entry@@@Z 1001e190 f i IMG.obj
 0001:0001d190       ??$_Buynode@VIMG_Entry@@@?$_List_buy@VIMG_Entry@@V?$allocator@VIMG_Entry@@@std@@@std@@QAEPAU?$_List_node@VIMG_Entry@@PAX@1@PAU21@0$$QAVIMG_Entry@@@Z 1001e190 f i IMG.obj
 0001:0001d1c0       ??$_Uninit_move@PAV?$_List_iterator@V?$_List_val@U?$_List_simple_types@VIMG_Entry@@@std@@@std@@@std@@PAV12@V?$allocator@V?$_List_iterator@V?$_List_val@U?$_List_simple_types@VIMG_Entry@@@std@@@std@@@std@@@2@V12@@std@@YAPAV?$_List_iterator@V?$_List_val@U?$_List_simple_types@VIMG_Entry@@@std@@@std@@@0@PAV10@00AAU?$_Wrap_alloc@V?$allocator@V?$_List_iterator@V?$_List_val@U?$_List_simple_types@VIMG_Entry@@@std@@@std@@@std@@@std@@@0@0U_Nonscalar_ptr_iterator_tag@0@@Z 1001e1c0 f i IMG.obj
 0001:0001d200       ?EL_HideModule@@YAKPAU_ELPEB@@PB_W@Z 1001e200 f   ManualInjection.obj
 0001:0001d310       _wmemset                   1001e310 f i Misc.obj
 0001:0001d340       ?MD5_Memory@Misc@@YA?AV?$basic_string@DU?$char_traits@D@std@@V?$allocator@D@2@@std@@HH@Z 1001e340 f   Misc.obj
 0001:0001d400       ?GetGTADirectory@Misc@@YA?AV?$basic_string@_WU?$char_traits@_W@std@@V?$allocator@_W@2@@std@@XZ 1001e400 f   Misc.obj
 0001:0001d580       ?GetCrouchBug@Misc@@YAHXZ  1001e580 f   Misc.obj
 0001:0001d590       ?GetMacroLocks@Misc@@YA_NXZ 1001e590 f   Misc.obj
 0001:0001d5a0       ?GetVehicleBlips@Misc@@YA_NXZ 1001e5a0 f   Misc.obj
 0001:0001d5b0       ?GetAltTabState@Misc@@YA_NXZ 1001e5b0 f   Misc.obj
 0001:0001d5c0       ?utf8_encode@Misc@@YA?AV?$basic_string@DU?$char_traits@D@std@@V?$allocator@D@2@@std@@ABV?$basic_string@_WU?$char_traits@_W@std@@V?$allocator@_W@2@@3@@Z 1001e5c0 f   Misc.obj
 0001:0001d6c0       ?utf8_decode@Misc@@YA?AV?$basic_string@_WU?$char_traits@_W@std@@V?$allocator@_W@2@@std@@ABV?$basic_string@DU?$char_traits@D@std@@V?$allocator@D@2@@3@@Z 1001e6c0 f   Misc.obj
 0001:0001d7a0       ?assign@?$basic_string@_WU?$char_traits@_W@std@@V?$allocator@_W@2@@std@@QAEAAV12@I_W@Z 1001e7a0 f i Misc.obj
 0001:0001d890       ?_Chassign@?$basic_string@_WU?$char_traits@_W@std@@V?$allocator@_W@2@@std@@QAEXII_W@Z 1001e890 f i Misc.obj
 0001:0001d8e0       ?Load@CRakClientHandler@@SAXXZ 1001e8e0 f   CRakClientHandler.obj
 0001:0001d980       ?CustomSend@CRakClientHandler@@SAXPAVBitStream@RakNet@@W4PacketPriority@@W4PacketReliability@@D@Z 1001e980 f   CRakClientHandler.obj
 0001:0001d9d0       ?IsConnected@CRakClientHandler@@SA_NXZ 1001e9d0 f   CRakClientHandler.obj
 0001:0001da00       ?Initialize@CRPCCallback@@SAXXZ 1001ea00 f   CRPCCallback.obj
 0001:0001dbb0       ?OnConnect@CRPCCallback@@CAXXZ 1001ebb0 f   CRPCCallback.obj
 0001:0001dc20       ?SendVerificationPacket@@YAXXZ 1001ec20 f   CRPCCallback.obj
 0001:0001de80       ?VerifyClient@CRPCCallback@@CAXAAVBitStream@RakNet@@H@Z 1001ee80 f   CRPCCallback.obj
 0001:0001df30       ?MD5_Memory_Region@CRPCCallback@@CAXAAVBitStream@RakNet@@H@Z 1001ef30 f   CRPCCallback.obj
 0001:0001e1e0       ?MD5_File@CRPCCallback@@CAXAAVBitStream@RakNet@@H@Z 1001f1e0 f   CRPCCallback.obj
 0001:0001e6d0       ?ToggleSwitchReload@CRPCCallback@@CAXAAVBitStream@RakNet@@H@Z 1001f6d0 f   CRPCCallback.obj
 0001:0001e780       ?SetFrameLimit@CRPCCallback@@CAXAAVBitStream@RakNet@@H@Z 1001f780 f   CRPCCallback.obj
 0001:0001e7f0       ?ToggleCrouchBug@CRPCCallback@@CAXAAVBitStream@RakNet@@H@Z 1001f7f0 f   CRPCCallback.obj
 0001:0001e830       ?ExitThisProcess@CRPCCallback@@CAXAAVBitStream@RakNet@@H@Z 1001f830 f   CRPCCallback.obj
 0001:0001e840       ?VersionNotCompatible@CRPCCallback@@CAXAAVBitStream@RakNet@@H@Z 1001f840 f   CRPCCallback.obj
 0001:0001e860       ?ToggleUnlimitedSprint@CRPCCallback@@CAXAAVBitStream@RakNet@@H@Z 1001f860 f   CRPCCallback.obj
 0001:0001e940       ?ToggleMacroLimits@CRPCCallback@@CAXAAVBitStream@RakNet@@H@Z 1001f940 f   CRPCCallback.obj
 0001:0001e990       ?ToggleSprintOnAllSurfaces@CRPCCallback@@CAXAAVBitStream@RakNet@@H@Z 1001f990 f   CRPCCallback.obj
 0001:0001ea50       ?ToggleVehicleBlips@CRPCCallback@@CAXAAVBitStream@RakNet@@H@Z 1001fa50 f   CRPCCallback.obj
 0001:0001eaa0       ??$Read@H@BitStream@RakNet@@QAE_NAAH@Z 1001faa0 f i CRPCCallback.obj
 0001:0001eb50       ??_GHookedRakClientInterface@@UAEPAXI@Z 1001fb50 f i HookedRakClient.obj
 0001:0001eb50       ??_EHookedRakClientInterface@@UAEPAXI@Z 1001fb50 f i * CIL library *:* CIL module *
 0001:0001eb80       ?Connect@HookedRakClientInterface@@UAE_NPBDGGIH@Z 1001fb80 f   HookedRakClient.obj
 0001:0001eba0       ?Disconnect@HookedRakClientInterface@@UAEXIE@Z 1001fba0 f   HookedRakClient.obj
 0001:0001ebd0       ?InitializeSecurity@HookedRakClientInterface@@UAEXPBD0@Z 1001fbd0 f   HookedRakClient.obj
 0001:0001ebe0       ?SetPassword@HookedRakClientInterface@@UAEXPBD@Z 1001fbe0 f   HookedRakClient.obj
 0001:0001ebf0       ?HasPassword@HookedRakClientInterface@@UBE_NXZ 1001fbf0 f   HookedRakClient.obj
 0001:0001ec00       ?Send@HookedRakClientInterface@@UAE_NPBDHHHD@Z 1001fc00 f   HookedRakClient.obj
 0001:0001ec10       ?SendInitialInfo@HookedRakClientInterface@@AAEXXZ 1001fc10 f   HookedRakClient.obj
 0001:0001f230       ?Send@HookedRakClientInterface@@UAE_NPAVBitStream@RakNet@@HHD@Z 10020230 f   HookedRakClient.obj
 0001:0001f2d0       ?Receive@HookedRakClientInterface@@UAEPAUPacket@@XZ 100202d0 f   HookedRakClient.obj
 0001:0001f410       ?DeallocatePacket@HookedRakClientInterface@@UAEXPAUPacket@@@Z 10020410 f   HookedRakClient.obj
 0001:0001f420       ?PingServer@HookedRakClientInterface@@UAEXXZ 10020420 f   HookedRakClient.obj
 0001:0001f430       ?PingServer@HookedRakClientInterface@@UAEXPBDGG_N@Z 10020430 f   HookedRakClient.obj
 0001:0001f440       ?GetAveragePing@HookedRakClientInterface@@UAEHXZ 10020440 f   HookedRakClient.obj
 0001:0001f450       ?GetLastPing@HookedRakClientInterface@@UBEHXZ 10020450 f   HookedRakClient.obj
 0001:0001f460       ?GetLowestPing@HookedRakClientInterface@@UBEHXZ 10020460 f   HookedRakClient.obj
 0001:0001f470       ?GetPlayerPing@HookedRakClientInterface@@UAEHUPlayerID@@@Z 10020470 f   HookedRakClient.obj
 0001:0001f4a0       ?StartOccasionalPing@HookedRakClientInterface@@UAEXXZ 100204a0 f   HookedRakClient.obj
 0001:0001f4b0       ?StopOccasionalPing@HookedRakClientInterface@@UAEXXZ 100204b0 f   HookedRakClient.obj
 0001:0001f4c0       ?IsConnected@HookedRakClientInterface@@UBE_NXZ 100204c0 f   HookedRakClient.obj
 0001:0001f4d0       ?GetSynchronizedRandomInteger@HookedRakClientInterface@@UBEIXZ 100204d0 f   HookedRakClient.obj
 0001:0001f4e0       ?GenerateCompressionLayer@HookedRakClientInterface@@UAE_NQAI_N@Z 100204e0 f   HookedRakClient.obj
 0001:0001f4f0       ?DeleteCompressionLayer@HookedRakClientInterface@@UAE_N_N@Z 100204f0 f   HookedRakClient.obj
 0001:0001f500       ?RegisterAsRemoteProcedureCall@HookedRakClientInterface@@UAEXPAHP6AXPAURPCParameters@@@Z@Z 10020500 f   HookedRakClient.obj
 0001:0001f510       ?RegisterClassMemberRPC@HookedRakClientInterface@@UAEXPAHPAX@Z 10020510 f   HookedRakClient.obj
 0001:0001f520       ?UnregisterAsRemoteProcedureCall@HookedRakClientInterface@@UAEXPAH@Z 10020520 f   HookedRakClient.obj
 0001:0001f540       ?RPC@HookedRakClientInterface@@UAE_NPAHPBDIHHD_N@Z 10020540 f   HookedRakClient.obj
 0001:0001f550       ?RPC@HookedRakClientInterface@@UAE_NPAHPAVBitStream@RakNet@@HHD_N@Z 10020550 f   HookedRakClient.obj
 0001:0001f560       ?SetTrackFrequencyTable@HookedRakClientInterface@@UAEX_N@Z 10020560 f   HookedRakClient.obj
 0001:0001f570       ?GetSendFrequencyTable@HookedRakClientInterface@@UAE_NQAI@Z 10020570 f   HookedRakClient.obj
 0001:0001f580       ?GetCompressionRatio@HookedRakClientInterface@@UBEMXZ 10020580 f   HookedRakClient.obj
 0001:0001f590       ?GetDecompressionRatio@HookedRakClientInterface@@UBEMXZ 10020590 f   HookedRakClient.obj
 0001:0001f5a0       ?AttachPlugin@HookedRakClientInterface@@UAEXPAX@Z 100205a0 f   HookedRakClient.obj
 0001:0001f5c0       ?DetachPlugin@HookedRakClientInterface@@UAEXPAX@Z 100205c0 f   HookedRakClient.obj
 0001:0001f5e0       ?GetStaticServerData@HookedRakClientInterface@@UAEPAVBitStream@RakNet@@XZ 100205e0 f   HookedRakClient.obj
 0001:0001f5f0       ?SetStaticServerData@HookedRakClientInterface@@UAEXPBDH@Z 100205f0 f   HookedRakClient.obj
 0001:0001f610       ?GetStaticClientData@HookedRakClientInterface@@UAEPAVBitStream@RakNet@@UPlayerID@@@Z 10020610 f   HookedRakClient.obj
 0001:0001f640       ?SetStaticClientData@HookedRakClientInterface@@UAEXUPlayerID@@PBDH@Z 10020640 f   HookedRakClient.obj
 0001:0001f670       ?SendStaticClientDataToServer@HookedRakClientInterface@@UAEXXZ 10020670 f   HookedRakClient.obj
 0001:0001f680       ?GetServerID@HookedRakClientInterface@@UBE?AUPlayerID@@XZ 10020680 f   HookedRakClient.obj
 0001:0001f6a0       ?GetPlayerID@HookedRakClientInterface@@UBE?AUPlayerID@@XZ 100206a0 f   HookedRakClient.obj
 0001:0001f6c0       ?GetInternalID@HookedRakClientInterface@@UBE?AUPlayerID@@XZ 100206c0 f   HookedRakClient.obj
 0001:0001f6e0       ?PlayerIDToDottedIP@HookedRakClientInterface@@UBEPBDUPlayerID@@@Z 100206e0 f   HookedRakClient.obj
 0001:0001f710       ?PushBackPacket@HookedRakClientInterface@@UAEXPAUPacket@@_N@Z 10020710 f   HookedRakClient.obj
 0001:0001f730       ?SetRouterInterface@HookedRakClientInterface@@UAEXPAX@Z 10020730 f   HookedRakClient.obj
 0001:0001f750       ?RemoveRouterInterface@HookedRakClientInterface@@UAEXPAX@Z 10020750 f   HookedRakClient.obj
 0001:0001f770       ?SetTimeoutTime@HookedRakClientInterface@@UAEXI@Z 10020770 f   HookedRakClient.obj
 0001:0001f790       ?SetMTUSize@HookedRakClientInterface@@UAE_NH@Z 10020790 f   HookedRakClient.obj
 0001:0001f7b0       ?GetMTUSize@HookedRakClientInterface@@UBEHXZ 100207b0 f   HookedRakClient.obj
 0001:0001f7c0       ?AllowConnectionResponseIPMigration@HookedRakClientInterface@@UAEX_N@Z 100207c0 f   HookedRakClient.obj
 0001:0001f7e0       ?AdvertiseSystem@HookedRakClientInterface@@UAEXPBDG0H@Z 100207e0 f   HookedRakClient.obj
 0001:0001f800       ?GetStatistics@HookedRakClientInterface@@UAEQAURakNetStatisticsStruct@@XZ 10020800 f   HookedRakClient.obj
 0001:0001f810       ?ApplyNetworkSimulator@HookedRakClientInterface@@UAEXNGG@Z 10020810 f   HookedRakClient.obj
 0001:0001f840       ?IsNetworkSimulatorActive@HookedRakClientInterface@@UAE_NXZ 10020840 f   HookedRakClient.obj
 0001:0001f850       ?GetPlayerIndex@HookedRakClientInterface@@UAEGXZ 10020850 f   HookedRakClient.obj
 0001:0001f860       ?RPC_@HookedRakClientInterface@@UAE_NPAHPAVBitStream@RakNet@@W4PacketPriority@@W4PacketReliability@@D_NUNetworkID@@@Z 10020860 f   HookedRakClient.obj
 0001:0001f8a0       ??$Write@M@BitStream@RakNet@@QAEXM@Z 100208a0 f i HookedRakClient.obj
 0001:0001f960       ?FindPattern@@YAKPAD0KK@Z  10020960 f   PatternScan.obj
 0001:0001f9d0       ??$_Destroy_range@U?$_Wrap_alloc@V?$allocator@V?$intrusive_ptr@Vbasic_cv_list_entry@detail@boost@@@boost@@@std@@@std@@@std@@YAXPAV?$intrusive_ptr@Vbasic_cv_list_entry@detail@boost@@@boost@@0AAU?$_Wrap_alloc@V?$allocator@V?$intrusive_ptr@Vbasic_cv_list_entry@detail@boost@@@boost@@@std@@@0@U_Nonscalar_ptr_iterator_tag@0@@Z 100209d0 f i libboost_thread-vc120-mt-s-1_55:thread.obj
 0001:0001fa80       ??$enable_current_exception@U?$error_info_injector@Vlock_error@boost@@@exception_detail@boost@@@boost@@YA?AV?$clone_impl@U?$error_info_injector@Vlock_error@boost@@@exception_detail@boost@@@exception_detail@0@ABU?$error_info_injector@Vlock_error@boost@@@20@@Z 10020a80 f i libboost_thread-vc120-mt-s-1_55:thread.obj
 0001:0001faa0       ??$enable_error_info@Vlock_error@boost@@@boost@@YA?AU?$error_info_injector@Vlock_error@boost@@@exception_detail@0@ABVlock_error@0@@Z 10020aa0 f i libboost_thread-vc120-mt-s-1_55:thread.obj
 0001:0001fac0       ??$int_to_string@H@detail@boost@@YAXHPAD@Z 10020ac0 f i libboost_thread-vc120-mt-s-1_55:thread.obj
 0001:0001fb30       ??$int_to_string@K@detail@boost@@YAXKPAD@Z 10020b30 f i libboost_thread-vc120-mt-s-1_55:thread.obj
 0001:0001fba0       ??$throw_exception@Vlock_error@boost@@@boost@@YAXABVlock_error@0@@Z 10020ba0 f i libboost_thread-vc120-mt-s-1_55:thread.obj
 0001:0001fc10       ??0?$clone_impl@U?$error_info_injector@Vlock_error@boost@@@exception_detail@boost@@@exception_detail@boost@@AAE@ABV012@Uclone_tag@012@@Z 10020c10 f i libboost_thread-vc120-mt-s-1_55:thread.obj
 0001:0001fce0       ??0?$clone_impl@U?$error_info_injector@Vlock_error@boost@@@exception_detail@boost@@@exception_detail@boost@@QAE@ABU?$error_info_injector@Vlock_error@boost@@@12@@Z 10020ce0 f i libboost_thread-vc120-mt-s-1_55:thread.obj
 0001:0001fdb0       ??0?$clone_impl@U?$error_info_injector@Vlock_error@boost@@@exception_detail@boost@@@exception_detail@boost@@QAE@ABV012@@Z 10020db0 f i libboost_thread-vc120-mt-s-1_55:thread.obj
 0001:0001fe50       ??0?$error_info_injector@Vlock_error@boost@@@exception_detail@boost@@QAE@ABU012@@Z 10020e50 f i libboost_thread-vc120-mt-s-1_55:thread.obj
 0001:0001ff20       ??0?$error_info_injector@Vlock_error@boost@@@exception_detail@boost@@QAE@ABVlock_error@2@@Z 10020f20 f i libboost_thread-vc120-mt-s-1_55:thread.obj
 0001:0001ffe0       ??0lock_error@boost@@QAE@ABV01@@Z 10020fe0 f i libboost_thread-vc120-mt-s-1_55:thread.obj
 0001:00020070       ??0logic_error@std@@QAE@ABV01@@Z 10021070 f i libboost_thread-vc120-mt-s-1_55:thread.obj
 0001:00020090       ??0out_of_range@std@@QAE@ABV01@@Z 10021090 f i libboost_thread-vc120-mt-s-1_55:thread.obj
 0001:000200b0       ??1?$error_info_injector@Vlock_error@boost@@@exception_detail@boost@@UAE@XZ 100210b0 f i libboost_thread-vc120-mt-s-1_55:thread.obj
 0001:00020120       ??1?$lock_guard@Vmutex@boost@@@boost@@QAE@XZ 10021120 f i libboost_thread-vc120-mt-s-1_55:thread.obj
 0001:00020150       ??1once_context@detail@boost@@QAE@XZ 10021150 f i libboost_thread-vc120-mt-s-1_55:thread.obj
 0001:00020170       ??1thread_data_base@detail@boost@@UAE@XZ 10021170 f   libboost_thread-vc120-mt-s-1_55:thread.obj
 0001:00020340       ??_D?$clone_impl@U?$error_info_injector@Vlock_error@boost@@@exception_detail@boost@@@exception_detail@boost@@QAEXXZ 10021340 f i libboost_thread-vc120-mt-s-1_55:thread.obj
 0001:00020379       ??_E?$clone_impl@U?$error_info_injector@Vlock_error@boost@@@exception_detail@boost@@@exception_detail@boost@@$4PPPPPPPM@EI@AEPAXI@Z 10021379 f i libboost_thread-vc120-mt-s-1_55:thread.obj
 0001:00020384       ??_E?$clone_impl@U?$error_info_injector@Vlock_error@boost@@@exception_detail@boost@@@exception_detail@boost@@WCM@AEPAXI@Z 10021384 f i libboost_thread-vc120-mt-s-1_55:thread.obj
 0001:0002038c       ??_E?$error_info_injector@Vlock_error@boost@@@exception_detail@boost@@WCM@AEPAXI@Z 1002138c f i libboost_thread-vc120-mt-s-1_55:thread.obj
 0001:000203a0       ??_G?$clone_impl@U?$error_info_injector@Vlock_error@boost@@@exception_detail@boost@@@exception_detail@boost@@UAEPAXI@Z 100213a0 f i libboost_thread-vc120-mt-s-1_55:thread.obj
 0001:000203a0       ??_E?$clone_impl@U?$error_info_injector@Vlock_error@boost@@@exception_detail@boost@@@exception_detail@boost@@UAEPAXI@Z 100213a0 f i libboost_thread-vc120-mt-s-1_55:thread.obj
 0001:000203f0       ??_G?$error_info_injector@Vlock_error@boost@@@exception_detail@boost@@UAEPAXI@Z 100213f0 f i libboost_thread-vc120-mt-s-1_55:thread.obj
 0001:000203f0       ??_E?$error_info_injector@Vlock_error@boost@@@exception_detail@boost@@UAEPAXI@Z 100213f0 f i libboost_thread-vc120-mt-s-1_55:thread.obj
 0001:00020410       ??_Glock_error@boost@@UAEPAXI@Z 10021410 f i libboost_thread-vc120-mt-s-1_55:thread.obj
 0001:00020410       ??_Elock_error@boost@@UAEPAXI@Z 10021410 f i libboost_thread-vc120-mt-s-1_55:thread.obj
 0001:00020460       ??_Elogic_error@std@@UAEPAXI@Z 10021460 f i libboost_thread-vc120-mt-s-1_55:thread.obj
 0001:00020460       ??_Glogic_error@std@@UAEPAXI@Z 10021460 f i libboost_thread-vc120-mt-s-1_55:thread.obj
 0001:00020460       ??_Eout_of_range@std@@UAEPAXI@Z 10021460 f i libboost_thread-vc120-mt-s-1_55:thread.obj
 0001:00020460       ??_Gout_of_range@std@@UAEPAXI@Z 10021460 f i libboost_thread-vc120-mt-s-1_55:thread.obj
 0001:00020480       ?call_once@boost@@YAXAAUonce_flag@1@P6AXXZ@Z 10021480 f i libboost_thread-vc120-mt-s-1_55:thread.obj
 0001:0002061a       ?clone@?$clone_impl@U?$error_info_injector@Vlock_error@boost@@@exception_detail@boost@@@exception_detail@boost@@$0PPPPPPPM@A@BEPBVclone_base@23@XZ 1002161a f i libboost_thread-vc120-mt-s-1_55:thread.obj
 0001:00020630       ?clone@?$clone_impl@U?$error_info_injector@Vlock_error@boost@@@exception_detail@boost@@@exception_detail@boost@@EBEPBVclone_base@23@XZ 10021630 f i libboost_thread-vc120-mt-s-1_55:thread.obj
 0001:000206c0       ?commit_once_region@detail@boost@@YAXAAUonce_flag@2@AAUonce_context@12@@Z 100216c0 f i libboost_thread-vc120-mt-s-1_55:thread.obj
 0001:00020740       ?create_current_thread_tls_key@?A0x76023120@boost@@YAXXZ 10021740 f   libboost_thread-vc120-mt-s-1_55:thread.obj
 0001:00020760       ?detach@thread@boost@@QAEXXZ 10021760 f   libboost_thread-vc120-mt-s-1_55:thread.obj
 0001:000207a0       ?lock@?$unique_lock@Vmutex@boost@@@boost@@QAEXXZ 100217a0 f i libboost_thread-vc120-mt-s-1_55:thread.obj
 0001:000208c0       ?lock@basic_timed_mutex@detail@boost@@QAEXXZ 100218c0 f i libboost_thread-vc120-mt-s-1_55:thread.obj
 0001:00020970       ?make_ready@shared_state_base@detail@boost@@QAEXXZ 10021970 f i libboost_thread-vc120-mt-s-1_55:thread.obj
 0001:00020a30       ?mark_waiting_and_try_lock@basic_timed_mutex@detail@boost@@QAEXAAJ@Z 10021a30 f i libboost_thread-vc120-mt-s-1_55:thread.obj
 0001:00020a80       ?name_once_mutex@detail@boost@@YAXPADPAX@Z 10021a80 f i libboost_thread-vc120-mt-s-1_55:thread.obj
 0001:00020af0       ?notify_all@basic_condition_variable@detail@boost@@QAEXXZ 10021af0 f i libboost_thread-vc120-mt-s-1_55:thread.obj
 0001:00020c60       ?on_process_exit@boost@@YAXXZ 10021c60 f   libboost_thread-vc120-mt-s-1_55:thread.obj
 0001:00020c80       ?on_thread_exit@boost@@YAXXZ 10021c80 f   libboost_thread-vc120-mt-s-1_55:thread.obj
 0001:00020c85       ?rethrow@?$clone_impl@U?$error_info_injector@Vlock_error@boost@@@exception_detail@boost@@@exception_detail@boost@@$0PPPPPPPM@A@BEXXZ 10021c85 f i libboost_thread-vc120-mt-s-1_55:thread.obj
 0001:00020c90       ?rethrow@?$clone_impl@U?$error_info_injector@Vlock_error@boost@@@exception_detail@boost@@@exception_detail@boost@@EBEXXZ 10021c90 f i libboost_thread-vc120-mt-s-1_55:thread.obj
 0001:00020d40       ?rollback_once_region@detail@boost@@YAXAAUonce_flag@2@AAUonce_context@12@@Z 10021d40 f i libboost_thread-vc120-mt-s-1_55:thread.obj
 0001:00020da0       ?run_thread_exit_callbacks@?A0x76023120@boost@@YAXXZ 10021da0 f   libboost_thread-vc120-mt-s-1_55:thread.obj
 0001:00020f60       ?start_thread_noexcept@thread@boost@@AAE_NXZ 10021f60 f   libboost_thread-vc120-mt-s-1_55:thread.obj
 0001:00020fe0       ?thread_start_function@?A0x76023120@boost@@YGIPAX@Z 10021fe0 f   libboost_thread-vc120-mt-s-1_55:thread.obj
 0001:00021070       ?yield@this_thread@boost@@YAXXZ 10022070 f   libboost_thread-vc120-mt-s-1_55:thread.obj
 0001:000210d0       ?dll_callback@?A0xa0cf5416@@YGHPAXK0@Z 100220d0 f   libboost_thread-vc120-mt-s-1_55:tss_pe.obj
 0001:00021110       ??$?0Um_imp@filesystem_error@filesystem@boost@@@shared_count@detail@boost@@QAE@PAUm_imp@filesystem_error@filesystem@2@@Z 10022110 f i libboost_filesystem-vc120-mt-s-1_55:operations.obj
 0001:000211b0       ??$checked_delete@Um_imp@filesystem_error@filesystem@boost@@@boost@@YAXPAUm_imp@filesystem_error@filesystem@0@@Z 100221b0 f i libboost_filesystem-vc120-mt-s-1_55:operations.obj
 0001:000211d0       ??$reset@Um_imp@filesystem_error@filesystem@boost@@@?$shared_ptr@Um_imp@filesystem_error@filesystem@boost@@@boost@@QAEXPAUm_imp@filesystem_error@filesystem@1@@Z 100221d0 f i libboost_filesystem-vc120-mt-s-1_55:operations.obj
 0001:000212d0       ??0filesystem_error@filesystem@boost@@QAE@ABV012@@Z 100222d0 f i libboost_filesystem-vc120-mt-s-1_55:operations.obj
 0001:00021380       ??0filesystem_error@filesystem@boost@@QAE@ABV?$basic_string@DU?$char_traits@D@std@@V?$allocator@D@2@@std@@ABVpath@12@Verror_code@system@2@@Z 10022380 f i libboost_filesystem-vc120-mt-s-1_55:operations.obj
 0001:00021490       ??0path@filesystem@boost@@QAE@PB_W@Z 10022490 f i libboost_filesystem-vc120-mt-s-1_55:operations.obj
 0001:000214f0       ??1?$scoped_array@D@boost@@QAE@XZ 100224f0 f i libboost_filesystem-vc120-mt-s-1_55:operations.obj
 0001:00021500       ??1?$shared_ptr@Um_imp@filesystem_error@filesystem@boost@@@boost@@QAE@XZ 10022500 f i libboost_filesystem-vc120-mt-s-1_55:operations.obj
 0001:00021540       ??1filesystem_error@filesystem@boost@@UAE@XZ 10022540 f i libboost_filesystem-vc120-mt-s-1_55:operations.obj
 0001:000215b0       ??1handle_wrapper@?A0x38725ab2@@QAE@XZ 100225b0 f i libboost_filesystem-vc120-mt-s-1_55:operations.obj
 0001:000215c0       ??1m_imp@filesystem_error@filesystem@boost@@QAE@XZ 100225c0 f i libboost_filesystem-vc120-mt-s-1_55:operations.obj
 0001:00021630       ??_G?$sp_counted_impl_p@Um_imp@filesystem_error@filesystem@boost@@@detail@boost@@UAEPAXI@Z 10022630 f i libboost_filesystem-vc120-mt-s-1_55:operations.obj
 0001:00021630       ??_E?$sp_counted_impl_p@Um_imp@filesystem_error@filesystem@boost@@@detail@boost@@UAEPAXI@Z 10022630 f i libboost_filesystem-vc120-mt-s-1_55:operations.obj
 0001:00021650       ??_Gfilesystem_error@filesystem@boost@@UAEPAXI@Z 10022650 f i libboost_filesystem-vc120-mt-s-1_55:operations.obj
 0001:00021650       ??_Efilesystem_error@filesystem@boost@@UAEPAXI@Z 10022650 f i libboost_filesystem-vc120-mt-s-1_55:operations.obj
 0001:00021670       ?append@?$basic_string@_WU?$char_traits@_W@std@@V?$allocator@_W@2@@std@@QAEAAV12@I_W@Z 10022670 f i libboost_filesystem-vc120-mt-s-1_55:operations.obj
 0001:00021730       ?dispose@?$sp_counted_impl_p@Um_imp@filesystem_error@filesystem@boost@@@detail@boost@@UAEXXZ 10022730 f i libboost_filesystem-vc120-mt-s-1_55:operations.obj
 0001:00021750       ?is_reparse_point_a_symlink@?A0x38725ab2@@YA_NABVpath@filesystem@boost@@@Z 10022750 f   libboost_filesystem-vc120-mt-s-1_55:operations.obj
 0001:00021830       ?make_permissions@?A0x38725ab2@@YA?AW4perms@filesystem@boost@@ABVpath@34@K@Z 10022830 f   libboost_filesystem-vc120-mt-s-1_55:operations.obj
 0001:00021be0       ?process_status_failure@?A0x38725ab2@@YA?AVfile_status@filesystem@boost@@ABVpath@34@PAVerror_code@system@4@@Z 10022be0 f   libboost_filesystem-vc120-mt-s-1_55:operations.obj
 0001:00021cf0       ?replace@?$basic_string@_WU?$char_traits@_W@std@@V?$allocator@_W@2@@std@@QAEAAV12@V?$_String_const_iterator@V?$_String_val@U?$_Simple_types@_W@std@@@std@@@2@0PB_W1@Z 10022cf0 f i libboost_filesystem-vc120-mt-s-1_55:operations.obj
 0001:00021d90       ?reset@?$shared_ptr@Um_imp@filesystem_error@filesystem@boost@@@boost@@QAEXXZ 10022d90 f i libboost_filesystem-vc120-mt-s-1_55:operations.obj
 0001:00021de0       ?status@detail@filesystem@boost@@YA?AVfile_status@23@ABVpath@23@PAVerror_code@system@3@@Z 10022de0 f   libboost_filesystem-vc120-mt-s-1_55:operations.obj
 0001:00021f90       ?string@path@filesystem@boost@@QBE?BV?$basic_string@DU?$char_traits@D@std@@V?$allocator@D@2@@std@@ABV?$codecvt@_WDH@5@@Z 10022f90 f i libboost_filesystem-vc120-mt-s-1_55:operations.obj
 0001:00022030       ?string@path@filesystem@boost@@QBE?BV?$basic_string@DU?$char_traits@D@std@@V?$allocator@D@2@@std@@XZ 10023030 f i libboost_filesystem-vc120-mt-s-1_55:operations.obj
 0001:00022060       ?what@filesystem_error@filesystem@boost@@UBEPBDXZ 10023060 f i libboost_filesystem-vc120-mt-s-1_55:operations.obj
 0001:000221f0       ?convert@path_traits@filesystem@boost@@YAXPB_W0AAV?$basic_string@DU?$char_traits@D@std@@V?$allocator@D@2@@std@@ABV?$codecvt@_WDH@5@@Z 100231f0 f   libboost_filesystem-vc120-mt-s-1_55:path_traits.obj
 0001:00022310       ?convert_aux@?A0x9df0d549@@YAXPB_W0PAD1AAV?$basic_string@DU?$char_traits@D@std@@V?$allocator@D@2@@std@@ABV?$codecvt@_WDH@3@@Z 10023310 f   libboost_filesystem-vc120-mt-s-1_55:path_traits.obj
 0001:00022400       ?replace@?$basic_string@DU?$char_traits@D@std@@V?$allocator@D@2@@std@@QAEAAV12@V?$_String_const_iterator@V?$_String_val@U?$_Simple_types@D@std@@@std@@@2@0PAD1@Z 10023400 f i libboost_filesystem-vc120-mt-s-1_55:path_traits.obj
 0001:00022490       ??$?0Vwindows_file_codecvt@@@locale@std@@QAE@ABV01@PBVwindows_file_codecvt@@@Z 10023490 f i libboost_filesystem-vc120-mt-s-1_55:path.obj
 0001:00022520       ??$dispatch@V?$basic_string@_WU?$char_traits@_W@std@@V?$allocator@_W@2@@std@@@path_traits@filesystem@boost@@YAXABV?$basic_string@_WU?$char_traits@_W@std@@V?$allocator@_W@2@@std@@AAV34@ABV?$codecvt@_WDH@4@@Z 10023520 f i libboost_filesystem-vc120-mt-s-1_55:path.obj
 0001:00022590       ??$use_facet@V?$codecvt@_WDH@std@@@std@@YAABV?$codecvt@_WDH@0@ABVlocale@0@@Z 10023590 f i libboost_filesystem-vc120-mt-s-1_55:path.obj
 0001:000226c0       ??0?$codecvt@_WDH@std@@QAE@ABV_Locinfo@1@I@Z 100236c0 f i libboost_filesystem-vc120-mt-s-1_55:path.obj
 0001:00022750       ??0?$codecvt@_WDH@std@@QAE@I@Z 10023750 f i libboost_filesystem-vc120-mt-s-1_55:path.obj
 0001:000227f0       ??4?$_Yarn@D@std@@QAEAAV01@PBD@Z 100237f0 f i libboost_filesystem-vc120-mt-s-1_55:path.obj
 0001:00022860       ??4?$basic_string@_WU?$char_traits@_W@std@@V?$allocator@_W@2@@std@@QAEAAV01@_W@Z 10023860 f i libboost_filesystem-vc120-mt-s-1_55:path.obj
 0001:000228b0       ??_Gwindows_file_codecvt@@UAEPAXI@Z 100238b0 f i libboost_filesystem-vc120-mt-s-1_55:path.obj
 0001:000228b0       ??_Ewindows_file_codecvt@@UAEPAXI@Z 100238b0 f i libboost_filesystem-vc120-mt-s-1_55:path.obj
 0001:000228b0       ??_E?$codecvt@_WDH@std@@MAEPAXI@Z 100238b0 f i libboost_filesystem-vc120-mt-s-1_55:path.obj
 0001:000228b0       ??_G?$codecvt@_WDH@std@@MAEPAXI@Z 100238b0 f i libboost_filesystem-vc120-mt-s-1_55:path.obj
 0001:000228d0       ?_Getcat@?$codecvt@_WDH@std@@SAIPAPBVfacet@locale@2@PBV42@@Z 100238d0 f i libboost_filesystem-vc120-mt-s-1_55:path.obj
 0001:00022990       ?begin@path@filesystem@boost@@QBE?AViterator@123@XZ 10023990 f   libboost_filesystem-vc120-mt-s-1_55:path.obj
 0001:00022af0       ?codecvt@path@filesystem@boost@@SAABV?$codecvt@_WDH@std@@XZ 10023af0 f   libboost_filesystem-vc120-mt-s-1_55:path.obj
 0001:00022b00       ?codecvt_facet_ptr@?A0x4a11078e@@YAAAPBV?$codecvt@_WDH@std@@XZ 10023b00 f i libboost_filesystem-vc120-mt-s-1_55:path.obj
 0001:00022ba0       ?compare@path@filesystem@boost@@QBEHABV123@@Z 10023ba0 f   libboost_filesystem-vc120-mt-s-1_55:path.obj
 0001:00022c50       ?default_locale@?A0x4a11078e@@YA?AVlocale@std@@XZ 10023c50 f i libboost_filesystem-vc120-mt-s-1_55:path.obj
 0001:00022d10       ?do_in@?$codecvt@_WDH@std@@MBEHAAHPBD1AAPBDPA_W3AAPA_W@Z 10023d10 f i libboost_filesystem-vc120-mt-s-1_55:path.obj
 0001:00022dd0       ?do_length@?$codecvt@_WDH@std@@MBEHAAHPBD1I@Z 10023dd0 f i libboost_filesystem-vc120-mt-s-1_55:path.obj
 0001:00022e60       ?do_length@windows_file_codecvt@@MBEHAAHPBD1I@Z 10023e60 f i libboost_filesystem-vc120-mt-s-1_55:path.obj
 0001:00022e60       ?do_unshift@windows_file_codecvt@@MBEHAAHPAD1AAPAD@Z 10023e60 f i libboost_filesystem-vc120-mt-s-1_55:path.obj
 0001:00022e70       ?do_max_length@?$codecvt@_WDH@std@@MBEHXZ 10023e70 f i libboost_filesystem-vc120-mt-s-1_55:path.obj
 0001:00022e80       ?do_out@?$codecvt@_WDH@std@@MBEHAAHPB_W1AAPB_WPAD3AAPAD@Z 10023e80 f i libboost_filesystem-vc120-mt-s-1_55:path.obj
 0001:00022fc0       ?do_unshift@?$codecvt@_WDH@std@@MBEHAAHPAD1AAPAD@Z 10023fc0 f i libboost_filesystem-vc120-mt-s-1_55:path.obj
 0001:00023070       ?end@path@filesystem@boost@@QBE?AViterator@123@XZ 10024070 f   libboost_filesystem-vc120-mt-s-1_55:path.obj
 0001:000230a0       ?extension@path@filesystem@boost@@QBE?AV123@XZ 100240a0 f   libboost_filesystem-vc120-mt-s-1_55:path.obj
 0001:00023250       ?filename@path@filesystem@boost@@QBE?AV123@XZ 10024250 f   libboost_filesystem-vc120-mt-s-1_55:path.obj
 0001:00023400       ?filename_pos@?A0x4a11078e@@YAIABV?$basic_string@_WU?$char_traits@_W@std@@V?$allocator@_W@2@@std@@I@Z 10024400 f   libboost_filesystem-vc120-mt-s-1_55:path.obj
 0001:000234e0       ?find_first_of@?$basic_string@_WU?$char_traits@_W@std@@V?$allocator@_W@2@@std@@QBEIPB_WI@Z 100244e0 f i libboost_filesystem-vc120-mt-s-1_55:path.obj
 0001:00023530       ?find_first_of@?$basic_string@_WU?$char_traits@_W@std@@V?$allocator@_W@2@@std@@QBEIPB_WII@Z 10024530 f i libboost_filesystem-vc120-mt-s-1_55:path.obj
 0001:000235b0       ?find_last_of@?$basic_string@_WU?$char_traits@_W@std@@V?$allocator@_W@2@@std@@QBEIPB_WII@Z 100245b0 f i libboost_filesystem-vc120-mt-s-1_55:path.obj
 0001:00023630       ?first_element@?A0x4a11078e@@YAXABV?$basic_string@_WU?$char_traits@_W@std@@V?$allocator@_W@2@@std@@AAI1I@Z 10024630 f   libboost_filesystem-vc120-mt-s-1_55:path.obj
 0001:00023780       ?insert@?$basic_string@_WU?$char_traits@_W@std@@V?$allocator@_W@2@@std@@QAEAAV12@II_W@Z 10024780 f i libboost_filesystem-vc120-mt-s-1_55:path.obj
 0001:00023840       ?is_root_separator@?A0x4a11078e@@YA_NABV?$basic_string@_WU?$char_traits@_W@std@@V?$allocator@_W@2@@std@@I@Z 10024840 f   libboost_filesystem-vc120-mt-s-1_55:path.obj
 0001:00023900       ?is_separator@?A0x4a11078e@@YA_N_W@Z 10024900 f i libboost_filesystem-vc120-mt-s-1_55:path.obj
 0001:00023920       ?lex_compare@detail@filesystem@boost@@YAHViterator@path@23@000@Z 10024920 f   libboost_filesystem-vc120-mt-s-1_55:path.obj
 0001:00023af0       ?m_path_iterator_increment@path@filesystem@boost@@CAXAAViterator@123@@Z 10024af0 f   libboost_filesystem-vc120-mt-s-1_55:path.obj
 0001:00023d00       ?codecvt_error_category@filesystem@boost@@YAABVerror_category@system@2@XZ 10024d00 f   libboost_filesystem-vc120-mt-s-1_55:codecvt_error_category.obj
 0001:00023d70       ?message@codecvt_error_cat@?A0xed6114aa@@UBE?AV?$basic_string@DU?$char_traits@D@std@@V?$allocator@D@2@@std@@H@Z 10024d70 f   libboost_filesystem-vc120-mt-s-1_55:codecvt_error_category.obj
 0001:00023e90       ?name@codecvt_error_cat@?A0xed6114aa@@UBEPBDXZ 10024e90 f   libboost_filesystem-vc120-mt-s-1_55:codecvt_error_category.obj
 0001:00023ea0       ?do_in@windows_file_codecvt@@MBEHAAHPBD1AAPBDPA_W3AAPA_W@Z 10024ea0 f   libboost_filesystem-vc120-mt-s-1_55:windows_file_codecvt.obj
 0001:00023f00       ?do_out@windows_file_codecvt@@MBEHAAHPB_W1AAPB_WPAD3AAPAD@Z 10024f00 f   libboost_filesystem-vc120-mt-s-1_55:windows_file_codecvt.obj
 0001:00023f60       _curl_easy_cleanup         10024f60 f   libcurl:easy.obj
 0001:00023f80       _curl_easy_init            10024f80 f   libcurl:easy.obj
 0001:00024010       _curl_easy_perform         10025010 f   libcurl:easy.obj
 0001:00024020       _curl_easy_setopt          10025020 f   libcurl:easy.obj
 0001:00024050       _curl_global_cleanup       10025050 f   libcurl:easy.obj
 0001:000240a0       _curl_global_init          100250a0 f   libcurl:easy.obj
 0001:00024390       _Curl_slist_append_nodup   10025390 f   libcurl:slist.obj
 0001:000243e0       _curl_slist_append         100253e0 f   libcurl:slist.obj
 0001:00024420       _curl_slist_free_all       10025420 f   libcurl:slist.obj
 0001:000244d0       _Curl_expire               100254d0 f   libcurl:multi.obj
 0001:00024600       _Curl_expire_clear         10025600 f   libcurl:multi.obj
 0001:00024680       _Curl_expire_latest        10025680 f   libcurl:multi.obj
 0001:00024710       _Curl_multi_chunk_length_penalty_size 10025710 f   libcurl:multi.obj
 0001:00024730       _Curl_multi_closed         10025730 f   libcurl:multi.obj
 0001:000247a0       _Curl_multi_content_length_penalty_size 100257a0 f   libcurl:multi.obj
 0001:000247c0       _Curl_multi_handle         100257c0 f   libcurl:multi.obj
 0001:000248e0       _Curl_multi_handlePipeBreak 100258e0 f   libcurl:multi.obj
 0001:000248f0       _Curl_multi_max_host_connections 100258f0 f   libcurl:multi.obj
 0001:00024910       _Curl_multi_max_total_connections 10025910 f   libcurl:multi.obj
 0001:00024930       _Curl_multi_pipelining_server_bl 10025930 f   libcurl:multi.obj
 0001:00024940       _Curl_multi_pipelining_site_bl 10025940 f   libcurl:multi.obj
 0001:00024950       _Curl_multi_process_pending_handles 10025950 f   libcurl:multi.obj
 0001:000249b0       _Curl_pipeline_wanted      100259b0 f   libcurl:multi.obj
 0001:00024af0       _curl_multi_add_handle     10025af0 f   libcurl:multi.obj
 0001:00024c30       _curl_multi_cleanup        10025c30 f   libcurl:multi.obj
 0001:00024d30       _curl_multi_info_read      10025d30 f   libcurl:multi.obj
 0001:00024d90       _curl_multi_perform        10025d90 f   libcurl:multi.obj
 0001:00024e50       _curl_multi_remove_handle  10025e50 f   libcurl:multi.obj
 0001:00025010       _curl_multi_setopt         10026010 f   libcurl:multi.obj
 0001:00025170       _curl_multi_wait           10026170 f   libcurl:multi.obj
 0001:00026ea0       _Curl_cookie_add           10027ea0 f   libcurl:cookie.obj
 0001:000278a0       _Curl_cookie_cleanup       100288a0 f   libcurl:cookie.obj
 0001:000278d0       _Curl_cookie_clearall      100288d0 f   libcurl:cookie.obj
 0001:00027900       _Curl_cookie_clearsess     10028900 f   libcurl:cookie.obj
 0001:00027960       _Curl_cookie_freelist      10028960 f   libcurl:cookie.obj
 0001:000279d0       _Curl_cookie_getlist       100289d0 f   libcurl:cookie.obj
 0001:00027b70       _Curl_cookie_init          10028b70 f   libcurl:cookie.obj
 0001:00027d30       _Curl_cookie_loadfiles     10028d30 f   libcurl:cookie.obj
 0001:00027f80       _Curl_flush_cookies        10028f80 f   libcurl:cookie.obj
 0001:000287b0       _curlx_tvdiff              100297b0 f   libcurl:timeval.obj
 0001:000287e0       _curlx_tvdiff_secs         100297e0 f   libcurl:timeval.obj
 0001:00028840       _curlx_tvnow               10029840 f   libcurl:timeval.obj
 0001:00028870       _Curl_resolver_cancel      10029870 f   libcurl:asyn-thread.obj
 0001:00028880       _Curl_resolver_getaddrinfo 10029880 f   libcurl:asyn-thread.obj
 0001:000289d0       _Curl_resolver_is_resolved 100299d0 f   libcurl:asyn-thread.obj
 0001:00028af0       _Curl_resolver_wait_resolv 10029af0 f   libcurl:asyn-thread.obj
 0001:00028bb0       _Curl_set_dns_servers      10029bb0 f   libcurl:asyn-thread.obj
 0001:00028bb0       _Curl_set_dns_local_ip4    10029bb0 f   libcurl:asyn-thread.obj
 0001:00028bb0       _Curl_set_dns_interface    10029bb0 f   libcurl:asyn-thread.obj
 0001:00028bb0       _Curl_set_dns_local_ip6    10029bb0 f   libcurl:asyn-thread.obj
 0001:00028f70       _Curl_cache_addr           10029f70 f   libcurl:hostip.obj
 0001:00029030       _Curl_fetch_addr           1002a030 f   libcurl:hostip.obj
 0001:00029080       _Curl_global_host_cache_dtor 1002a080 f   libcurl:hostip.obj
 0001:000290b0       _Curl_global_host_cache_init 1002a0b0 f   libcurl:hostip.obj
 0001:00029100       _Curl_hostcache_clean      1002a100 f   libcurl:hostip.obj
 0001:00029140       _Curl_hostcache_prune      1002a140 f   libcurl:hostip.obj
 0001:000291d0       _Curl_loadhostpairs        1002a1d0 f   libcurl:hostip.obj
 0001:00029430       _Curl_mk_dnscache          1002a430 f   libcurl:hostip.obj
 0001:00029450       _Curl_num_addresses        1002a450 f   libcurl:hostip.obj
 0001:00029470       _Curl_printable_address    1002a470 f   libcurl:hostip.obj
 0001:000294a0       _Curl_resolv               1002a4a0 f   libcurl:hostip.obj
 0001:00029600       _Curl_resolv_timeout       1002a600 f   libcurl:hostip.obj
 0001:00029630       _Curl_resolv_unlock        1002a630 f   libcurl:hostip.obj
 0001:00029800       _Curl_clone_ssl_config     1002a800 f   libcurl:vtls.obj
 0001:00029910       _Curl_free_ssl_config      1002a910 f   libcurl:vtls.obj
 0001:00029980       _Curl_pin_peer_pubkey      1002a980 f   libcurl:vtls.obj
 0001:00029d20       _Curl_rand                 1002ad20 f   libcurl:vtls.obj
 0001:00029dc0       _Curl_ssl_addsessionid     1002adc0 f   libcurl:vtls.obj
 0001:00029fb0       _Curl_ssl_cert_status_request 1002afb0 f   libcurl:vtls.obj
 0001:00029fc0       _Curl_ssl_check_cxn        1002afc0 f   libcurl:vtls.obj
 0001:00029fd0       _Curl_ssl_cleanup          1002afd0 f   libcurl:vtls.obj
 0001:00029ff0       _Curl_ssl_close            1002aff0 f   libcurl:vtls.obj
 0001:0002a000       _Curl_ssl_close_all        1002b000 f   libcurl:vtls.obj
 0001:0002a0c0       _Curl_ssl_config_matches   1002b0c0 f   libcurl:vtls.obj
 0001:0002a140       _Curl_ssl_connect          1002b140 f   libcurl:vtls.obj
 0001:0002a1b0       _Curl_ssl_connect_nonblocking 1002b1b0 f   libcurl:vtls.obj
 0001:0002a220       _Curl_ssl_data_pending     1002b220 f   libcurl:vtls.obj
 0001:0002a230       _Curl_ssl_delsessionid     1002b230 f   libcurl:vtls.obj
 0001:0002a2b0       _Curl_ssl_free_certinfo    1002b2b0 f   libcurl:vtls.obj
 0001:0002a320       _Curl_ssl_getsessionid     1002b320 f   libcurl:vtls.obj
 0001:0002a490       _Curl_ssl_init             1002b490 f   libcurl:vtls.obj
 0001:0002a4b0       _Curl_ssl_init_certinfo    1002b4b0 f   libcurl:vtls.obj
 0001:0002a4f0       _Curl_ssl_initsessions     1002b4f0 f   libcurl:vtls.obj
 0001:0002a540       _Curl_ssl_md5sum           1002b540 f   libcurl:vtls.obj
 0001:0002a560       _Curl_ssl_push_certinfo    1002b560 f   libcurl:vtls.obj
 0001:0002a5a0       _Curl_ssl_push_certinfo_len 1002b5a0 f   libcurl:vtls.obj
 0001:0002a670       _Curl_ssl_sessionid_lock   1002b670 f   libcurl:vtls.obj
 0001:0002a690       _Curl_ssl_sessionid_unlock 1002b690 f   libcurl:vtls.obj
 0001:0002a6b0       _Curl_ssl_set_engine       1002b6b0 f   libcurl:vtls.obj
 0001:0002a6c0       _Curl_ssl_set_engine_default 1002b6c0 f   libcurl:vtls.obj
 0001:0002a6d0       _Curl_ssl_shutdown         1002b6d0 f   libcurl:vtls.obj
 0001:0002a730       _Curl_ssl_version          1002b730 f   libcurl:vtls.obj
 0001:0002b0a0       _Curl_close                1002c0a0 f   libcurl:url.obj
 0001:0002b2d0       _Curl_connect              1002c2d0 f   libcurl:url.obj
 0001:0002b360       _Curl_connected_proxy      1002c360 f   libcurl:url.obj
 0001:0002b490       _Curl_disconnect           1002c490 f   libcurl:url.obj
 0001:0002b570       _Curl_doing_getsock        1002c570 f   libcurl:url.obj
 0001:0002b590       _Curl_free_request_state   1002c590 f   libcurl:url.obj
 0001:0002b5d0       _Curl_freeset              1002c5d0 f   libcurl:url.obj
 0001:0002b660       _Curl_getoff_all_pipelines 1002c660 f   libcurl:url.obj
 0001:0002b730       _Curl_init_do              1002c730 f   libcurl:url.obj
 0001:0002b800       _Curl_init_userdefined     1002c800 f   libcurl:url.obj
 0001:0002b9b0       _Curl_oldest_idle_connection 1002c9b0 f   libcurl:url.obj
 0001:0002ba60       _Curl_open                 1002ca60 f   libcurl:url.obj
 0001:0002bb70       _Curl_protocol_connect     1002cb70 f   libcurl:url.obj
 0001:0002bc10       _Curl_protocol_connecting  1002cc10 f   libcurl:url.obj
 0001:0002bc50       _Curl_protocol_doing       1002cc50 f   libcurl:url.obj
 0001:0002bc90       _Curl_protocol_getsock     1002cc90 f   libcurl:url.obj
 0001:0002bcb0       _Curl_removeHandleFromPipeline 1002ccb0 f   libcurl:url.obj
 0001:0002bcf0       _Curl_setopt               1002ccf0 f   libcurl:url.obj
 0001:0002e360       _Curl_setup_conn           1002f360 f   libcurl:url.obj
 0001:0002e470       _Curl_verboseconnect       1002f470 f   libcurl:url.obj
 0001:00031820       _Curl_initinfo             10032820 f   libcurl:getinfo.obj
 0001:00031910       _Curl_poll                 10032910 f   libcurl:select.obj
 0001:00031cd0       _Curl_socket_check         10032cd0 f   libcurl:select.obj
 0001:00032040       _Curl_wait_ms              10033040 f   libcurl:select.obj
 0001:00032070       _Curl_client_chop_write    10033070 f   libcurl:sendf.obj
 0001:00032250       _Curl_client_write         10033250 f   libcurl:sendf.obj
 0001:00032280       _Curl_debug                10033280 f   libcurl:sendf.obj
 0001:00032370       _Curl_failf                10033370 f   libcurl:sendf.obj
 0001:00032440       _Curl_infof                10033440 f   libcurl:sendf.obj
 0001:00032520       _Curl_read                 10033520 f   libcurl:sendf.obj
 0001:00032660       _Curl_read_plain           10033660 f   libcurl:sendf.obj
 0001:000326a0       _Curl_recv_plain           100336a0 f   libcurl:sendf.obj
 0001:00032740       _Curl_send_plain           10033740 f   libcurl:sendf.obj
 0001:000327d0       _Curl_sendf                100337d0 f   libcurl:sendf.obj
 0001:00032970       _Curl_write                10033970 f   libcurl:sendf.obj
 0001:000329d0       _Curl_write_plain          100339d0 f   libcurl:sendf.obj
 0001:00032c20       _Curl_closesocket          10033c20 f   libcurl:connect.obj
 0001:00032c80       _Curl_conncontrol          10033c80 f   libcurl:connect.obj
 0001:00032ce0       _Curl_connecthost          10033ce0 f   libcurl:connect.obj
 0001:00032e40       _Curl_getconnectinfo       10033e40 f   libcurl:connect.obj
 0001:00032ef0       _Curl_is_connected         10033ef0 f   libcurl:connect.obj
 0001:00033320       _Curl_persistconninfo      10034320 f   libcurl:connect.obj
 0001:000333e0       _Curl_sndbufset            100343e0 f   libcurl:connect.obj
 0001:00033480       _Curl_socket               10034480 f   libcurl:connect.obj
 0001:00033550       _Curl_tcpnodelay           10034550 f   libcurl:connect.obj
 0001:000335b0       _Curl_timeleft             100345b0 f   libcurl:connect.obj
 0001:00033670       _Curl_updateconninfo       10034670 f   libcurl:connect.obj
 0001:00034280       _Curl_version_init         10035280 f   libcurl:version.obj
 0001:000342b0       _curl_version              100352b0 f   libcurl:version.obj
 0001:00034330       _Curl_fillreadbuffer       10035330 f   libcurl:transfer.obj
 0001:00034530       _Curl_follow               10035530 f   libcurl:transfer.obj
 0001:000347d0       _Curl_init_CONNECT         100357d0 f   libcurl:transfer.obj
 0001:000347f0       _Curl_meets_timecondition  100357f0 f   libcurl:transfer.obj
 0001:00034860       _Curl_pretransfer          10035860 f   libcurl:transfer.obj
 0001:000349e0       _Curl_readrewind           100359e0 f   libcurl:transfer.obj
 0001:00034ad0       _Curl_readwrite            10035ad0 f   libcurl:transfer.obj
 0001:00034de0       _Curl_retry_request        10035de0 f   libcurl:transfer.obj
 0001:00034ea0       _Curl_setup_transfer       10035ea0 f   libcurl:transfer.obj
 0001:00034fc0       _Curl_single_getsock       10035fc0 f   libcurl:transfer.obj
 0001:00035d90       _Curl_llist_alloc          10036d90 f   libcurl:llist.obj
 0001:00035dc0       _Curl_llist_destroy        10036dc0 f   libcurl:llist.obj
 0001:00035e60       _Curl_llist_insert_next    10036e60 f   libcurl:llist.obj
 0001:00035f00       _Curl_llist_move           10036f00 f   libcurl:llist.obj
 0001:00035fc0       _Curl_llist_remove         10036fc0 f   libcurl:llist.obj
 0001:00036040       _Curl_hash_add             10037040 f   libcurl:hash.obj
 0001:00036130       _Curl_hash_clean           10037130 f   libcurl:hash.obj
 0001:00036150       _Curl_hash_clean_with_criterium 10037150 f   libcurl:hash.obj
 0001:000361d0       _Curl_hash_delete          100371d0 f   libcurl:hash.obj
 0001:00036240       _Curl_hash_destroy         10037240 f   libcurl:hash.obj
 0001:00036290       _Curl_hash_init            10037290 f   libcurl:hash.obj
 0001:00036390       _Curl_hash_next_element    10037390 f   libcurl:hash.obj
 0001:00036400       _Curl_hash_pick            10037400 f   libcurl:hash.obj
 0001:00036460       _Curl_hash_start_iterate   10037460 f   libcurl:hash.obj
 0001:00036480       _Curl_hash_str             10037480 f   libcurl:hash.obj
 0001:000364d0       _Curl_str_key_compare      100374d0 f   libcurl:hash.obj
 0001:00036590       _Curl_addrinfo_callback    10037590 f   libcurl:hostasyn.obj
 0001:00036640       _Curl_async_resolved       10037640 f   libcurl:hostasyn.obj
 0001:00036680       _Curl_getaddrinfo          10037680 f   libcurl:hostasyn.obj
 0001:00036690       _Curl_splay                10037690 f   libcurl:splay.obj
 0001:00036790       _Curl_splaygetbest         10037790 f   libcurl:splay.obj
 0001:00036880       _Curl_splayinsert          10037880 f   libcurl:splay.obj
 0001:00036960       _Curl_splayremovebyaddr    10037960 f   libcurl:splay.obj
 0001:00036a50       _Curl_http                 10037a50 f   libcurl:http.obj
 0001:000380f0       _Curl_http_done            100390f0 f   libcurl:http.obj
 0001:00038210       _Curl_http_connect         10039210 f   libcurl:http.obj
 0001:00038280       _Curl_http_setup_conn      10039280 f   libcurl:http.obj
 0001:00038350       _Curl_add_buffer           10039350 f   libcurl:http.obj
 0001:00038420       _Curl_add_buffer_free      10039420 f   libcurl:http.obj
 0001:00038440       _Curl_add_buffer_init      10039440 f   libcurl:http.obj
 0001:00038450       _Curl_add_buffer_send      10039450 f   libcurl:http.obj
 0001:00038610       _Curl_add_bufferf          10039610 f   libcurl:http.obj
 0001:00038680       _Curl_add_custom_headers   10039680 f   libcurl:http.obj
 0001:000388b0       _Curl_add_timecondition    100398b0 f   libcurl:http.obj
 0001:000389d0       _Curl_checkProxyheaders    100399d0 f   libcurl:http.obj
 0001:00038a40       _Curl_checkheaders         10039a40 f   libcurl:http.obj
 0001:00038aa0       _Curl_compareheader        10039aa0 f   libcurl:http.obj
 0001:00038b70       _Curl_copy_header_value    10039b70 f   libcurl:http.obj
 0001:00038c40       _Curl_http_auth_act        10039c40 f   libcurl:http.obj
 0001:00038e00       _Curl_http_input_auth      10039e00 f   libcurl:http.obj
 0001:00038f80       _Curl_http_output_auth     10039f80 f   libcurl:http.obj
 0001:00039080       _Curl_http_readwrite_headers 1003a080 f   libcurl:http.obj
 0001:0003a850       _Curl_wildcard_dtor        1003b850 f   libcurl:wildcard.obj
 0001:0003a8d0       _Curl_wildcard_init        1003b8d0 f   libcurl:wildcard.obj
 0001:0003a900       _Curl_conncache_add_conn   1003b900 f   libcurl:conncache.obj
 0001:0003aa10       _Curl_conncache_destroy    1003ba10 f   libcurl:conncache.obj
 0001:0003aa30       _Curl_conncache_find_bundle 1003ba30 f   libcurl:conncache.obj
 0001:0003aab0       _Curl_conncache_find_first_connection 1003bab0 f   libcurl:conncache.obj
 0001:0003ab00       _Curl_conncache_foreach    1003bb00 f   libcurl:conncache.obj
 0001:0003ab80       _Curl_conncache_init       1003bb80 f   libcurl:conncache.obj
 0001:0003aba0       _Curl_conncache_remove_conn 1003bba0 f   libcurl:conncache.obj
 0001:0003ad80       _Curl_pgrsDone             1003bd80 f   libcurl:progress.obj
 0001:0003add0       _Curl_pgrsLimitWaitTime    1003bdd0 f   libcurl:progress.obj
 0001:0003ae50       _Curl_pgrsResetTimesSizes  1003be50 f   libcurl:progress.obj
 0001:0003aea0       _Curl_pgrsSetDownloadCounter 1003bea0 f   libcurl:progress.obj
 0001:0003af30       _Curl_pgrsSetDownloadSize  1003bf30 f   libcurl:progress.obj
 0001:0003af80       _Curl_pgrsSetUploadCounter 1003bf80 f   libcurl:progress.obj
 0001:0003b010       _Curl_pgrsSetUploadSize    1003c010 f   libcurl:progress.obj
 0001:0003b060       _Curl_pgrsStartNow         1003c060 f   libcurl:progress.obj
 0001:0003b0c0       _Curl_pgrsTime             1003c0c0 f   libcurl:progress.obj
 0001:0003b210       _Curl_pgrsUpdate           1003c210 f   libcurl:progress.obj
 0001:0003bdb0       _curlx_read                1003cdb0 f   libcurl:warnless.obj
 0001:0003bdc0       _curlx_uztosz              1003cdc0 f   libcurl:warnless.obj
 0001:0003bdc0       _curlx_sltosi              1003cdc0 f   libcurl:warnless.obj
 0001:0003bdc0       _curlx_uztosi              1003cdc0 f   libcurl:warnless.obj
 0001:0003bdd0       _curlx_sotouz              1003cdd0 f   libcurl:warnless.obj
 0001:0003bdd0       _curlx_uztoui              1003cdd0 f   libcurl:warnless.obj
 0001:0003bdd0       _Curl_tvlong               1003cdd0 f   libcurl:timeval.obj
 0001:0003bdd0       _curlx_sltoui              1003cdd0 f   libcurl:warnless.obj
 0001:0003bde0       _curlx_sltous              1003cde0 f   libcurl:warnless.obj
 0001:0003bde0       _curlx_ultous              1003cde0 f   libcurl:warnless.obj
 0001:0003bdf0       _curlx_ultouc              1003cdf0 f   libcurl:warnless.obj
 0001:0003be00       _curlx_write               1003ce00 f   libcurl:warnless.obj
 0001:0003be10       _Curl_speedcheck           1003ce10 f   libcurl:speedcheck.obj
 0001:0003bf00       _Curl_speedinit            1003cf00 f   libcurl:speedcheck.obj
 0001:0003bf10       _Curl_add_handle_to_pipeline 1003cf10 f   libcurl:pipeline.obj
 0001:0003bf70       _Curl_move_handle_from_send_to_recv_pipe 1003cf70 f   libcurl:pipeline.obj
 0001:0003bfd0       _Curl_pipeline_checkget_read 1003cfd0 f   libcurl:pipeline.obj
 0001:0003c010       _Curl_pipeline_checkget_write 1003d010 f   libcurl:pipeline.obj
 0001:0003c050       _Curl_pipeline_leave_read  1003d050 f   libcurl:pipeline.obj
 0001:0003c060       _Curl_pipeline_leave_write 1003d060 f   libcurl:pipeline.obj
 0001:0003c070       _Curl_pipeline_penalized   1003d070 f   libcurl:pipeline.obj
 0001:0003c160       _Curl_pipeline_server_blacklisted 1003d160 f   libcurl:pipeline.obj
 0001:0003c1e0       _Curl_pipeline_set_server_blacklist 1003d1e0 f   libcurl:pipeline.obj
 0001:0003c290       _Curl_pipeline_set_site_blacklist 1003d290 f   libcurl:pipeline.obj
 0001:0003c3c0       _Curl_pipeline_site_blacklisted 1003d3c0 f   libcurl:pipeline.obj
 0001:0003c440       _Curl_recvpipe_head        1003d440 f   libcurl:pipeline.obj
 0001:0003c470       _Curl_sendpipe_head        1003d470 f   libcurl:pipeline.obj
 0001:0003c4c0       _Curl_raw_toupper          1003d4c0 f   libcurl:strcase.obj
 0001:0003c4e0       _Curl_strcasecompare       1003d4e0 f   libcurl:strcase.obj
 0001:0003c540       _Curl_strncasecompare      1003d540 f   libcurl:strcase.obj
 0001:0003c5c0       _Curl_strntoupper          1003d5c0 f   libcurl:strcase.obj
 0001:0003c600       _curl_strnequal            1003d600 f   libcurl:strcase.obj
 0001:0003c610       _Curl_gmtime               1003d610 f   libcurl:parsedate.obj
 0001:0003c6b0       _curl_getdate              1003d6b0 f   libcurl:parsedate.obj
 0001:0003cda0       _Curl_strtok_r             1003dda0 f   libcurl:strtok.obj
 0001:0003ce20       _Curl_share_lock           1003de20 f   libcurl:share.obj
 0001:0003ce60       _Curl_share_unlock         1003de60 f   libcurl:share.obj
 0001:0003cea0       _Curl_memrchr              1003dea0 f   libcurl:curl_memrchr.obj
 0001:0003cec0       _Curl_inet_pton            1003dec0 f   libcurl:inet_pton.obj
 0001:0003d060       _curl_maprintf             1003e060 f   libcurl:mprintf.obj
 0001:0003d0f0       _curl_mfprintf             1003e0f0 f   libcurl:mprintf.obj
 0001:0003d110       _curl_msnprintf            1003e110 f   libcurl:mprintf.obj
 0001:0003d170       _curl_mvaprintf            1003e170 f   libcurl:mprintf.obj
 0001:0003d200       _curl_mvsnprintf           1003e200 f   libcurl:mprintf.obj
 0001:0003e410       _Curl_freeaddrinfo         1003f410 f   libcurl:curl_addrinfo.obj
 0001:0003e450       _Curl_getaddrinfo_ex       1003f450 f   libcurl:curl_addrinfo.obj
 0001:0003e5e0       _Curl_he2ai                1003f5e0 f   libcurl:curl_addrinfo.obj
 0001:0003e720       _Curl_ip2addr              1003f720 f   libcurl:curl_addrinfo.obj
 0001:0003e7d0       _Curl_str2addr             1003f7d0 f   libcurl:curl_addrinfo.obj
 0001:0003e810       _Curl_strerror             1003f810 f   libcurl:strerror.obj
 0001:0003e8f0       _curl_easy_strerror        1003f8f0 f   libcurl:strerror.obj
 0001:0003efc0       _Curl_thread_create        1003ffc0 f   libcurl:curl_threads.obj
 0001:0003eff0       _Curl_thread_destroy       1003fff0 f   libcurl:curl_threads.obj
 0001:0003f000       _Curl_thread_join          10040000 f   libcurl:curl_threads.obj
 0001:0003f030       _Curl_ipvalid              10040030 f   libcurl:hostip4.obj
 0001:0003f040       _Curl_inet_ntop            10040040 f   libcurl:inet_ntop.obj
 0001:0003f120       _Curl_ossl_check_cxn       10040120 f   libcurl:openssl.obj
 0001:0003f1b0       _Curl_ossl_cleanup         100401b0 f   libcurl:openssl.obj
 0001:0003f1d0       _Curl_ossl_close           100401d0 f   libcurl:openssl.obj
 0001:0003f230       _Curl_ossl_close_all       10040230 f   libcurl:openssl.obj
 0001:0003f240       _Curl_ossl_connect         10040240 f   libcurl:openssl.obj
 0001:0003f260       _Curl_ossl_connect_nonblocking 10040260 f   libcurl:openssl.obj
 0001:0003f280       _Curl_ossl_data_pending    10040280 f   libcurl:openssl.obj
 0001:0003f2b0       _Curl_ossl_init            100402b0 f   libcurl:openssl.obj
 0001:0003f2e0       _Curl_ossl_md5sum          100402e0 f   libcurl:openssl.obj
 0001:0003f330       _Curl_ossl_random          10040330 f   libcurl:openssl.obj
 0001:0003f380       _Curl_ossl_session_free    10040380 f   libcurl:openssl.obj
 0001:0003f390       _Curl_ossl_set_engine      10040390 f   libcurl:openssl.obj
 0001:0003f3b0       _Curl_ossl_sha256sum       100403b0 f   libcurl:openssl.obj
 0001:0003f410       _Curl_ossl_shutdown        10040410 f   libcurl:openssl.obj
 0001:0003f5a0       _Curl_ossl_version         100405a0 f   libcurl:openssl.obj
 0001:00042580       _Curl_base64_decode        10043580 f   libcurl:base64.obj
 0001:00042680       _Curl_base64_encode        10043680 f   libcurl:base64.obj
 0001:00044c20       _Curl_pop3_write           10045c20 f   libcurl:pop3.obj
 0001:00047ca0       _Curl_smtp_escape_eob      10048ca0 f   libcurl:smtp.obj
 0001:0004ba70       _Curl_GetFTPResponse       1004ca70 f   libcurl:ftp.obj
 0001:00051030       _Curl_rtsp_connisdead      10052030 f   libcurl:rtsp.obj
 0001:00051090       _Curl_rtsp_parseheader     10052090 f   libcurl:rtsp.obj
 0001:00052390       _curl_getenv               10053390 f   libcurl:getenv.obj
 0001:00052410       _Curl_parsenetrc           10053410 f   libcurl:netrc.obj
 0001:00052750       _Curl_urldecode            10053750 f   libcurl:escape.obj
 0001:00052860       _Curl_digest_cleanup       10053860 f   libcurl:http_digest.obj
 0001:00052890       _Curl_input_digest         10053890 f   libcurl:http_digest.obj
 0001:00052900       _Curl_output_digest        10053900 f   libcurl:http_digest.obj
 0001:00052a70       _Curl_http_ntlm_cleanup    10053a70 f   libcurl:http_ntlm.obj
 0001:00052aa0       _Curl_input_ntlm           10053aa0 f   libcurl:http_ntlm.obj
 0001:00052ba0       _Curl_output_ntlm          10053ba0 f   libcurl:http_ntlm.obj
 0001:00052d50       _Curl_SOCKS4               10053d50 f   libcurl:socks.obj
 0001:000531d0       _Curl_SOCKS5               100541d0 f   libcurl:socks.obj
 0001:00053900       _Curl_blockread_all        10054900 f   libcurl:socks.obj
 0001:000539b0       _Curl_proxyCONNECT         100549b0 f   libcurl:http_proxy.obj
 0001:00054450       _Curl_proxy_connect        10055450 f   libcurl:http_proxy.obj
 0001:00054510       _Curl_dedotdotify          10055510 f   libcurl:dotdot.obj
 0001:00054772       ___WSAFDIsSet@8            10055772 f   libcurl:WS2_32.dll
 0001:00054780       _curlx_nonblock            10055780 f   libcurl:nonblock.obj
 0001:000547b0       _Curl_load_library         100557b0 f   libcurl:system_win32.obj
 0001:00054900       _Curl_verify_windows_version 10055900 f   libcurl:system_win32.obj
 0001:00054a80       _Curl_chunked_strerror     10055a80 f   libcurl:http_chunks.obj
 0001:00054ae0       _Curl_httpchunk_init       10055ae0 f   libcurl:http_chunks.obj
 0001:00054b00       _Curl_httpchunk_read       10055b00 f   libcurl:http_chunks.obj
 0001:000551b0       _Curl_FormInit             100561b0 f   libcurl:formdata.obj
 0001:000551e0       _Curl_FormReader           100561e0 f   libcurl:formdata.obj
 0001:000552a0       _Curl_formclean            100562a0 f   libcurl:formdata.obj
 0001:000552e0       _Curl_formpostheader       100562e0 f   libcurl:formdata.obj
 0001:00055310       _Curl_getformdata          10056310 f   libcurl:formdata.obj
 0001:00055a50       _Curl_auth_create_digest_http_message 10056a50 f   libcurl:digest.obj
 0001:00055de0       _Curl_auth_create_digest_md5_message 10056de0 f   libcurl:digest.obj
 0001:000563a0       _Curl_auth_decode_digest_http_message 100573a0 f   libcurl:digest.obj
 0001:00056740       _Curl_auth_digest_cleanup  10057740 f   libcurl:digest.obj
 0001:000567c0       _Curl_auth_digest_get_pair 100577c0 f   libcurl:digest.obj
 0001:00056bb0       _Curl_auth_create_ntlm_type1_message 10057bb0 f   libcurl:ntlm.obj
 0001:00056c80       _Curl_auth_create_ntlm_type3_message 10057c80 f   libcurl:ntlm.obj
 0001:00057290       _Curl_auth_decode_ntlm_type2_message 10058290 f   libcurl:ntlm.obj
 0001:000573e0       _Curl_auth_ntlm_cleanup    100583e0 f   libcurl:ntlm.obj
 0001:000574e0       _Curl_fileinfo_alloc       100584e0 f   libcurl:fileinfo.obj
 0001:00057510       _Curl_fileinfo_dtor        10058510 f   libcurl:fileinfo.obj
 0001:000575c0       _sk_delete                 100585c0 f   libcurl:stack.obj
 0001:00057600       _sk_delete_ptr             10058600 f   libcurl:stack.obj
 0001:00057660       _sk_dup                    10058660 f   libcurl:stack.obj
 0001:000576f0       _sk_find                   100586f0 f   libcurl:stack.obj
 0001:00057710       _sk_free                   10058710 f   libcurl:stack.obj
 0001:00057740       _sk_insert                 10058740 f   libcurl:stack.obj
 0001:000577f0       _sk_is_sorted              100587f0 f   libcurl:stack.obj
 0001:00057810       _sk_new                    10058810 f   libcurl:stack.obj
 0001:000578a0       _sk_new_null               100588a0 f   libcurl:stack.obj
 0001:000578b0       _sk_num                    100588b0 f   libcurl:stack.obj
 0001:000578c0       _sk_pop                    100588c0 f   libcurl:stack.obj
 0001:000578e0       _sk_pop_free               100588e0 f   libcurl:stack.obj
 0001:00057930       _sk_push                   10058930 f   libcurl:stack.obj
 0001:00057950       _sk_set                    10058950 f   libcurl:stack.obj
 0001:00057980       _sk_set_cmp_func           10058980 f   libcurl:stack.obj
 0001:000579a0       _sk_shift                  100589a0 f   libcurl:stack.obj
 0001:000579e0       _sk_sort                   100589e0 f   libcurl:stack.obj
 0001:00057a10       _sk_value                  10058a10 f   libcurl:stack.obj
 0001:00057a30       _sk_zero                   10058a30 f   libcurl:stack.obj
 0001:00057a60       _SSLeay                    10058a60 f   libcurl:cversion.obj
 0001:00057ab0       _CRYPTO_free               10058ab0 f   libcurl:mem.obj
 0001:00057af0       _CRYPTO_free_locked        10058af0 f   libcurl:mem.obj
 0001:00057b30       _CRYPTO_malloc             10058b30 f   libcurl:mem.obj
 0001:00057bb0       _CRYPTO_realloc            10058bb0 f   libcurl:mem.obj
 0001:00057c30       _CRYPTO_realloc_clean      10058c30 f   libcurl:mem.obj
 0001:00057ce0       _BIO_callback_ctrl         10058ce0 f   libcurl:bio_lib.obj
 0001:00057d70       _BIO_clear_flags           10058d70 f   libcurl:bio_lib.obj
 0001:00057d80       _BIO_copy_next_retry       10058d80 f   libcurl:bio_lib.obj
 0001:00057da0       _BIO_ctrl                  10058da0 f   libcurl:bio_lib.obj
 0001:00057e30       _BIO_find_type             10058e30 f   libcurl:bio_lib.obj
 0001:00057e60       _BIO_free                  10058e60 f   libcurl:bio_lib.obj
 0001:00057ee0       _BIO_free_all              10058ee0 f   libcurl:bio_lib.obj
 0001:00057f70       _ENGINE_get_ECDSA          10058f70 f   libcurl:tb_ecdsa.obj
 0001:00057f70       _BIO_get_retry_reason      10058f70 f   libcurl:bio_lib.obj
 0001:00057f80       _BIO_gets                  10058f80 f   libcurl:bio_lib.obj
 0001:00058030       _BIO_indent                10059030 f   libcurl:bio_lib.obj
 0001:00058110       _BIO_int_ctrl              10059110 f   libcurl:bio_lib.obj
 0001:00058140       _BIO_new                   10059140 f   libcurl:bio_lib.obj
 0001:000581a0       _BIO_next                  100591a0 f   libcurl:bio_lib.obj
 0001:000581b0       _BIO_pop                   100591b0 f   libcurl:bio_lib.obj
 0001:00058200       _BIO_push                  10059200 f   libcurl:bio_lib.obj
 0001:00058250       _BIO_puts                  10059250 f   libcurl:bio_lib.obj
 0001:00058300       _BIO_read                  10059300 f   libcurl:bio_lib.obj
 0001:000583c0       _BIO_set                   100593c0 f   libcurl:bio_lib.obj
 0001:00058470       _BIO_set_flags             10059470 f   libcurl:bio_lib.obj
 0001:00058480       _BIO_test_flags            10059480 f   libcurl:bio_lib.obj
 0001:00058490       _BIO_write                 10059490 f   libcurl:bio_lib.obj
 0001:000589b0       _BIO_new_mem_buf           100599b0 f   libcurl:bss_mem.obj
 0001:00058a20       _BIO_s_mem                 10059a20 f   libcurl:bss_mem.obj
 0001:00058a30       _BIO_printf                10059a30 f   libcurl:b_print.obj
 0001:00058a50       _BIO_snprintf              10059a50 f   libcurl:b_print.obj
 0001:00058ac0       _BIO_vprintf               10059ac0 f   libcurl:b_print.obj
 0001:00059a40       _BN_bin2bn                 1005aa40 f   libcurl:bn_lib.obj
 0001:00059b30       _BN_bn2bin                 1005ab30 f   libcurl:bn_lib.obj
 0001:00059b90       _BN_clear_free             1005ab90 f   libcurl:bn_lib.obj
 0001:00059be0       _BN_cmp                    1005abe0 f   libcurl:bn_lib.obj
 0001:00059c80       _BN_consttime_swap         1005ac80 f   libcurl:bn_lib.obj
 0001:00059e20       _BN_copy                   1005ae20 f   libcurl:bn_lib.obj
 0001:00059ef0       _BN_dup                    1005aef0 f   libcurl:bn_lib.obj
 0001:00059f30       _BN_free                   1005af30 f   libcurl:bn_lib.obj
 0001:00059f70       _BN_init                   1005af70 f   libcurl:bn_lib.obj
 0001:00059f90       _BN_is_bit_set             1005af90 f   libcurl:bn_lib.obj
 0001:00059fd0       _BN_mask_bits              1005afd0 f   libcurl:bn_lib.obj
 0001:0005a050       _BN_new                    1005b050 f   libcurl:bn_lib.obj
 0001:0005a0b0       _BN_num_bits               1005b0b0 f   libcurl:bn_lib.obj
 0001:0005a120       _BN_num_bits_word          1005b120 f   libcurl:bn_lib.obj
 0001:0005a170       _BN_set_bit                1005b170 f   libcurl:bn_lib.obj
 0001:0005a200       _BN_set_negative           1005b200 f   libcurl:bn_lib.obj
 0001:0005a230       _BN_set_word               1005b230 f   libcurl:bn_lib.obj
 0001:0005a290       _BN_ucmp                   1005b290 f   libcurl:bn_lib.obj
 0001:0005a2d0       _BN_value_one              1005b2d0 f   libcurl:bn_lib.obj
 0001:0005a2e0       _bn_cmp_part_words         1005b2e0 f   libcurl:bn_lib.obj
 0001:0005a380       _bn_cmp_words              1005b380 f   libcurl:bn_lib.obj
 0001:0005a3d0       _bn_expand2                1005b3d0 f   libcurl:bn_lib.obj
 0001:0005a500       _BN_asc2bn                 1005b500 f   libcurl:bn_print.obj
 0001:0005a570       _BN_bn2dec                 1005b570 f   libcurl:bn_print.obj
 0001:0005a760       _BN_dec2bn                 1005b760 f   libcurl:bn_print.obj
 0001:0005a8f0       _BN_hex2bn                 1005b8f0 f   libcurl:bn_print.obj
 0001:0005aa90       _BN_print                  1005ba90 f   libcurl:bn_print.obj
 0001:0005ab40       _ASN1_STRING_clear_free    1005bb40 f   libcurl:asn1_lib.obj
 0001:0005ab90       _ASN1_STRING_cmp           1005bb90 f   libcurl:asn1_lib.obj
 0001:0005ac10       _ASN1_STRING_copy          1005bc10 f   libcurl:asn1_lib.obj
 0001:0005ac50       _ASN1_STRING_dup           1005bc50 f   libcurl:asn1_lib.obj
 0001:0005acb0       _ASN1_STRING_free          1005bcb0 f   libcurl:asn1_lib.obj
 0001:0005ace0       _ASN1_STRING_length        1005bce0 f   libcurl:asn1_lib.obj
 0001:0005ace0       _EVP_CIPHER_CTX_cipher     1005bce0 f   libcurl:evp_lib.obj
 0001:0005ace0       _EVP_MD_type               1005bce0 f   libcurl:evp_lib.obj
 0001:0005ace0       _EVP_CIPHER_nid            1005bce0 f   libcurl:evp_lib.obj
 0001:0005ace0       _EVP_PKEY_id               1005bce0 f   libcurl:p_lib.obj
 0001:0005ace0       _SSL_version               1005bce0 f   libcurl:ssl_lib.obj
 0001:0005ace0       _EC_GROUP_method_of        1005bce0 f   libcurl:ec_lib.obj
 0001:0005acf0       _ASN1_STRING_new           1005bcf0 f   libcurl:asn1_lib.obj
 0001:0005ad50       _ASN1_STRING_set           1005bd50 f   libcurl:asn1_lib.obj
 0001:0005ae10       _ASN1_STRING_set0          1005be10 f   libcurl:asn1_lib.obj
 0001:0005ae40       _ASN1_STRING_type_new      1005be40 f   libcurl:asn1_lib.obj
 0001:0005aea0       _ASN1_const_check_infinite_end 1005bea0 f   libcurl:asn1_lib.obj
 0001:0005aed0       _ASN1_get_object           1005bed0 f   libcurl:asn1_lib.obj
 0001:0005b000       _ASN1_object_size          1005c000 f   libcurl:asn1_lib.obj
 0001:0005b060       _ASN1_put_eoc              1005c060 f   libcurl:asn1_lib.obj
 0001:0005b080       _ASN1_put_object           1005c080 f   libcurl:asn1_lib.obj
 0001:0005b1b0       _asn1_GetSequence          1005c1b0 f   libcurl:asn1_lib.obj
 0001:0005b240       _asn1_add_error            1005c240 f   libcurl:asn1_lib.obj
 0001:0005b2b0       _asn1_const_Finish         1005c2b0 f   libcurl:asn1_lib.obj
 0001:0005b340       _ASN1_OBJECT_create        1005c340 f   libcurl:a_object.obj
 0001:0005b390       _ASN1_OBJECT_free          1005c390 f   libcurl:a_object.obj
 0001:0005b400       _ASN1_OBJECT_new           1005c400 f   libcurl:a_object.obj
 0001:0005b460       _a2d_ASN1_OBJECT           1005c460 f   libcurl:a_object.obj
 0001:0005b810       _c2i_ASN1_OBJECT           1005c810 f   libcurl:a_object.obj
 0001:0005b980       _d2i_ASN1_OBJECT           1005c980 f   libcurl:a_object.obj
 0001:0005ba20       _i2a_ASN1_OBJECT           1005ca20 f   libcurl:a_object.obj
 0001:0005bb30       _i2t_ASN1_OBJECT           1005cb30 f   libcurl:a_object.obj
 0001:0005bb50       _ASN1_INTEGER_cmp          1005cb50 f   libcurl:a_int.obj
 0001:0005bb90       _ASN1_INTEGER_get          1005cb90 f   libcurl:a_int.obj
 0001:0005bc00       _ASN1_INTEGER_set          1005cc00 f   libcurl:a_int.obj
 0001:0005bcf0       _ASN1_INTEGER_to_BN        1005ccf0 f   libcurl:a_int.obj
 0001:0005bd50       _BN_to_ASN1_INTEGER        1005cd50 f   libcurl:a_int.obj
 0001:0005be30       _c2i_ASN1_INTEGER          1005ce30 f   libcurl:a_int.obj
 0001:0005bfb0       _d2i_ASN1_UINTEGER         1005cfb0 f   libcurl:a_int.obj
 0001:0005c100       _i2c_ASN1_INTEGER          1005d100 f   libcurl:a_int.obj
 0001:0005c210       _ASN1_STRING_to_UTF8       1005d210 f   libcurl:a_strex.obj
 0001:0005c290       _X509_NAME_print_ex        1005d290 f   libcurl:a_strex.obj
 0001:0005cd70       _ASN1_GENERALIZEDTIME_print 1005dd70 f   libcurl:t_x509.obj
 0001:0005cf40       _ASN1_STRING_print         1005df40 f   libcurl:t_x509.obj
 0001:0005d000       _ASN1_TIME_print           1005e000 f   libcurl:t_x509.obj
 0001:0005d040       _ASN1_UTCTIME_print        1005e040 f   libcurl:t_x509.obj
 0001:0005d1c0       _X509_NAME_print           1005e1c0 f   libcurl:t_x509.obj
 0001:0005d2b0       _X509_signature_dump       1005e2b0 f   libcurl:t_x509.obj
 0001:0005d390       _OPENSSL_add_all_algorithms_noconf 1005e390 f   libcurl:c_all.obj
 0001:0005d3a0       _EVP_add_cipher            1005e3a0 f   libcurl:names.obj
 0001:0005d3f0       _EVP_add_digest            1005e3f0 f   libcurl:names.obj
 0001:0005d4a0       _EVP_cleanup               1005e4a0 f   libcurl:names.obj
 0001:0005d4e0       _EVP_get_cipherbyname      1005e4e0 f   libcurl:names.obj
 0001:0005d4f0       _EVP_get_digestbyname      1005e4f0 f   libcurl:names.obj
 0001:0005d500       _EVP_PKEY_assign           1005e500 f   libcurl:p_lib.obj
 0001:0005d540       _EVP_PKEY_bits             1005e540 f   libcurl:p_lib.obj
 0001:0005d560       _EVP_PKEY_cmp              1005e560 f   libcurl:p_lib.obj
 0001:0005d5b0       _EVP_PKEY_cmp_parameters   1005e5b0 f   libcurl:p_lib.obj
 0001:0005d5e0       _EVP_PKEY_copy_parameters  1005e5e0 f   libcurl:p_lib.obj
 0001:0005d660       _EVP_PKEY_free             1005e660 f   libcurl:p_lib.obj
 0001:0005d6e0       _EVP_PKEY_get_default_digest_nid 1005e6e0 f   libcurl:p_lib.obj
 0001:0005d710       _EVP_PKEY_missing_parameters 1005e710 f   libcurl:p_lib.obj
 0001:0005d730       _EVP_PKEY_new              1005e730 f   libcurl:p_lib.obj
 0001:0005d7a0       _EVP_PKEY_set_type         1005e7a0 f   libcurl:p_lib.obj
 0001:0005d7c0       _EVP_PKEY_size             1005e7c0 f   libcurl:p_lib.obj
 0001:0005d7e0       _EVP_PKEY_type             1005e7e0 f   libcurl:p_lib.obj
 0001:0005d930       _SHA224_Init               1005e930 f   libcurl:sha256.obj
 0001:0005d990       _SHA256_Final              1005e990 f   libcurl:sha256.obj
 0001:0005dc70       _SHA256_Init               1005ec70 f   libcurl:sha256.obj
 0001:0005dcd0       _SHA256_Transform          1005ecd0 f   libcurl:sha256.obj
 0001:0005dcf0       _SHA256_Update             1005ecf0 f   libcurl:sha256.obj
 0001:0005eec0       _X509_LOOKUP_ctrl          1005fec0 f   libcurl:x509_lu.obj
 0001:0005eef0       _X509_OBJECT_retrieve_match 1005fef0 f   libcurl:x509_lu.obj
 0001:0005efd0       _X509_OBJECT_up_ref_count  1005ffd0 f   libcurl:x509_lu.obj
 0001:0005f020       _X509_STORE_CTX_get1_issuer 10060020 f   libcurl:x509_lu.obj
 0001:0005f210       _X509_STORE_add_cert       10060210 f   libcurl:x509_lu.obj
 0001:0005f300       _X509_STORE_add_crl        10060300 f   libcurl:x509_lu.obj
 0001:0005f3f0       _X509_STORE_add_lookup     100603f0 f   libcurl:x509_lu.obj
 0001:0005f4c0       _X509_STORE_free           100604c0 f   libcurl:x509_lu.obj
 0001:0005f570       _X509_STORE_get1_certs     10060570 f   libcurl:x509_lu.obj
 0001:0005f720       _X509_STORE_get1_crls      10060720 f   libcurl:x509_lu.obj
 0001:0005f8a0       _X509_STORE_get_by_subject 100608a0 f   libcurl:x509_lu.obj
 0001:0005f9f0       _X509_STORE_new            100609f0 f   libcurl:x509_lu.obj
 0001:0005fac0       _X509_STORE_set_flags      10060ac0 f   libcurl:x509_lu.obj
 0001:0005fd40       _X509_LOOKUP_file          10060d40 f   libcurl:by_file.obj
 0001:0005fd50       _X509_load_cert_crl_file   10060d50 f   libcurl:by_file.obj
 0001:0005fe50       _X509_load_cert_file       10060e50 f   libcurl:by_file.obj
 0001:0005ffb0       _X509_load_crl_file        10060fb0 f   libcurl:by_file.obj
 0001:00060110       _X509_verify_cert_error_string 10061110 f   libcurl:x509_txt.obj
 0001:000603d0       _X509_PUBKEY_get           100613d0 f   libcurl:x_pubkey.obj
 0001:00060530       _X509_PUBKEY_get0_param    10061530 f   libcurl:x_pubkey.obj
 0001:00060570       _X509_PUBKEY_it            10061570 f   libcurl:x_pubkey.obj
 0001:00060580       _X509_PUBKEY_set0_param    10061580 f   libcurl:x_pubkey.obj
 0001:000605f0       _i2d_X509_PUBKEY           100615f0 f   libcurl:x_pubkey.obj
 0001:00060610       _X509_CINF_it              10061610 f   libcurl:x_x509.obj
 0001:00060720       _X509_free                 10061720 f   libcurl:x_x509.obj
 0001:00060740       _X509_it                   10061740 f   libcurl:x_x509.obj
 0001:00060750       _d2i_X509                  10061750 f   libcurl:x_x509.obj
 0001:00060770       _d2i_X509_AUX              10061770 f   libcurl:x_x509.obj
 0001:00060820       _i2d_X509                  10061820 f   libcurl:x_x509.obj
 0001:00060840       _X509_CRL_cmp              10061840 f   libcurl:x509_cmp.obj
 0001:00060860       _X509_CRL_match            10061860 f   libcurl:x509_cmp.obj
 0001:000608b0       _X509_NAME_cmp             100618b0 f   libcurl:x509_cmp.obj
 0001:00060970       _X509_NAME_hash            10061970 f   libcurl:x509_cmp.obj
 0001:00060a00       _X509_check_private_key    10061a00 f   libcurl:x509_cmp.obj
 0001:00060aa0       _X509_cmp                  10061aa0 f   libcurl:x509_cmp.obj
 0001:00060b90       _X509_find_by_subject      10061b90 f   libcurl:x509_cmp.obj
 0001:00060ca0       _X509_get0_pubkey_bitstr   10061ca0 f   libcurl:x509_cmp.obj
 0001:00060cc0       _X509_get_pubkey           10061cc0 f   libcurl:x509_cmp.obj
 0001:00060ce0       _X509_get_serialNumber     10061ce0 f   libcurl:x509_cmp.obj
 0001:00060ce0       _EVP_CIPHER_CTX_block_size 10061ce0 f   libcurl:evp_lib.obj
 0001:00060cf0       _X509_get_subject_name     10061cf0 f   libcurl:x509_cmp.obj
 0001:00060d00       _X509_subject_name_cmp     10061d00 f   libcurl:x509_cmp.obj
 0001:00060d20       _X509_NAME_ENTRY_create_by_OBJ 10061d20 f   libcurl:x509name.obj
 0001:00060dc0       _X509_NAME_ENTRY_create_by_txt 10061dc0 f   libcurl:x509name.obj
 0001:00060e30       _X509_NAME_ENTRY_set_data  10061e30 f   libcurl:x509name.obj
 0001:00060ef0       _X509_NAME_add_entry       10061ef0 f   libcurl:x509name.obj
 0001:00061010       _X509_NAME_add_entry_by_txt 10062010 f   libcurl:x509name.obj
 0001:00061060       _X509_NAME_delete_entry    10062060 f   libcurl:x509name.obj
 0001:00061100       _X509_NAME_entry_count     10062100 f   libcurl:x509name.obj
 0001:00061120       _X509_NAME_get_entry       10062120 f   libcurl:x509name.obj
 0001:00061150       _X509_NAME_get_index_by_NID 10062150 f   libcurl:x509name.obj
 0001:00061170       _X509_NAME_get_index_by_OBJ 10062170 f   libcurl:x509name.obj
 0001:000611d0       _X509_CRL_get_ext          100621d0 f   libcurl:x509_ext.obj
 0001:000611f0       _X509_CRL_get_ext_by_NID   100621f0 f   libcurl:x509_ext.obj
 0001:00061210       _X509_CRL_get_ext_d2i      10062210 f   libcurl:x509_ext.obj
 0001:00061230       _X509_REVOKED_get_ext_d2i  10062230 f   libcurl:x509_ext.obj
 0001:00061250       _X509_get_ext              10062250 f   libcurl:x509_ext.obj
 0001:00061270       _X509_get_ext_by_NID       10062270 f   libcurl:x509_ext.obj
 0001:00061290       _X509_get_ext_count        10062290 f   libcurl:x509_ext.obj
 0001:000612b0       _X509_get_ext_d2i          100622b0 f   libcurl:x509_ext.obj
 0001:000612d0       _X509_EXTENSION_get_critical 100622d0 f   libcurl:x509_v3.obj
 0001:000612f0       _X509v3_get_ext            100622f0 f   libcurl:x509_v3.obj
 0001:00061320       _X509v3_get_ext_by_NID     10062320 f   libcurl:x509_v3.obj
 0001:00061320       _X509at_get_attr_by_NID    10062320 f   libcurl:x509_att.obj
 0001:00061340       _X509v3_get_ext_count      10062340 f   libcurl:x509_v3.obj
 0001:00061360       _PEM_read_X509             10062360 f   libcurl:pem_x509.obj
 0001:00061390       _PEM_read_bio_X509         10062390 f   libcurl:pem_x509.obj
 0001:000613c0       _PEM_write_bio_X509        100623c0 f   libcurl:pem_x509.obj
 0001:000613f0       _ssl_undefined_function    100623f0 f   libcurl:ssl_lib.obj
 0001:00061410       _OBJ_bsearch_ssl_cipher_id 10062410 f   libcurl:ssl_lib.obj
 0001:00061430       _SSL_CTX_check_private_key 10062430 f   libcurl:ssl_lib.obj
 0001:000614a0       _SSL_CTX_ctrl              100624a0 f   libcurl:ssl_lib.obj
 0001:000616f0       _SSL_CTX_free              100626f0 f   libcurl:ssl_lib.obj
 0001:00061860       _SSL_CTX_load_verify_locations 10062860 f   libcurl:ssl_lib.obj
 0001:00061880       _SSL_CTX_new               10062880 f   libcurl:ssl_lib.obj
 0001:00061cf0       _SSL_CTX_set_cipher_list   10062cf0 f   libcurl:ssl_lib.obj
 0001:00061d50       _SSL_CTX_set_default_passwd_cb 10062d50 f   libcurl:ssl_lib.obj
 0001:00061d60       _SSL_CTX_set_default_passwd_cb_userdata 10062d60 f   libcurl:ssl_lib.obj
 0001:00061d70       _SSL_CTX_set_msg_callback  10062d70 f   libcurl:ssl_lib.obj
 0001:00061d80       _SSL_CTX_set_next_proto_select_cb 10062d80 f   libcurl:ssl_lib.obj
 0001:00061da0       _SSL_CTX_set_verify        10062da0 f   libcurl:ssl_lib.obj
 0001:00061dc0       _SSL_accept                10062dc0 f   libcurl:ssl_lib.obj
 0001:00061df0       _SSL_clear                 10062df0 f   libcurl:ssl_lib.obj
 0001:00061f70       _SSL_connect               10062f70 f   libcurl:ssl_lib.obj
 0001:00061fa0       _SSL_ctrl                  10062fa0 f   libcurl:ssl_lib.obj
 0001:00062120       _SSL_free                  10063120 f   libcurl:ssl_lib.obj
 0001:00062380       _SSL_get_certificate       10063380 f   libcurl:ssl_lib.obj
 0001:000623a0       _SSL_get_ciphers           100633a0 f   libcurl:ssl_lib.obj
 0001:000623d0       _SSL_get_current_cipher    100633d0 f   libcurl:ssl_lib.obj
 0001:000623f0       _SSL_get_default_timeout   100633f0 f   libcurl:ssl_lib.obj
 0001:00062400       _SSL_get_error             10063400 f   libcurl:ssl_lib.obj
 0001:00062530       _SSL_get_peer_cert_chain   10063530 f   libcurl:ssl_lib.obj
 0001:00062560       _SSL_get_peer_certificate  10063560 f   libcurl:ssl_lib.obj
 0001:000625a0       _SSL_get_privatekey        100635a0 f   libcurl:ssl_lib.obj
 0001:000625c0       _SSL_get_verify_result     100635c0 f   libcurl:ssl_lib.obj
 0001:000625d0       _SSL_has_matching_session_id 100635d0 f   libcurl:ssl_lib.obj
 0001:000626c0       _SSL_new                   100636c0 f   libcurl:ssl_lib.obj
 0001:00062980       _SSL_peek                  10063980 f   libcurl:ssl_lib.obj
 0001:000629d0       _SSL_pending               100639d0 f   libcurl:ssl_lib.obj
 0001:000629e0       _SSL_read                  100639e0 f   libcurl:ssl_lib.obj
 0001:00062a30       _SSL_set_accept_state      10063a30 f   libcurl:ssl_lib.obj
 0001:00062aa0       _SSL_set_bio               10063aa0 f   libcurl:ssl_lib.obj
 0001:00062b10       _SSL_set_connect_state     10063b10 f   libcurl:ssl_lib.obj
 0001:00062b80       _SSL_set_fd                10063b80 f   libcurl:ssl_lib.obj
 0001:00062be0       _SSL_set_ssl_method        10063be0 f   libcurl:ssl_lib.obj
 0001:00062c50       _SSL_shutdown              10063c50 f   libcurl:ssl_lib.obj
 0001:00062ca0       _EC_GROUP_get_asn1_flag    10063ca0 f   libcurl:ec_lib.obj
 0001:00062ca0       _SSL_state                 10063ca0 f   libcurl:ssl_lib.obj
 0001:00062cb0       _SSL_write                 10063cb0 f   libcurl:ssl_lib.obj
 0001:00062d50       _ssl_bytes_to_cipher_list  10063d50 f   libcurl:ssl_lib.obj
 0001:00062f70       _ssl_check_srvr_ecc_cert_and_alg 10063f70 f   libcurl:ssl_lib.obj
 0001:00063140       _ssl_cipher_list_to_bytes  10064140 f   libcurl:ssl_lib.obj
 0001:00063250       _ssl_cipher_ptr_id_cmp     10064250 f   libcurl:ssl_lib.obj
 0001:00063280       _ssl_clear_cipher_ctx      10064280 f   libcurl:ssl_lib.obj
 0001:00063320       _ssl_free_wbio_buffer      10064320 f   libcurl:ssl_lib.obj
 0001:00063360       _ssl_get_ciphers_by_id     10064360 f   libcurl:ssl_lib.obj
 0001:00063390       _ssl_get_server_send_cert  10064390 f   libcurl:ssl_lib.obj
 0001:000633b0       _ssl_get_server_send_pkey  100643b0 f   libcurl:ssl_lib.obj
 0001:000634b0       _ssl_get_sign_pkey         100644b0 f   libcurl:ssl_lib.obj
 0001:00063540       _ssl_init_wbio_buffer      10064540 f   libcurl:ssl_lib.obj
 0001:00063600       _ssl_replace_hash          10064600 f   libcurl:ssl_lib.obj
 0001:00063720       _ssl_set_cert_masks        10064720 f   libcurl:ssl_lib.obj
 0001:00063b40       _ssl_undefined_const_function 10064b40 f   libcurl:ssl_lib.obj
 0001:00063b60       _ssl_undefined_void_function 10064b60 f   libcurl:ssl_lib.obj
 0001:00063b80       _ssl_update_cache          10064b80 f   libcurl:ssl_lib.obj
 0001:00063c70       _SSL_CIPHER_get_name       10064c70 f   libcurl:ssl_ciph.obj
 0001:00063c90       _SSL_COMP_get_compression_methods 10064c90 f   libcurl:ssl_ciph.obj
 0001:00063e80       _ssl3_comp_find            10064e80 f   libcurl:ssl_ciph.obj
 0001:00064650       _ssl_cipher_get_evp        10065650 f   libcurl:ssl_ciph.obj
 0001:00064f40       _ssl_create_cipher_list    10065f40 f   libcurl:ssl_ciph.obj
 0001:00065680       _ssl_get_handshake_digest  10066680 f   libcurl:ssl_ciph.obj
 0001:000656c0       _ssl_load_ciphers          100666c0 f   libcurl:ssl_ciph.obj
 0001:000658a0       _SSL_CTX_use_PrivateKey    100668a0 f   libcurl:ssl_rsa.obj
 0001:00065910       _SSL_CTX_use_PrivateKey_file 10066910 f   libcurl:ssl_rsa.obj
 0001:00065a40       _SSL_CTX_use_certificate   10066a40 f   libcurl:ssl_rsa.obj
 0001:00065ab0       _SSL_CTX_use_certificate_chain_file 10066ab0 f   libcurl:ssl_rsa.obj
 0001:00065c60       _SSL_CTX_use_certificate_file 10066c60 f   libcurl:ssl_rsa.obj
 0001:00065d90       _SSL_use_PrivateKey        10066d90 f   libcurl:ssl_rsa.obj
 0001:00065e00       _SSL_use_certificate       10066e00 f   libcurl:ssl_rsa.obj
 0001:000660d0       _SSL_load_error_strings    100670d0 f   libcurl:ssl_err2.obj
 0001:000660e0       _SSL_CTX_add_session       100670e0 f   libcurl:ssl_sess.obj
 0001:00066230       _SSL_CTX_flush_sessions    10067230 f   libcurl:ssl_sess.obj
 0001:000662b0       _SSL_CTX_remove_session    100672b0 f   libcurl:ssl_sess.obj
 0001:000662d0       _SSL_SESSION_free          100672d0 f   libcurl:ssl_sess.obj
 0001:00066520       _SSL_SESSION_new           10067520 f   libcurl:ssl_sess.obj
 0001:00066620       _SSL_get1_session          10067620 f   libcurl:ssl_sess.obj
 0001:00066670       _SSL_set_session           10067670 f   libcurl:ssl_sess.obj
 0001:00066890       _ssl_clear_bad_session     10067890 f   libcurl:ssl_sess.obj
 0001:000668f0       _ssl_get_new_session       100678f0 f   libcurl:ssl_sess.obj
 0001:00066c50       _ssl_get_prev_session      10067c50 f   libcurl:ssl_sess.obj
 0001:00067040       _ssl_session_dup           10068040 f   libcurl:ssl_sess.obj
 0001:00067320       _ssl3_connect              10068320 f   libcurl:s3_clnt.obj
 0001:00067c40       _SSLv3_client_method       10068c40 f   libcurl:s3_clnt.obj
 0001:00067c70       _ssl3_check_cert_and_algorithm 10068c70 f   libcurl:s3_clnt.obj
 0001:00068120       _ssl3_client_hello         10069120 f   libcurl:s3_clnt.obj
 0001:00068370       _ssl3_get_cert_status      10069370 f   libcurl:s3_clnt.obj
 0001:000684d0       _ssl3_get_certificate_request 100694d0 f   libcurl:s3_clnt.obj
 0001:000689c0       _ssl3_get_key_exchange     100699c0 f   libcurl:s3_clnt.obj
 0001:000699e0       _ssl3_get_new_session_ticket 1006a9e0 f   libcurl:s3_clnt.obj
 0001:00069c10       _ssl3_get_server_certificate 1006ac10 f   libcurl:s3_clnt.obj
 0001:0006a090       _ssl3_get_server_done      1006b090 f   libcurl:s3_clnt.obj
 0001:0006a100       _ssl3_get_server_hello     1006b100 f   libcurl:s3_clnt.obj
 0001:0006a810       _ssl3_send_client_certificate 1006b810 f   libcurl:s3_clnt.obj
 0001:0006a9e0       _ssl3_send_client_key_exchange 1006b9e0 f   libcurl:s3_clnt.obj
 0001:0006b5a0       _ssl3_send_client_verify   1006c5a0 f   libcurl:s3_clnt.obj
 0001:0006b990       _ssl3_send_next_proto      1006c990 f   libcurl:s3_clnt.obj
 0001:0006ba40       _ssl_do_client_cert_cb     1006ca40 f   libcurl:s3_clnt.obj
 0001:0006baf0       _ssl23_connect             1006caf0 f   libcurl:s23_clnt.obj
 0001:0006bd60       _SSLv23_client_method      1006cd60 f   libcurl:s23_clnt.obj
 0001:0006c580       _ssl_fill_hello_random     1006d580 f   libcurl:s23_clnt.obj
 0001:0006c600       _SSL_library_init          1006d600 f   libcurl:ssl_algs.obj
 0001:0006c7b0       _Curl_cert_hostcheck       1006d7b0 f   libcurl:hostcheck.obj
 0001:0006c980       _RAND_add                  1006d980 f   libcurl:rand_lib.obj
 0001:0006ca00       _RAND_bytes                1006da00 f   libcurl:rand_lib.obj
 0001:0006ca60       _RAND_pseudo_bytes         1006da60 f   libcurl:rand_lib.obj
 0001:0006cac0       _RAND_seed                 1006dac0 f   libcurl:rand_lib.obj
 0001:0006cb10       _RAND_status               1006db10 f   libcurl:rand_lib.obj
 0001:0006cb70       _RAND_file_name            1006db70 f   libcurl:randfile.obj
 0001:0006cc40       _RAND_load_file            1006dc40 f   libcurl:randfile.obj
 0001:0006cd80       _CONF_get1_default_config_file 1006dd80 f   libcurl:conf_mod.obj
 0001:0006ce00       _CONF_module_add           1006de00 f   libcurl:conf_mod.obj
 0001:0006ce20       _CONF_modules_finish       1006de20 f   libcurl:conf_mod.obj
 0001:0006cea0       _CONF_modules_free         1006dea0 f   libcurl:conf_mod.obj
 0001:0006ceb0       _CONF_modules_load         1006deb0 f   libcurl:conf_mod.obj
 0001:0006cf60       _CONF_modules_load_file    1006df60 f   libcurl:conf_mod.obj
 0001:0006cff0       _CONF_modules_unload       1006dff0 f   libcurl:conf_mod.obj
 0001:0006d090       _CONF_parse_list           1006e090 f   libcurl:conf_mod.obj
 0001:0006d560       _OPENSSL_load_builtin_modules 1006e560 f   libcurl:conf_mall.obj
 0001:0006d570       _GENERAL_NAME_it           1006e570 f   libcurl:v3_genn.obj
 0001:0006d580       _OTHERNAME_it              1006e580 f   libcurl:v3_genn.obj
 0001:0006d590       _EDIPARTYNAME_it           1006e590 f   libcurl:v3_genn.obj
 0001:0006d5a0       _GENERAL_NAMES_free        1006e5a0 f   libcurl:v3_genn.obj
 0001:0006d5c0       _GENERAL_NAMES_it          1006e5c0 f   libcurl:v3_genn.obj
 0001:0006d5d0       _GENERAL_NAMES_new         1006e5d0 f   libcurl:v3_genn.obj
 0001:0006d5e0       _GENERAL_NAME_cmp          1006e5e0 f   libcurl:v3_genn.obj
 0001:0006d6b0       _GENERAL_NAME_free         1006e6b0 f   libcurl:v3_genn.obj
 0001:0006d6d0       _GENERAL_NAME_new          1006e6d0 f   libcurl:v3_genn.obj
 0001:0006d6e0       _OTHERNAME_cmp             1006e6e0 f   libcurl:v3_genn.obj
 0001:0006d720       _OTHERNAME_new             1006e720 f   libcurl:v3_genn.obj
 0001:0006d730       _X509V3_EXT_print          1006e730 f   libcurl:v3_prn.obj
 0001:0006d8b0       _X509V3_EXT_val_prn        1006e8b0 f   libcurl:v3_prn.obj
 0001:0006dd10       _X509_PURPOSE_get0         1006ed10 f   libcurl:v3_purp.obj
 0001:0006dd50       _X509_PURPOSE_get_by_id    1006ed50 f   libcurl:v3_purp.obj
 0001:0006dda0       _X509_check_akid           1006eda0 f   libcurl:v3_purp.obj
 0001:0006de60       _X509_check_ca             1006ee60 f   libcurl:v3_purp.obj
 0001:0006def0       _X509_check_issued         1006eef0 f   libcurl:v3_purp.obj
 0001:0006df80       _X509_check_purpose        1006ef80 f   libcurl:v3_purp.obj
 0001:0006ed30       _ERR_add_error_data        1006fd30 f   libcurl:err.obj
 0001:0006ed50       _ERR_add_error_vdata       1006fd50 f   libcurl:err.obj
 0001:0006ee80       _ERR_clear_error           1006fe80 f   libcurl:err.obj
 0001:0006ef00       _ERR_error_string          1006ff00 f   libcurl:err.obj
 0001:0006ef30       _ERR_error_string_n        1006ff30 f   libcurl:err.obj
 0001:0006f0a0       _ERR_free_strings          100700a0 f   libcurl:err.obj
 0001:0006f100       _ERR_func_error_string     10070100 f   libcurl:err.obj
 0001:0006f190       _ERR_get_error             10070190 f   libcurl:err.obj
 0001:0006f210       _ERR_get_error_line_data   10070210 f   libcurl:err.obj
 0001:0006f300       _ERR_get_state             10070300 f   libcurl:err.obj
 0001:0006f460       _ERR_lib_error_string      10070460 f   libcurl:err.obj
 0001:0006f4e0       _ERR_load_ERR_strings      100704e0 f   libcurl:err.obj
 0001:0006f5e0       _ERR_load_strings          100705e0 f   libcurl:err.obj
 0001:0006f5f0       _ERR_peek_error            100705f0 f   libcurl:err.obj
 0001:0006f620       _ERR_peek_last_error       10070620 f   libcurl:err.obj
 0001:0006f640       _ERR_pop_to_mark           10070640 f   libcurl:err.obj
 0001:0006f740       _ERR_put_error             10070740 f   libcurl:err.obj
 0001:0006f820       _ERR_reason_error_string   10070820 f   libcurl:err.obj
 0001:0006f8d0       _ERR_remove_thread_state   100708d0 f   libcurl:err.obj
 0001:0006f980       _ERR_set_mark              10070980 f   libcurl:err.obj
 0001:0006fb40       _MD5_Final                 10070b40 f   libcurl:md5_dgst.obj
 0001:0006fc60       _MD5_Init                  10070c60 f   libcurl:md5_dgst.obj
 0001:0006fc60       _MD4_Init                  10070c60 f   libcurl:md4_dgst.obj
 0001:0006fca0       _MD5_Transform             10070ca0 f   libcurl:md5_dgst.obj
 0001:0006fcc0       _MD5_Update                10070cc0 f   libcurl:md5_dgst.obj
 0001:0006fda0       _md5_block_data_order      10070da0 f   libcurl:md5_dgst.obj
 0001:000706c0       _OCSP_check_validity       100716c0 f   libcurl:ocsp_cl.obj
 0001:00070830       _OCSP_resp_count           10071830 f   libcurl:ocsp_cl.obj
 0001:00070850       _OCSP_resp_get0            10071850 f   libcurl:ocsp_cl.obj
 0001:00070870       _OCSP_response_get1_basic  10071870 f   libcurl:ocsp_cl.obj
 0001:000708e0       _OCSP_response_status      100718e0 f   libcurl:ocsp_cl.obj
 0001:000708f0       _OCSP_single_get0_status   100718f0 f   libcurl:ocsp_cl.obj
 0001:00070960       _OCSP_basic_add1_cert      10071960 f   libcurl:ocsp_srv.obj
 0001:000709c0       _OCSP_RESPID_it            100719c0 f   libcurl:ocsp_asn.obj
 0001:000709d0       _OCSP_SINGLERESP_it        100719d0 f   libcurl:ocsp_asn.obj
 0001:000709e0       _OCSP_CERTSTATUS_it        100719e0 f   libcurl:ocsp_asn.obj
 0001:000709f0       _OCSP_REVOKEDINFO_it       100719f0 f   libcurl:ocsp_asn.obj
 0001:00070a00       _OCSP_RESPDATA_it          10071a00 f   libcurl:ocsp_asn.obj
 0001:00070a10       _OCSP_RESPBYTES_it         10071a10 f   libcurl:ocsp_asn.obj
 0001:00070a20       _OCSP_ONEREQ_it            10071a20 f   libcurl:ocsp_asn.obj
 0001:00070a30       _OCSP_CERTID_it            10071a30 f   libcurl:ocsp_asn.obj
 0001:00070a40       _OCSP_SIGNATURE_it         10071a40 f   libcurl:ocsp_asn.obj
 0001:00070a50       _OCSP_REQINFO_it           10071a50 f   libcurl:ocsp_asn.obj
 0001:00070a60       _OCSP_BASICRESP_free       10071a60 f   libcurl:ocsp_asn.obj
 0001:00070a80       _OCSP_BASICRESP_it         10071a80 f   libcurl:ocsp_asn.obj
 0001:00070a90       _OCSP_CRLID_it             10071a90 f   libcurl:ocsp_asn.obj
 0001:00070aa0       _OCSP_RESPID_free          10071aa0 f   libcurl:ocsp_asn.obj
 0001:00070ac0       _OCSP_RESPONSE_free        10071ac0 f   libcurl:ocsp_asn.obj
 0001:00070ae0       _OCSP_SERVICELOC_it        10071ae0 f   libcurl:ocsp_asn.obj
 0001:00070af0       _d2i_OCSP_RESPID           10071af0 f   libcurl:ocsp_asn.obj
 0001:00070b10       _d2i_OCSP_RESPONSE         10071b10 f   libcurl:ocsp_asn.obj
 0001:00070b30       _i2d_OCSP_RESPID           10071b30 f   libcurl:ocsp_asn.obj
 0001:00070b50       _OCSP_cert_status_str      10071b50 f   libcurl:ocsp_prn.obj
 0001:00070b80       _OCSP_crl_reason_str       10071b80 f   libcurl:ocsp_prn.obj
 0001:00070bb0       _OCSP_response_status_str  10071bb0 f   libcurl:ocsp_prn.obj
 0001:00070be0       _OCSP_basic_verify         10071be0 f   libcurl:ocsp_vfy.obj
 0001:00071350       _Curl_pp_disconnect        10072350 f   libcurl:pingpong.obj
 0001:00071370       _Curl_pp_flushsend         10072370 f   libcurl:pingpong.obj
 0001:000713f0       _Curl_pp_getsock           100723f0 f   libcurl:pingpong.obj
 0001:00071420       _Curl_pp_init              10072420 f   libcurl:pingpong.obj
 0001:00071450       _Curl_pp_moredata          10072450 f   libcurl:pingpong.obj
 0001:00071480       _Curl_pp_readresp          10072480 f   libcurl:pingpong.obj
 0001:000716f0       _Curl_pp_sendf             100726f0 f   libcurl:pingpong.obj
 0001:00071710       _Curl_pp_state_timeout     10072710 f   libcurl:pingpong.obj
 0001:00071780       _Curl_pp_statemach         10072780 f   libcurl:pingpong.obj
 0001:000718a0       _Curl_pp_vsendf            100728a0 f   libcurl:pingpong.obj
 0001:000719d0       _Curl_sasl_can_authenticate 100729d0 f   libcurl:curl_sasl.obj
 0001:00071a00       _Curl_sasl_cleanup         10072a00 f   libcurl:curl_sasl.obj
 0001:00071a20       _Curl_sasl_continue        10072a20 f   libcurl:curl_sasl.obj
 0001:00071e50       _Curl_sasl_decode_mech     10072e50 f   libcurl:curl_sasl.obj
 0001:00071f50       _Curl_sasl_init            10072f50 f   libcurl:curl_sasl.obj
 0001:00071f90       _Curl_sasl_parse_url_auth_option 10072f90 f   libcurl:curl_sasl.obj
 0001:00072010       _Curl_sasl_start           10073010 f   libcurl:curl_sasl.obj
 0001:000723a0       _Curl_MD5_final            100733a0 f   libcurl:md5.obj
 0001:000723d0       _Curl_MD5_init             100733d0 f   libcurl:md5.obj
 0001:00072420       _Curl_MD5_update           10073420 f   libcurl:md5.obj
 0001:00072420       _Curl_HMAC_update          10073420 f   libcurl:hmac.obj
 0001:00072440       _Curl_md5it                10073440 f   libcurl:md5.obj
 0001:000724b0       _Curl_gethostname          100734b0 f   libcurl:curl_gethostname.obj
 0001:000724f0       _Curl_ftp_parselist        100734f0 f   libcurl:ftplistparser.obj
 0001:00073090       _Curl_ftp_parselist_data_alloc 10074090 f   libcurl:ftplistparser.obj
 0001:000730a0       _Curl_ftp_parselist_data_free 100740a0 f   libcurl:ftplistparser.obj
 0001:00073340       _Curl_ntlm_core_lm_resp    10074340 f   libcurl:curl_ntlm_core.obj
 0001:00073450       _Curl_ntlm_core_mk_lm_hash 10074450 f   libcurl:curl_ntlm_core.obj
 0001:00073590       _Curl_ntlm_core_mk_lmv2_resp 10074590 f   libcurl:curl_ntlm_core.obj
 0001:00073640       _Curl_ntlm_core_mk_nt_hash 10074640 f   libcurl:curl_ntlm_core.obj
 0001:00073710       _Curl_ntlm_core_mk_ntlmv2_hash 10074710 f   libcurl:curl_ntlm_core.obj
 0001:000737f0       _Curl_ntlm_core_mk_ntlmv2_resp 100747f0 f   libcurl:curl_ntlm_core.obj
 0001:000739e0       _Curl_read16_be            100749e0 f   libcurl:curl_endian.obj
 0001:00073a00       _Curl_read16_le            10074a00 f   libcurl:curl_endian.obj
 0001:00073a20       _Curl_read32_le            10074a20 f   libcurl:curl_endian.obj
 0001:00073a50       _Curl_write64_le           10074a50 f   libcurl:curl_endian.obj
 0001:00073aa0       _Curl_auth_build_spn       10074aa0 f   libcurl:vauth.obj
 0001:00073b00       _OBJ_add_object            10074b00 f   libcurl:obj_dat.obj
 0001:00073ca0       _OBJ_bsearch_              10074ca0 f   libcurl:obj_dat.obj
 0001:00073cc0       _OBJ_bsearch_ex_           10074cc0 f   libcurl:obj_dat.obj
 0001:00073d80       _OBJ_cleanup               10074d80 f   libcurl:obj_dat.obj
 0001:00073df0       _OBJ_create                10074df0 f   libcurl:obj_dat.obj
 0001:00073eb0       _OBJ_ln2nid                10074eb0 f   libcurl:obj_dat.obj
 0001:00073f90       _OBJ_nid2ln                10074f90 f   libcurl:obj_dat.obj
 0001:00074030       _OBJ_nid2obj               10075030 f   libcurl:obj_dat.obj
 0001:000740c0       _OBJ_nid2sn                100750c0 f   libcurl:obj_dat.obj
 0001:00074150       _OBJ_obj2nid               10075150 f   libcurl:obj_dat.obj
 0001:00074210       _OBJ_obj2txt               10075210 f   libcurl:obj_dat.obj
 0001:00074550       _OBJ_sn2nid                10075550 f   libcurl:obj_dat.obj
 0001:00074630       _OBJ_txt2obj               10075630 f   libcurl:obj_dat.obj
 0001:000748f0       _check_defer               100758f0 f   libcurl:obj_dat.obj
 0001:000749f0       _OPENSSL_cleanse           100759f0 f   libcurl:mem_clr.obj
 0001:00074a50       _OPENSSL_init              10075a50 f   libcurl:o_init.obj
 0001:00074f30       _CRYPTO_dup_ex_data        10075f30 f   libcurl:ex_data.obj
 0001:00074f90       _CRYPTO_free_ex_data       10075f90 f   libcurl:ex_data.obj
 0001:00075000       _CRYPTO_get_ex_new_index   10076000 f   libcurl:ex_data.obj
 0001:00075060       _CRYPTO_new_ex_data        10076060 f   libcurl:ex_data.obj
 0001:000750c0       _CRYPTO_set_ex_data        100760c0 f   libcurl:ex_data.obj
 0001:00075280       _policy_node_free          10076280 f   libcurl:pcy_node.obj
 0001:000753d0       _CRYPTO_THREADID_cmp       100763d0 f   libcurl:cryptlib.obj
 0001:00075420       _CRYPTO_THREADID_cpy       10076420 f   libcurl:cryptlib.obj
 0001:00075440       _CRYPTO_THREADID_current   10076440 f   libcurl:cryptlib.obj
 0001:00075480       _CRYPTO_add_lock           10076480 f   libcurl:cryptlib.obj
 0001:000754d0       _CRYPTO_destroy_dynlockid  100764d0 f   libcurl:cryptlib.obj
 0001:000755a0       _CRYPTO_get_dynlock_value  100765a0 f   libcurl:cryptlib.obj
 0001:00075620       _CRYPTO_lock               10076620 f   libcurl:cryptlib.obj
 0001:00075690       _CRYPTO_memcmp             10076690 f   libcurl:cryptlib.obj
 0001:000756c0       _OPENSSL_isservice         100766c0 f   libcurl:cryptlib.obj
 0001:00075800       _OPENSSL_showfatal         10076800 f   libcurl:cryptlib.obj
 0001:00075920       _OpenSSLDie                10076920 f   libcurl:cryptlib.obj
 0001:00075950       _BUF_MEM_free              10076950 f   libcurl:buffer.obj
 0001:00075980       _BUF_MEM_grow              10076980 f   libcurl:buffer.obj
 0001:00075a60       _BUF_MEM_grow_clean        10076a60 f   libcurl:buffer.obj
 0001:00075b60       _BUF_MEM_new               10076b60 f   libcurl:buffer.obj
 0001:00075bb0       _CRYPTO_is_mem_check_on    10076bb0 f   libcurl:mem_dbg.obj
 0001:00075c30       _CRYPTO_mem_ctrl           10076c30 f   libcurl:mem_dbg.obj
 0001:00075da0       _CRYPTO_pop_info           10076da0 f   libcurl:mem_dbg.obj
 0001:00075ef0       _CRYPTO_push_info_         10076ef0 f   libcurl:mem_dbg.obj
 0001:00076640       _BIO_new_file              10077640 f   libcurl:bss_file.obj
 0001:00076720       _BIO_s_file                10077720 f   libcurl:bss_file.obj
 0001:000768b0       _BN_add_word               100778b0 f   libcurl:bn_word.obj
 0001:00076960       _BN_div_word               10077960 f   libcurl:bn_word.obj
 0001:00076a20       _BN_mod_word               10077a20 f   libcurl:bn_word.obj
 0001:00076a90       _BN_mul_word               10077a90 f   libcurl:bn_word.obj
 0001:00076b00       _BN_sub_word               10077b00 f   libcurl:bn_word.obj
 0001:00076bc0       _OBJ_cmp                   10077bc0 f   libcurl:obj_lib.obj
 0001:00076c30       _OBJ_dup                   10077c30 f   libcurl:obj_lib.obj
 0001:00076dc0       _ASN1_ANY_it               10077dc0 f   libcurl:tasn_typ.obj
 0001:00076dd0       _ASN1_BIT_STRING_free      10077dd0 f   libcurl:tasn_typ.obj
 0001:00076df0       _ASN1_BIT_STRING_it        10077df0 f   libcurl:tasn_typ.obj
 0001:00076e00       _ASN1_BIT_STRING_new       10077e00 f   libcurl:tasn_typ.obj
 0001:00076e10       _ASN1_BOOLEAN_it           10077e10 f   libcurl:tasn_typ.obj
 0001:00076e20       _ASN1_ENUMERATED_free      10077e20 f   libcurl:tasn_typ.obj
 0001:00076e40       _ASN1_ENUMERATED_it        10077e40 f   libcurl:tasn_typ.obj
 0001:00076e50       _ASN1_FBOOLEAN_it          10077e50 f   libcurl:tasn_typ.obj
 0001:00076e60       _ASN1_GENERALIZEDTIME_it   10077e60 f   libcurl:tasn_typ.obj
 0001:00076e70       _ASN1_IA5STRING_it         10077e70 f   libcurl:tasn_typ.obj
 0001:00076e80       _ASN1_INTEGER_free         10077e80 f   libcurl:tasn_typ.obj
 0001:00076ea0       _ASN1_INTEGER_it           10077ea0 f   libcurl:tasn_typ.obj
 0001:00076eb0       _ASN1_INTEGER_new          10077eb0 f   libcurl:tasn_typ.obj
 0001:00076ec0       _ASN1_NULL_it              10077ec0 f   libcurl:tasn_typ.obj
 0001:00076ed0       _ASN1_NULL_new             10077ed0 f   libcurl:tasn_typ.obj
 0001:00076ee0       _ASN1_OBJECT_it            10077ee0 f   libcurl:tasn_typ.obj
 0001:00076ef0       _ASN1_OCTET_STRING_NDEF_it 10077ef0 f   libcurl:tasn_typ.obj
 0001:00076f00       _ASN1_OCTET_STRING_free    10077f00 f   libcurl:tasn_typ.obj
 0001:00076f20       _ASN1_OCTET_STRING_it      10077f20 f   libcurl:tasn_typ.obj
 0001:00076f30       _ASN1_OCTET_STRING_new     10077f30 f   libcurl:tasn_typ.obj
 0001:00076f40       _ASN1_PRINTABLE_it         10077f40 f   libcurl:tasn_typ.obj
 0001:00076f50       _ASN1_SEQUENCE_it          10077f50 f   libcurl:tasn_typ.obj
 0001:00076f60       _ASN1_TYPE_free            10077f60 f   libcurl:tasn_typ.obj
 0001:00076f80       _ASN1_TYPE_new             10077f80 f   libcurl:tasn_typ.obj
 0001:00076f90       _ASN1_UTF8STRING_it        10077f90 f   libcurl:tasn_typ.obj
 0001:00076fa0       _DIRECTORYSTRING_it        10077fa0 f   libcurl:tasn_typ.obj
 0001:00076fb0       _DISPLAYTEXT_it            10077fb0 f   libcurl:tasn_typ.obj
 0001:00076fc0       _d2i_ASN1_ENUMERATED       10077fc0 f   libcurl:tasn_typ.obj
 0001:00076fe0       _d2i_ASN1_INTEGER          10077fe0 f   libcurl:tasn_typ.obj
 0001:00077000       _d2i_ASN1_OCTET_STRING     10078000 f   libcurl:tasn_typ.obj
 0001:00077020       _d2i_ASN1_SEQUENCE_ANY     10078020 f   libcurl:tasn_typ.obj
 0001:00077040       _d2i_ASN1_TYPE             10078040 f   libcurl:tasn_typ.obj
 0001:00077060       _i2d_ASN1_BIT_STRING       10078060 f   libcurl:tasn_typ.obj
 0001:00077080       _i2d_ASN1_INTEGER          10078080 f   libcurl:tasn_typ.obj
 0001:000770a0       _i2d_ASN1_OCTET_STRING     100780a0 f   libcurl:tasn_typ.obj
 0001:000770c0       _i2d_ASN1_SEQUENCE_ANY     100780c0 f   libcurl:tasn_typ.obj
 0001:000770e0       _i2d_ASN1_SET_ANY          100780e0 f   libcurl:tasn_typ.obj
 0001:00077100       _i2d_ASN1_TYPE             10078100 f   libcurl:tasn_typ.obj
 0001:00077120       _UTF8_getc                 10078120 f   libcurl:a_utf8.obj
 0001:000773e0       _UTF8_putc                 100783e0 f   libcurl:a_utf8.obj
 0001:00077560       _ASN1_parse_dump           10078560 f   libcurl:asn1_par.obj
 0001:00077590       _ASN1_tag2str              10078590 f   libcurl:asn1_par.obj
 0001:00077e50       _ASN1_mbstring_copy        10078e50 f   libcurl:a_mbstr.obj
 0001:00077e90       _ASN1_mbstring_ncopy       10078e90 f   libcurl:a_mbstr.obj
 0001:00078510       _ERR_print_errors_cb       10079510 f   libcurl:err_prn.obj
 0001:00078620       _OBJ_find_sigid_algs       10079620 f   libcurl:obj_xref.obj
 0001:000786e0       _OBJ_find_sigid_by_algs    100796e0 f   libcurl:obj_xref.obj
 0001:000787a0       _OBJ_sigid_free            100797a0 f   libcurl:obj_xref.obj
 0001:00078800       _EVP_Digest                10079800 f   libcurl:digest.obj
 0001:000788a0       _EVP_DigestFinal           100798a0 f   libcurl:digest.obj
 0001:000788d0       _EVP_DigestFinal_ex        100798d0 f   libcurl:digest.obj
 0001:00078950       _EVP_DigestInit            10079950 f   libcurl:digest.obj
 0001:00078970       _EVP_DigestInit_ex         10079970 f   libcurl:digest.obj
 0001:00078b20       _EVP_DigestUpdate          10079b20 f   libcurl:digest.obj
 0001:00078b30       _EVP_MD_CTX_cleanup        10079b30 f   libcurl:digest.obj
 0001:00078bd0       _EVP_MD_CTX_copy           10079bd0 f   libcurl:digest.obj
 0001:00078bf0       _EVP_MD_CTX_copy_ex        10079bf0 f   libcurl:digest.obj
 0001:00078d40       _EVP_MD_CTX_create         10079d40 f   libcurl:digest.obj
 0001:00078d70       _EVP_MD_CTX_destroy        10079d70 f   libcurl:digest.obj
 0001:00078d90       _EVP_MD_CTX_init           10079d90 f   libcurl:digest.obj
 0001:00078e80       _EVP_sha1                  10079e80 f   libcurl:m_sha1.obj
 0001:00078e90       _EVP_sha224                10079e90 f   libcurl:m_sha1.obj
 0001:00078ea0       _EVP_sha256                10079ea0 f   libcurl:m_sha1.obj
 0001:00078eb0       _EVP_sha384                10079eb0 f   libcurl:m_sha1.obj
 0001:00078ec0       _EVP_sha512                10079ec0 f   libcurl:m_sha1.obj
 0001:00078ed0       _EVP_PKEY_asn1_find        10079ed0 f   libcurl:ameth_lib.obj
 0001:00078fa0       _EVP_PKEY_asn1_find_str    10079fa0 f   libcurl:ameth_lib.obj
 0001:000790a0       _EVP_PKEY_asn1_free        1007a0a0 f   libcurl:ameth_lib.obj
 0001:000790e0       _EVP_PKEY_asn1_get0_info   1007a0e0 f   libcurl:ameth_lib.obj
 0001:00079160       _X509_NAME_ENTRY_it        1007a160 f   libcurl:x_name.obj
 0001:00079470       _X509_NAME_ENTRIES_it      1007a470 f   libcurl:x_name.obj
 0001:00079480       _X509_NAME_ENTRY_dup       1007a480 f   libcurl:x_name.obj
 0001:000794a0       _X509_NAME_ENTRY_free      1007a4a0 f   libcurl:x_name.obj
 0001:000794c0       _X509_NAME_ENTRY_new       1007a4c0 f   libcurl:x_name.obj
 0001:000794d0       _X509_NAME_dup             1007a4d0 f   libcurl:x_name.obj
 0001:000794f0       _X509_NAME_free            1007a4f0 f   libcurl:x_name.obj
 0001:00079510       _X509_NAME_it              1007a510 f   libcurl:x_name.obj
 0001:00079520       _X509_NAME_new             1007a520 f   libcurl:x_name.obj
 0001:00079650       _d2i_X509_NAME             1007a650 f   libcurl:x_name.obj
 0001:00079670       _i2d_X509_NAME             1007a670 f   libcurl:x_name.obj
 0001:000799f0       _X509_NAME_oneline         1007a9f0 f   libcurl:x509_obj.obj
 0001:00079d70       _OpenSSL_add_all_ciphers   1007ad70 f   libcurl:c_allc.obj
 0001:0007a3d0       _OpenSSL_add_all_digests   1007b3d0 f   libcurl:c_alld.obj
 0001:0007a530       _OBJ_NAME_add              1007b530 f   libcurl:o_names.obj
 0001:0007a620       _OBJ_NAME_cleanup          1007b620 f   libcurl:o_names.obj
 0001:0007a6a0       _OBJ_NAME_get              1007b6a0 f   libcurl:o_names.obj
 0001:0007a750       _OBJ_NAME_init             1007b750 f   libcurl:o_names.obj
 0001:0007a790       _OBJ_NAME_remove           1007b790 f   libcurl:o_names.obj
 0001:0007a950       _EVP_PBE_CipherInit        1007b950 f   libcurl:evp_pbe.obj
 0001:0007ab40       _EVP_PBE_cleanup           1007bb40 f   libcurl:evp_pbe.obj
 0001:0007ab60       _EVP_PBE_find              1007bb60 f   libcurl:evp_pbe.obj
 0001:0007ac30       _EC_KEY_copy               1007bc30 f   libcurl:ec_key.obj
 0001:0007ad80       _EC_KEY_dup                1007bd80 f   libcurl:ec_key.obj
 0001:0007adb0       _EC_KEY_free               1007bdb0 f   libcurl:ec_key.obj
 0001:0007ae20       _EC_KEY_generate_key       1007be20 f   libcurl:ec_key.obj
 0001:0007af50       _EC_KEY_get_key_method_data 1007bf50 f   libcurl:ec_key.obj
 0001:0007afa0       _EC_KEY_insert_key_method_data 1007bfa0 f   libcurl:ec_key.obj
 0001:0007b010       _EC_KEY_new                1007c010 f   libcurl:ec_key.obj
 0001:0007b080       _EC_KEY_set_enc_flags      1007c080 f   libcurl:ec_key.obj
 0001:0007b090       _EC_KEY_set_group          1007c090 f   libcurl:ec_key.obj
 0001:0007b0c0       _EC_KEY_set_private_key    1007c0c0 f   libcurl:ec_key.obj
 0001:0007b0f0       _EC_KEY_set_public_key     1007c0f0 f   libcurl:ec_key.obj
 0001:0007b130       _EC_KEY_up_ref             1007c130 f   libcurl:ec_key.obj
 0001:0007b160       _RSA_free                  1007c160 f   libcurl:rsa_lib.obj
 0001:0007b280       _RSA_new                   1007c280 f   libcurl:rsa_lib.obj
 0001:0007b290       _RSA_new_method            1007c290 f   libcurl:rsa_lib.obj
 0001:0007b460       _RSA_up_ref                1007c460 f   libcurl:rsa_lib.obj
 0001:0007b490       _DH_free                   1007c490 f   libcurl:dh_lib.obj
 0001:0007b580       _DH_new                    1007c580 f   libcurl:dh_lib.obj
 0001:0007b590       _DH_new_method             1007c590 f   libcurl:dh_lib.obj
 0001:0007b720       _DH_size                   1007c720 f   libcurl:dh_lib.obj
 0001:0007b740       _DSA_free                  1007c740 f   libcurl:dsa_lib.obj
 0001:0007b820       _DSA_new                   1007c820 f   libcurl:dsa_lib.obj
 0001:0007b830       _DSA_new_method            1007c830 f   libcurl:dsa_lib.obj
 0001:0007b9c0       _DSA_size                  1007c9c0 f   libcurl:dsa_lib.obj
 0001:0007ba20       _X509_ATTRIBUTE_SET_it     1007ca20 f   libcurl:x_attrib.obj
 0001:0007ba30       _X509_ATTRIBUTE_create     1007ca30 f   libcurl:x_attrib.obj
 0001:0007bac0       _X509_ATTRIBUTE_dup        1007cac0 f   libcurl:x_attrib.obj
 0001:0007bae0       _X509_ATTRIBUTE_free       1007cae0 f   libcurl:x_attrib.obj
 0001:0007bb00       _X509_ATTRIBUTE_it         1007cb00 f   libcurl:x_attrib.obj
 0001:0007bb10       _X509_ATTRIBUTE_new        1007cb10 f   libcurl:x_attrib.obj
 0001:0007bb20       _ENGINE_finish             1007cb20 f   libcurl:eng_init.obj
 0001:0007bc00       _ENGINE_init               1007cc00 f   libcurl:eng_init.obj
 0001:0007bc80       _engine_unlocked_finish    1007cc80 f   libcurl:eng_init.obj
 0001:0007bd10       _engine_unlocked_init      1007cd10 f   libcurl:eng_init.obj
 0001:0007bd40       _X509_VERIFY_PARAM_free    1007cd40 f   libcurl:x509_vpm.obj
 0001:0007bd60       _X509_VERIFY_PARAM_inherit 1007cd60 f   libcurl:x509_vpm.obj
 0001:0007be50       _X509_VERIFY_PARAM_lookup  1007ce50 f   libcurl:x509_vpm.obj
 0001:0007beb0       _X509_VERIFY_PARAM_new     1007ceb0 f   libcurl:x509_vpm.obj
 0001:0007bef0       _X509_VERIFY_PARAM_set1    1007cef0 f   libcurl:x509_vpm.obj
 0001:0007bf20       _X509_VERIFY_PARAM_set1_policies 1007cf20 f   libcurl:x509_vpm.obj
 0001:0007bfd0       _X509_VERIFY_PARAM_set_flags 1007cfd0 f   libcurl:x509_vpm.obj
 0001:0007c080       _X509_REVOKED_it           1007d080 f   libcurl:x_crl.obj
 0001:0007c090       _X509_CRL_INFO_it          1007d090 f   libcurl:x_crl.obj
 0001:0007c450       _X509_CRL_free             1007d450 f   libcurl:x_crl.obj
 0001:0007c470       _X509_CRL_get0_by_cert     1007d470 f   libcurl:x_crl.obj
 0001:0007c4b0       _X509_CRL_it               1007d4b0 f   libcurl:x_crl.obj
 0001:0007c4c0       _X509_CRL_verify           1007d4c0 f   libcurl:x_crl.obj
 0001:0007c670       _d2i_X509_CRL              1007d670 f   libcurl:x_crl.obj
 0001:0007c720       _X509_CRL_digest           1007d720 f   libcurl:x_all.obj
 0001:0007c740       _X509_NAME_digest          1007d740 f   libcurl:x_all.obj
 0001:0007c760       _X509_digest               1007d760 f   libcurl:x_all.obj
 0001:0007c780       _X509_pubkey_digest        1007d780 f   libcurl:x_all.obj
 0001:0007c7b0       _X509_verify               1007d7b0 f   libcurl:x_all.obj
 0001:0007c7f0       _d2i_PrivateKey_bio        1007d7f0 f   libcurl:x_all.obj
 0001:0007c810       _d2i_X509_CRL_bio          1007d810 f   libcurl:x_all.obj
 0001:0007c830       _d2i_X509_bio              1007d830 f   libcurl:x_all.obj
 0001:0007c850       _X509_get_default_cert_area 1007d850 f   libcurl:x509_def.obj
 0001:0007c860       _X509_get_default_cert_dir 1007d860 f   libcurl:x509_def.obj
 0001:0007c870       _X509_get_default_cert_dir_env 1007d870 f   libcurl:x509_def.obj
 0001:0007c880       _X509_get_default_cert_file 1007d880 f   libcurl:x509_def.obj
 0001:0007c890       _X509_get_default_cert_file_env 1007d890 f   libcurl:x509_def.obj
 0001:0007c8a0       _X509_INFO_free            1007d8a0 f   libcurl:x_info.obj
 0001:0007c910       _X509_INFO_new             1007d910 f   libcurl:x_info.obj
 0001:0007c980       _PEM_X509_INFO_read_bio    1007d980 f   libcurl:pem_info.obj
 0001:0007cf30       _PEM_read_bio_X509_AUX     1007df30 f   libcurl:pem_xaux.obj
 0001:0007cf60       _PEM_read_bio_X509_CRL     1007df60 f   libcurl:pem_all.obj
 0001:0007cf90       _X509_ALGOR_it             1007df90 f   libcurl:x_algor.obj
 0001:0007cfa0       _X509_ALGOR_cmp            1007dfa0 f   libcurl:x_algor.obj
 0001:0007cfe0       _X509_ALGOR_free           1007dfe0 f   libcurl:x_algor.obj
 0001:0007d000       _X509_ALGOR_get0           1007e000 f   libcurl:x_algor.obj
 0001:0007d040       _X509_ALGOR_new            1007e040 f   libcurl:x_algor.obj
 0001:0007d050       _X509_ALGOR_set0           1007e050 f   libcurl:x_algor.obj
 0001:0007d0d0       _X509_ALGOR_set_md         1007e0d0 f   libcurl:x_algor.obj
 0001:0007d110       _d2i_X509_ALGOR            1007e110 f   libcurl:x_algor.obj
 0001:0007d130       _ASN1_item_ex_new          1007e130 f   libcurl:tasn_new.obj
 0001:0007d150       _ASN1_item_new             1007e150 f   libcurl:tasn_new.obj
 0001:0007d190       _ASN1_primitive_new        1007e190 f   libcurl:tasn_new.obj
 0001:0007d290       _ASN1_template_new         1007e290 f   libcurl:tasn_new.obj
 0001:0007d640       _ASN1_item_ex_free         1007e640 f   libcurl:tasn_fre.obj
 0001:0007d660       _ASN1_item_free            1007e660 f   libcurl:tasn_fre.obj
 0001:0007d680       _ASN1_primitive_free       1007e680 f   libcurl:tasn_fre.obj
 0001:0007d760       _ASN1_template_free        1007e760 f   libcurl:tasn_fre.obj
 0001:0007d9d0       _ASN1_item_d2i             1007e9d0 f   libcurl:tasn_dec.obj
 0001:0007da50       _ASN1_item_ex_d2i          1007ea50 f   libcurl:tasn_dec.obj
 0001:0007e1f0       _ASN1_tag2bit              1007f1f0 f   libcurl:tasn_dec.obj
 0001:0007e9e0       _asn1_ex_c2i               1007f9e0 f   libcurl:tasn_dec.obj
 0001:0007f1e0       _ASN1_item_ex_i2d          100801e0 f   libcurl:tasn_enc.obj
 0001:0007f550       _ASN1_item_i2d             10080550 f   libcurl:tasn_enc.obj
 0001:0007f570       _asn1_ex_i2c               10080570 f   libcurl:tasn_enc.obj
 0001:0007fdd0       _X509_VAL_it               10080dd0 f   libcurl:x_val.obj
 0001:0007fde0       _X509_EXTENSION_it         10080de0 f   libcurl:x_exten.obj
 0001:0007fdf0       _X509_EXTENSION_free       10080df0 f   libcurl:x_exten.obj
 0001:0007fe10       _d2i_X509_EXTENSIONS       10080e10 f   libcurl:x_exten.obj
 0001:0007fe30       _i2d_X509_EXTENSIONS       10080e30 f   libcurl:x_exten.obj
 0001:0007fe50       _ASN1_item_dup             10080e50 f   libcurl:a_dup.obj
 0001:0007fed0       _X509_CERT_AUX_free        10080ed0 f   libcurl:x_x509a.obj
 0001:0007fef0       _d2i_X509_CERT_AUX         10080ef0 f   libcurl:x_x509a.obj
 0001:0007ff10       _AUTHORITY_KEYID_free      10080f10 f   libcurl:v3_akeya.obj
 0001:0007ff30       _AUTHORITY_KEYID_it        10080f30 f   libcurl:v3_akeya.obj
 0001:0007ff40       _AUTHORITY_KEYID_new       10080f40 f   libcurl:v3_akeya.obj
 0001:000801d0       _CRL_DIST_POINTS_it        100811d0 f   libcurl:v3_crld.obj
 0001:000801e0       _DIST_POINT_it             100811e0 f   libcurl:v3_crld.obj
 0001:00080510       _DIST_POINT_NAME_it        10081510 f   libcurl:v3_crld.obj
 0001:00080520       _ISSUING_DIST_POINT_it     10081520 f   libcurl:v3_crld.obj
 0001:00080530       _CRL_DIST_POINTS_free      10081530 f   libcurl:v3_crld.obj
 0001:00080550       _DIST_POINT_free           10081550 f   libcurl:v3_crld.obj
 0001:00080570       _DIST_POINT_set_dpname     10081570 f   libcurl:v3_crld.obj
 0001:00080620       _ISSUING_DIST_POINT_free   10081620 f   libcurl:v3_crld.obj
 0001:00080e60       _GENERAL_SUBTREE_it        10081e60 f   libcurl:v3_ncons.obj
 0001:00080e70       _NAME_CONSTRAINTS_it       10081e70 f   libcurl:v3_ncons.obj
 0001:00080e80       _NAME_CONSTRAINTS_check    10081e80 f   libcurl:v3_ncons.obj
 0001:00081090       _NAME_CONSTRAINTS_free     10082090 f   libcurl:v3_ncons.obj
 0001:00081730       _policy_cache_find_data    10082730 f   libcurl:pcy_cache.obj
 0001:00081780       _policy_cache_free         10082780 f   libcurl:pcy_cache.obj
 0001:00081970       _policy_cache_set          10082970 f   libcurl:pcy_cache.obj
 0001:00081a00       _EVP_CIPHER_CTX_flags      10082a00 f   libcurl:evp_lib.obj
 0001:00081a10       _EVP_CIPHER_CTX_iv_length  10082a10 f   libcurl:evp_lib.obj
 0001:00081a10       _X509_get_issuer_name      10082a10 f   libcurl:x509_cmp.obj
 0001:00081a20       _EVP_CIPHER_CTX_key_length 10082a20 f   libcurl:evp_lib.obj
 0001:00081a30       _EVP_CIPHER_asn1_to_param  10082a30 f   libcurl:evp_lib.obj
 0001:00081a70       _CRYPTO_THREADID_hash      10082a70 f   libcurl:cryptlib.obj
 0001:00081a70       _EC_KEY_get0_group         10082a70 f   libcurl:ec_key.obj
 0001:00081a70       _EVP_MD_pkey_type          10082a70 f   libcurl:evp_lib.obj
 0001:00081a70       _EC_METHOD_get_field_type  10082a70 f   libcurl:ec_lib.obj
 0001:00081a70       _EVP_CIPHER_block_size     10082a70 f   libcurl:evp_lib.obj
 0001:00081a70       _ASN1_STRING_type          10082a70 f   libcurl:asn1_lib.obj
 0001:00081a70       _EC_GROUP_get0_generator   10082a70 f   libcurl:ec_lib.obj
 0001:00081a80       _EVP_CIPHER_get_asn1_iv    10082a80 f   libcurl:evp_lib.obj
 0001:00081af0       _EVP_CIPHER_param_to_asn1  10082af0 f   libcurl:evp_lib.obj
 0001:00081b30       _EVP_CIPHER_set_asn1_iv    10082b30 f   libcurl:evp_lib.obj
 0001:00081b80       _EVP_CIPHER_type           10082b80 f   libcurl:evp_lib.obj
 0001:00081dd0       _EVP_Cipher                10082dd0 f   libcurl:evp_lib.obj
 0001:00081de0       _EVP_MD_CTX_clear_flags    10082de0 f   libcurl:evp_lib.obj
 0001:00081df0       _X509_NAME_ENTRY_get_object 10082df0 f   libcurl:x509name.obj
 0001:00081df0       _X509_EXTENSION_get_object 10082df0 f   libcurl:x509_v3.obj
 0001:00081df0       _EVP_MD_CTX_md             10082df0 f   libcurl:evp_lib.obj
 0001:00081df0       _UI_get_string_type        10082df0 f   libcurl:ui_lib.obj
 0001:00081e00       _EVP_MD_CTX_set_flags      10082e00 f   libcurl:evp_lib.obj
 0001:00081e10       _EVP_MD_CTX_test_flags     10082e10 f   libcurl:evp_lib.obj
 0001:00081e20       _EVP_MD_block_size         10082e20 f   libcurl:evp_lib.obj
 0001:00081e20       _EC_GROUP_get_seed_len     10082e20 f   libcurl:ec_lib.obj
 0001:00081e30       _EVP_MD_size               10082e30 f   libcurl:evp_lib.obj
 0001:00081eb0       _EVP_md5                   10082eb0 f   libcurl:m_md5.obj
 0001:00081ec0       _ASN1_PRINTABLE_type       10082ec0 f   libcurl:a_print.obj
 0001:00081f90       _ASN1_STRING_TABLE_get     10082f90 f   libcurl:a_strnid.obj
 0001:00082020       _ASN1_STRING_set_by_NID    10083020 f   libcurl:a_strnid.obj
 0001:000820b0       _X509V3_EXT_d2i            100830b0 f   libcurl:v3_lib.obj
 0001:00082120       _X509V3_EXT_get            10083120 f   libcurl:v3_lib.obj
 0001:00082140       _X509V3_EXT_get_nid        10083140 f   libcurl:v3_lib.obj
 0001:000821c0       _X509V3_get_d2i            100831c0 f   libcurl:v3_lib.obj
 0001:00082300       _PEM_ASN1_read_bio         10083300 f   libcurl:pem_oth.obj
 0001:00082390       _PEM_ASN1_read             10083390 f   libcurl:pem_lib.obj
 0001:00082400       _PEM_ASN1_write_bio        10083400 f   libcurl:pem_lib.obj
 0001:00082800       _PEM_bytes_read_bio        10083800 f   libcurl:pem_lib.obj
 0001:000829a0       _PEM_def_callback          100839a0 f   libcurl:pem_lib.obj
 0001:00082a70       _PEM_dek_info              10083a70 f   libcurl:pem_lib.obj
 0001:00082b20       _PEM_do_header             10083b20 f   libcurl:pem_lib.obj
 0001:00082d10       _PEM_get_EVP_CIPHER_INFO   10083d10 f   libcurl:pem_lib.obj
 0001:00082e90       _PEM_proc_type             10083e90 f   libcurl:pem_lib.obj
 0001:00082f00       _PEM_read_bio              10083f00 f   libcurl:pem_lib.obj
 0001:00083510       _PEM_write_bio             10084510 f   libcurl:pem_lib.obj
 0001:00083cf0       _pem_check_suffix          10084cf0 f   libcurl:pem_lib.obj
 0001:00083d70       _BUF_memdup                10084d70 f   libcurl:buf_str.obj
 0001:00083dd0       _BUF_strdup                10084dd0 f   libcurl:buf_str.obj
 0001:00083e00       _BUF_strlcat               10084e00 f   libcurl:buf_str.obj
 0001:00083e60       _BUF_strlcpy               10084e60 f   libcurl:buf_str.obj
 0001:00083ea0       _BUF_strndup               10084ea0 f   libcurl:buf_str.obj
 0001:00083f10       _COMP_CTX_free             10084f10 f   libcurl:comp_lib.obj
 0001:00083f40       _COMP_CTX_new              10084f40 f   libcurl:comp_lib.obj
 0001:00083fa0       _COMP_compress_block       10084fa0 f   libcurl:comp_lib.obj
 0001:00083fe0       _COMP_expand_block         10084fe0 f   libcurl:comp_lib.obj
 0001:00084270       _BIO_s_socket              10085270 f   libcurl:bss_sock.obj
 0001:00084280       _BIO_sock_non_fatal_error  10085280 f   libcurl:bss_sock.obj
 0001:00084c10       _BIO_f_buffer              10085c10 f   libcurl:bf_buff.obj
 0001:00084c20       _RSA_flags                 10085c20 f   libcurl:rsa_crpt.obj
 0001:00084c30       _RSA_private_decrypt       10085c30 f   libcurl:rsa_crpt.obj
 0001:00084c40       _RSA_private_encrypt       10085c40 f   libcurl:rsa_crpt.obj
 0001:00084c50       _RSA_public_decrypt        10085c50 f   libcurl:rsa_crpt.obj
 0001:00084c60       _RSA_public_encrypt        10085c60 f   libcurl:rsa_crpt.obj
 0001:00084c70       _RSA_setup_blinding        10085c70 f   libcurl:rsa_crpt.obj
 0001:00084e10       _RSA_size                  10085e10 f   libcurl:rsa_crpt.obj
 0001:00085160       _lh_delete                 10086160 f   libcurl:lhash.obj
 0001:000851d0       _lh_doall                  100861d0 f   libcurl:lhash.obj
 0001:000851f0       _lh_doall_arg              100861f0 f   libcurl:lhash.obj
 0001:00085210       _lh_free                   10086210 f   libcurl:lhash.obj
 0001:00085260       _lh_insert                 10086260 f   libcurl:lhash.obj
 0001:000852f0       _lh_new                    100862f0 f   libcurl:lhash.obj
 0001:00085400       _lh_num_items              10086400 f   libcurl:lhash.obj
 0001:00085410       _lh_retrieve               10086410 f   libcurl:lhash.obj
 0001:00085440       _lh_strhash                10086440 f   libcurl:lhash.obj
 0001:00085490       _EVP_CIPHER_CTX_cleanup    10086490 f   libcurl:evp_enc.obj
 0001:00085500       _EVP_CIPHER_CTX_copy       10086500 f   libcurl:evp_enc.obj
 0001:00085610       _EVP_CIPHER_CTX_ctrl       10086610 f   libcurl:evp_enc.obj
 0001:000856a0       _EVP_CIPHER_CTX_init       100866a0 f   libcurl:evp_enc.obj
 0001:000856c0       _EVP_CIPHER_CTX_new        100866c0 f   libcurl:evp_enc.obj
 0001:000856f0       _EVP_CIPHER_CTX_rand_key   100866f0 f   libcurl:evp_enc.obj
 0001:00085730       _EVP_CIPHER_CTX_set_key_length 10086730 f   libcurl:evp_enc.obj
 0001:00085790       _EVP_CIPHER_CTX_set_padding 10086790 f   libcurl:evp_enc.obj
 0001:000857c0       _EVP_CipherFinal_ex        100867c0 f   libcurl:evp_enc.obj
 0001:000857e0       _EVP_CipherInit_ex         100867e0 f   libcurl:evp_enc.obj
 0001:00085a80       _EVP_CipherUpdate          10086a80 f   libcurl:evp_enc.obj
 0001:00085aa0       _EVP_DecryptFinal          10086aa0 f   libcurl:evp_enc.obj
 0001:00085ab0       _EVP_DecryptFinal_ex       10086ab0 f   libcurl:evp_enc.obj
 0001:00085c10       _EVP_DecryptInit_ex        10086c10 f   libcurl:evp_enc.obj
 0001:00085c30       _EVP_DecryptUpdate         10086c30 f   libcurl:evp_enc.obj
 0001:00085d70       _EVP_EncryptFinal          10086d70 f   libcurl:evp_enc.obj
 0001:00085d80       _EVP_EncryptFinal_ex       10086d80 f   libcurl:evp_enc.obj
 0001:00085e70       _EVP_EncryptInit_ex        10086e70 f   libcurl:evp_enc.obj
 0001:00085e90       _EVP_EncryptUpdate         10086e90 f   libcurl:evp_enc.obj
 0001:00086030       _X509_STORE_load_locations 10087030 f   libcurl:x509_d2.obj
 0001:000860b0       _SRP_Calc_A_param          100870b0 f   libcurl:tls_srp.obj
 0001:00086160       _SRP_generate_client_master_secret 10087160 f   libcurl:tls_srp.obj
 0001:000862f0       _SRP_generate_server_master_secret 100872f0 f   libcurl:tls_srp.obj
 0001:000863f0       _SSL_CTX_SRP_CTX_free      100873f0 f   libcurl:tls_srp.obj
 0001:00086510       _SSL_CTX_SRP_CTX_init      10087510 f   libcurl:tls_srp.obj
 0001:000865c0       _SSL_SRP_CTX_free          100875c0 f   libcurl:tls_srp.obj
 0001:000866e0       _SSL_SRP_CTX_init          100876e0 f   libcurl:tls_srp.obj
 0001:00086960       _SSL_srp_server_param_with_username 10087960 f   libcurl:tls_srp.obj
 0001:00086a70       _srp_verify_server_param   10087a70 f   libcurl:tls_srp.obj
 0001:00086b20       _SSL_get_client_CA_list    10087b20 f   libcurl:ssl_cert.obj
 0001:00086b70       _SSL_get_ex_data_X509_STORE_CTX_idx 10087b70 f   libcurl:ssl_cert.obj
 0001:00086c20       _ssl_cert_dup              10087c20 f   libcurl:ssl_cert.obj
 0001:00086eb0       _ssl_cert_free             10087eb0 f   libcurl:ssl_cert.obj
 0001:00086f50       _ssl_cert_inst             10087f50 f   libcurl:ssl_cert.obj
 0001:00086fb0       _ssl_cert_new              10087fb0 f   libcurl:ssl_cert.obj
 0001:00087030       _ssl_sess_cert_free        10088030 f   libcurl:ssl_cert.obj
 0001:000870e0       _ssl_sess_cert_new         100880e0 f   libcurl:ssl_cert.obj
 0001:00087140       _ssl_verify_cert_chain     10088140 f   libcurl:ssl_cert.obj
 0001:00087610       _ssl3_dispatch_alert       10088610 f   libcurl:s3_pkt.obj
 0001:000876d0       _ssl3_do_change_cipher_spec 100886d0 f   libcurl:s3_pkt.obj
 0001:000877d0       _ssl3_do_compress          100887d0 f   libcurl:s3_pkt.obj
 0001:00087cc0       _ssl3_read_bytes           10088cc0 f   libcurl:s3_pkt.obj
 0001:000886a0       _ssl3_read_n               100896a0 f   libcurl:s3_pkt.obj
 0001:00088960       _ssl3_send_alert           10089960 f   libcurl:s3_pkt.obj
 0001:00088a00       _ssl3_write_bytes          10089a00 f   libcurl:s3_pkt.obj
 0001:00088b40       _ssl3_write_pending        10089b40 f   libcurl:s3_pkt.obj
 0001:00088ca0       _COMP_zlib                 10089ca0 f   libcurl:c_zlib.obj
 0001:00088cd0       _EVP_enc_null              10089cd0 f   libcurl:e_null.obj
 0001:00088d30       _RSAPrivateKey_dup         10089d30 f   libcurl:rsa_asn1.obj
 0001:00088d50       _RSA_PSS_PARAMS_free       10089d50 f   libcurl:rsa_asn1.obj
 0001:00088d70       _RSA_PSS_PARAMS_it         10089d70 f   libcurl:rsa_asn1.obj
 0001:00088d80       _RSA_PSS_PARAMS_new        10089d80 f   libcurl:rsa_asn1.obj
 0001:00088d90       _d2i_RSAPrivateKey         10089d90 f   libcurl:rsa_asn1.obj
 0001:00088db0       _d2i_RSAPublicKey          10089db0 f   libcurl:rsa_asn1.obj
 0001:00088dd0       _d2i_RSA_PSS_PARAMS        10089dd0 f   libcurl:rsa_asn1.obj
 0001:00088df0       _i2d_RSAPrivateKey         10089df0 f   libcurl:rsa_asn1.obj
 0001:00088e10       _i2d_RSAPublicKey          10089e10 f   libcurl:rsa_asn1.obj
 0001:00088e30       _d2i_AutoPrivateKey        10089e30 f   libcurl:d2i_pr.obj
 0001:00088f30       _d2i_PrivateKey            10089f30 f   libcurl:d2i_pr.obj
 0001:00089070       _PEM_read_bio_PrivateKey   1008a070 f   libcurl:pem_pkey.obj
 0001:000894c0       _ssl3_do_write             1008a4c0 f   libcurl:s3_both.obj
 0001:00089550       _ssl3_get_finished         1008a550 f   libcurl:s3_both.obj
 0001:000896c0       _ssl3_get_message          1008a6c0 f   libcurl:s3_both.obj
 0001:000899a0       _ssl3_output_cert_chain    1008a9a0 f   libcurl:s3_both.obj
 0001:00089ba0       _ssl3_release_read_buffer  1008aba0 f   libcurl:s3_both.obj
 0001:00089be0       _ssl3_release_write_buffer 1008abe0 f   libcurl:s3_both.obj
 0001:00089c20       _ssl3_send_change_cipher_spec 1008ac20 f   libcurl:s3_both.obj
 0001:00089cb0       _ssl3_send_finished        1008acb0 f   libcurl:s3_both.obj
 0001:00089de0       _ssl3_setup_buffers        1008ade0 f   libcurl:s3_both.obj
 0001:00089e10       _ssl3_setup_read_buffer    1008ae10 f   libcurl:s3_both.obj
 0001:00089ee0       _ssl3_setup_write_buffer   1008aee0 f   libcurl:s3_both.obj
 0001:0008a000       _ssl_cert_type             1008b000 f   libcurl:s3_both.obj
 0001:0008a080       _ssl_verify_alarm_type     1008b080 f   libcurl:s3_both.obj
 0001:0008a140       _ERR_load_crypto_strings   1008b140 f   libcurl:err_all.obj
 0001:0008a1d0       _ERR_load_SSL_strings      1008b1d0 f   libcurl:ssl_err.obj
 0001:0008a200       _ENGINE_load_ssl_client_cert 1008b200 f   libcurl:eng_pkey.obj
 0001:0008a2e0       _d2i_SSL_SESSION           1008b2e0 f   libcurl:ssl_asn1.obj
 0001:0008b4a0       _i2d_SSL_SESSION           1008c4a0 f   libcurl:ssl_asn1.obj
 0001:0008be40       _ssl_add_clienthello_tlsext 1008ce40 f   libcurl:t1_lib.obj
 0001:0008c790       _ssl_add_serverhello_tlsext 1008d790 f   libcurl:t1_lib.obj
 0001:0008cb60       _ssl_check_clienthello_tlsext_early 1008db60 f   libcurl:t1_lib.obj
 0001:0008cc00       _ssl_check_clienthello_tlsext_late 1008dc00 f   libcurl:t1_lib.obj
 0001:0008cdf0       _ssl_check_serverhello_tlsext 1008ddf0 f   libcurl:t1_lib.obj
 0001:0008cf80       _ssl_parse_clienthello_tlsext 1008df80 f   libcurl:t1_lib.obj
 0001:0008d810       _ssl_parse_serverhello_tlsext 1008e810 f   libcurl:t1_lib.obj
 0001:0008dcd0       _ssl_prepare_clienthello_tlsext 1008ecd0 f   libcurl:t1_lib.obj
 0001:0008de20       _ssl_prepare_serverhello_tlsext 1008ee20 f   libcurl:t1_lib.obj
 0001:0008ded0       _tls12_get_hash            1008eed0 f   libcurl:t1_lib.obj
 0001:0008df20       _tls12_get_req_sig_algs    1008ef20 f   libcurl:t1_lib.obj
 0001:0008df40       _tls12_get_sigandhash      1008ef40 f   libcurl:t1_lib.obj
 0001:0008dfb0       _tls12_get_sigid           1008efb0 f   libcurl:t1_lib.obj
 0001:0008dfe0       _tls1_clear                1008efe0 f   libcurl:t1_lib.obj
 0001:0008e000       _tls1_ec_curve_id2nid      1008f000 f   libcurl:t1_lib.obj
 0001:0008e020       _tls1_ec_nid2curve_id      1008f020 f   libcurl:t1_lib.obj
 0001:0008e160       _tls1_free                 1008f160 f   libcurl:t1_lib.obj
 0001:0008e190       _tls1_heartbeat            1008f190 f   libcurl:t1_lib.obj
 0001:0008e2f0       _tls1_new                  1008f2f0 f   libcurl:t1_lib.obj
 0001:0008e320       _tls1_process_heartbeat    1008f320 f   libcurl:t1_lib.obj
 0001:0008e480       _tls1_process_sigalgs      1008f480 f   libcurl:t1_lib.obj
 0001:0008e5c0       _tls1_process_ticket       1008f5c0 f   libcurl:t1_lib.obj
 0001:0008eab0       _ssl3_callback_ctrl        1008fab0 f   libcurl:s3_lib.obj
 0001:0008eba0       _ssl3_choose_cipher        1008fba0 f   libcurl:s3_lib.obj
 0001:0008f0e0       _ssl3_clear                100900e0 f   libcurl:s3_lib.obj
 0001:0008f2a0       _ssl3_ctrl                 100902a0 f   libcurl:s3_lib.obj
 0001:0008f890       _ssl3_ctx_callback_ctrl    10090890 f   libcurl:s3_lib.obj
 0001:0008f9e0       _ssl3_ctx_ctrl             100909e0 f   libcurl:s3_lib.obj
 0001:0008feb0       _tls1_default_timeout      10090eb0 f   libcurl:t1_lib.obj
 0001:0008feb0       _ssl3_default_timeout      10090eb0 f   libcurl:s3_lib.obj
 0001:0008fec0       _ssl3_free                 10090ec0 f   libcurl:s3_lib.obj
 0001:0008ffc0       _ssl3_get_cipher           10090fc0 f   libcurl:s3_lib.obj
 0001:0008ffe0       _ssl3_get_cipher_by_char   10090fe0 f   libcurl:s3_lib.obj
 0001:00090030       _ssl3_get_req_cert_type    10091030 f   libcurl:s3_lib.obj
 0001:000900c0       _ssl3_new                  100910c0 f   libcurl:s3_lib.obj
 0001:00090130       _ssl3_num_ciphers          10091130 f   libcurl:s3_lib.obj
 0001:00090140       _ssl3_peek                 10091140 f   libcurl:s3_lib.obj
 0001:00090160       _ssl3_pending              10091160 f   libcurl:s3_lib.obj
 0001:00090190       _ssl3_put_cipher_by_char   10091190 f   libcurl:s3_lib.obj
 0001:000901c0       _ssl3_read                 100911c0 f   libcurl:s3_lib.obj
 0001:00090270       _ssl3_renegotiate          10091270 f   libcurl:s3_lib.obj
 0001:000902a0       _ssl3_renegotiate_check    100912a0 f   libcurl:s3_lib.obj
 0001:00090310       _ssl3_shutdown             10091310 f   libcurl:s3_lib.obj
 0001:000903c0       _ssl3_write                100913c0 f   libcurl:s3_lib.obj
 0001:00090480       _ssl_get_algorithm2        10091480 f   libcurl:s3_lib.obj
 0001:000904b0       _BN_CTX_end                100914b0 f   libcurl:bn_ctx.obj
 0001:000904f0       _BN_CTX_free               100914f0 f   libcurl:bn_ctx.obj
 0001:00090520       _BN_CTX_get                10091520 f   libcurl:bn_ctx.obj
 0001:00090580       _BN_CTX_new                10091580 f   libcurl:bn_ctx.obj
 0001:00090600       _BN_CTX_start              10091600 f   libcurl:bn_ctx.obj
 0001:00090830       _RSA_sign                  10091830 f   libcurl:rsa_sign.obj
 0001:00090a40       _RSA_verify                10091a40 f   libcurl:rsa_sign.obj
 0001:00090a80       _int_rsa_verify            10091a80 f   libcurl:rsa_sign.obj
 0001:00090f40       _DHparams_dup              10091f40 f   libcurl:dh_asn1.obj
 0001:00090f60       _d2i_DHparams              10091f60 f   libcurl:dh_asn1.obj
 0001:00090f80       _i2d_DHparams              10091f80 f   libcurl:dh_asn1.obj
 0001:00091340       _DH_OpenSSL                10092340 f   libcurl:dh_key.obj
 0001:00091350       _DH_compute_key            10092350 f   libcurl:dh_key.obj
 0001:00091360       _DH_generate_key           10092360 f   libcurl:dh_key.obj
 0001:00091370       _dsa_pub_internal_it       10092370 f   libcurl:dsa_asn1.obj
 0001:00091430       _DSA_sign                  10092430 f   libcurl:dsa_asn1.obj
 0001:00091490       _DSA_verify                10092490 f   libcurl:dsa_asn1.obj
 0001:000915a0       _d2i_DSAPrivateKey         100925a0 f   libcurl:dsa_asn1.obj
 0001:000915c0       _d2i_DSA_SIG               100925c0 f   libcurl:dsa_asn1.obj
 0001:000915e0       _d2i_DSAparams             100925e0 f   libcurl:dsa_asn1.obj
 0001:00091600       _i2d_DSAPrivateKey         10092600 f   libcurl:dsa_asn1.obj
 0001:00091620       _i2d_DSAPublicKey          10092620 f   libcurl:dsa_asn1.obj
 0001:00091640       _i2d_DSAparams             10092640 f   libcurl:dsa_asn1.obj
 0001:00091660       _EVP_SignFinal             10092660 f   libcurl:p_sign.obj
 0001:00091830       _EVP_VerifyFinal           10092830 f   libcurl:p_verify.obj
 0001:000919e0       _EVP_PKEY_CTX_ctrl         100929e0 f   libcurl:pmeth_lib.obj
 0001:00091ad0       _EVP_PKEY_CTX_dup          10092ad0 f   libcurl:pmeth_lib.obj
 0001:00091bd0       _EVP_PKEY_CTX_free         10092bd0 f   libcurl:pmeth_lib.obj
 0001:00091c30       _EVP_PKEY_CTX_new          10092c30 f   libcurl:pmeth_lib.obj
 0001:00091c50       _EVP_PKEY_CTX_new_id       10092c50 f   libcurl:pmeth_lib.obj
 0001:00091c70       _EVP_PKEY_meth_find        10092c70 f   libcurl:pmeth_lib.obj
 0001:00091cf0       _EVP_PKEY_meth_free        10092cf0 f   libcurl:pmeth_lib.obj
 0001:00091e70       _EVP_PKEY_decrypt          10092e70 f   libcurl:pmeth_fn.obj
 0001:00091f50       _EVP_PKEY_decrypt_init     10092f50 f   libcurl:pmeth_fn.obj
 0001:00091fc0       _EVP_PKEY_derive_set_peer  10092fc0 f   libcurl:pmeth_fn.obj
 0001:00092140       _EVP_PKEY_encrypt          10093140 f   libcurl:pmeth_fn.obj
 0001:00092220       _EVP_PKEY_encrypt_init     10093220 f   libcurl:pmeth_fn.obj
 0001:00092290       _EVP_PKEY_sign             10093290 f   libcurl:pmeth_fn.obj
 0001:00092370       _EVP_PKEY_sign_init        10093370 f   libcurl:pmeth_fn.obj
 0001:000923d0       _EVP_PKEY_verify           100933d0 f   libcurl:pmeth_fn.obj
 0001:00092440       _EVP_PKEY_verify_init      10093440 f   libcurl:pmeth_fn.obj
 0001:000924a0       _EC_EX_DATA_clear_free_all_data 100934a0 f   libcurl:ec_lib.obj
 0001:000924e0       _EC_EX_DATA_free_all_data  100934e0 f   libcurl:ec_lib.obj
 0001:00092520       _EC_EX_DATA_free_data      10093520 f   libcurl:ec_lib.obj
 0001:00092580       _EC_EX_DATA_get_data       10093580 f   libcurl:ec_lib.obj
 0001:000925c0       _EC_EX_DATA_set_data       100935c0 f   libcurl:ec_lib.obj
 0001:00092660       _EC_GROUP_clear_free       10093660 f   libcurl:ec_lib.obj
 0001:00092710       _EC_GROUP_cmp              10093710 f   libcurl:ec_lib.obj
 0001:00092910       _EC_GROUP_copy             10093910 f   libcurl:ec_lib.obj
 0001:00092ae0       _EC_GROUP_dup              10093ae0 f   libcurl:ec_lib.obj
 0001:00092b20       _EC_GROUP_free             10093b20 f   libcurl:ec_lib.obj
 0001:00092ba0       _EC_GROUP_get0_seed        10093ba0 f   libcurl:ec_lib.obj
 0001:00092bb0       _EC_GROUP_get_cofactor     10093bb0 f   libcurl:ec_lib.obj
 0001:00092be0       _EC_GROUP_get_curve_GF2m   10093be0 f   libcurl:ec_lib.obj
 0001:00092c20       _EC_GROUP_get_curve_GFp    10093c20 f   libcurl:ec_lib.obj
 0001:00092c60       _EC_GROUP_get_curve_name   10093c60 f   libcurl:ec_lib.obj
 0001:00092c70       _EC_GROUP_get_degree       10093c70 f   libcurl:ec_lib.obj
 0001:00092cb0       _EC_GROUP_get_order        10093cb0 f   libcurl:ec_lib.obj
 0001:00092ce0       _EC_GROUP_get_point_conversion_form 10093ce0 f   libcurl:ec_lib.obj
 0001:00092cf0       _EC_GROUP_have_precompute_mult 10093cf0 f   libcurl:ec_lib.obj
 0001:00092d20       _EC_GROUP_new              10093d20 f   libcurl:ec_lib.obj
 0001:00092e00       _EC_GROUP_set_asn1_flag    10093e00 f   libcurl:ec_lib.obj
 0001:00092e10       _EC_GROUP_set_curve_GF2m   10093e10 f   libcurl:ec_lib.obj
 0001:00092e50       _EC_GROUP_set_curve_GFp    10093e50 f   libcurl:ec_lib.obj
 0001:00092e80       _EC_GROUP_set_curve_name   10093e80 f   libcurl:ec_lib.obj
 0001:00092e90       _EC_GROUP_set_generator    10093e90 f   libcurl:ec_lib.obj
 0001:00092f40       _EC_GROUP_set_point_conversion_form 10093f40 f   libcurl:ec_lib.obj
 0001:00092f50       _EC_GROUP_set_seed         10093f50 f   libcurl:ec_lib.obj
 0001:00092fc0       _EC_POINT_add              10093fc0 f   libcurl:ec_lib.obj
 0001:00093040       _EC_POINT_clear_free       10094040 f   libcurl:ec_lib.obj
 0001:00093080       _EC_POINT_cmp              10094080 f   libcurl:ec_lib.obj
 0001:000930f0       _EC_POINT_copy             100940f0 f   libcurl:ec_lib.obj
 0001:00093160       _EC_POINT_dbl              10094160 f   libcurl:ec_lib.obj
 0001:000931d0       _EC_POINT_dup              100941d0 f   libcurl:ec_lib.obj
 0001:00093220       _EC_POINT_free             10094220 f   libcurl:ec_lib.obj
 0001:00093250       _EC_POINT_get_affine_coordinates_GF2m 10094250 f   libcurl:ec_lib.obj
 0001:000932c0       _EC_POINT_get_affine_coordinates_GFp 100942c0 f   libcurl:ec_lib.obj
 0001:00093330       _EC_POINT_invert           10094330 f   libcurl:ec_lib.obj
 0001:00093390       _EC_POINT_is_at_infinity   10094390 f   libcurl:ec_lib.obj
 0001:000933f0       _EC_POINT_is_on_curve      100943f0 f   libcurl:ec_lib.obj
 0001:00093450       _EC_POINT_make_affine      10094450 f   libcurl:ec_lib.obj
 0001:000934b0       _EC_POINT_mul              100944b0 f   libcurl:ec_lib.obj
 0001:00093530       _EC_POINT_new              10094530 f   libcurl:ec_lib.obj
 0001:000935e0       _EC_POINT_set_Jprojective_coordinates_GFp 100945e0 f   libcurl:ec_lib.obj
 0001:00093650       _EC_POINT_set_affine_coordinates_GF2m 10094650 f   libcurl:ec_lib.obj
 0001:000936c0       _EC_POINT_set_affine_coordinates_GFp 100946c0 f   libcurl:ec_lib.obj
 0001:00093730       _EC_POINT_set_to_infinity  10094730 f   libcurl:ec_lib.obj
 0001:00093790       _EC_POINTs_make_affine     10094790 f   libcurl:ec_lib.obj
 0001:00093810       _EC_GROUP_new_by_curve_name 10094810 f   libcurl:ec_curve.obj
 0001:00093c00       _EC_POINT_oct2point        10094c00 f   libcurl:ec_oct.obj
 0001:00093ca0       _EC_POINT_point2oct        10094ca0 f   libcurl:ec_oct.obj
 0001:00093d40       _EC_POINT_set_compressed_coordinates_GF2m 10094d40 f   libcurl:ec_oct.obj
 0001:00093de0       _EC_POINT_set_compressed_coordinates_GFp 10094de0 f   libcurl:ec_oct.obj
 0001:00093e70       _ECDSA_sign                10094e70 f   libcurl:ecs_sign.obj
 0001:00093ea0       _ECDSA_sign_ex             10094ea0 f   libcurl:ecs_sign.obj
 0001:00093f10       _ECDSA_sign_setup          10094f10 f   libcurl:ecs_sign.obj
 0001:00093f30       _ECDH_compute_key          10094f30 f   libcurl:ech_key.obj
 0001:00093f50       _X509_certificate_type     10094f50 f   libcurl:x509type.obj
 0001:00094040       _n_ssl3_mac                10095040 f   libcurl:s3_enc.obj
 0001:00094380       _ssl3_alert_code           10095380 f   libcurl:s3_enc.obj
 0001:000944a0       _ssl3_cert_verify_mac      100954a0 f   libcurl:s3_enc.obj
 0001:000944c0       _ssl3_change_cipher_state  100954c0 f   libcurl:s3_enc.obj
 0001:000949b0       _ssl3_cleanup_key_block    100959b0 f   libcurl:s3_enc.obj
 0001:00094a00       _ssl3_digest_cached_records 10095a00 f   libcurl:s3_enc.obj
 0001:00094b70       _ssl3_enc                  10095b70 f   libcurl:s3_enc.obj
 0001:00094ce0       _ssl3_final_finish_mac     10095ce0 f   libcurl:s3_enc.obj
 0001:00094d30       _ssl3_finish_mac           10095d30 f   libcurl:s3_enc.obj
 0001:00094d90       _ssl3_free_digest_list     10095d90 f   libcurl:s3_enc.obj
 0001:00095030       _ssl3_generate_master_secret 10096030 f   libcurl:s3_enc.obj
 0001:00095490       _ssl3_init_finished_mac    10096490 f   libcurl:s3_enc.obj
 0001:000954f0       _ssl3_record_sequence_update 100964f0 f   libcurl:s3_enc.obj
 0001:00095510       _ssl3_setup_key_block      10096510 f   libcurl:s3_enc.obj
 0001:000956b0       _ssl23_default_timeout     100966b0 f   libcurl:s23_lib.obj
 0001:000956c0       _ssl23_get_cipher          100966c0 f   libcurl:s23_lib.obj
 0001:000956e0       _ssl23_get_cipher_by_char  100966e0 f   libcurl:s23_lib.obj
 0001:000956f0       _ssl23_num_ciphers         100966f0 f   libcurl:s23_lib.obj
 0001:00095700       _ssl23_peek                10096700 f   libcurl:s23_lib.obj
 0001:00095780       _ssl23_put_cipher_by_char  10096780 f   libcurl:s23_lib.obj
 0001:000957d0       _ssl23_read                100967d0 f   libcurl:s23_lib.obj
 0001:00095850       _ssl23_write               10096850 f   libcurl:s23_lib.obj
 0001:00095910       _TLSv1_1_client_method     10096910 f   libcurl:t1_clnt.obj
 0001:00095920       _TLSv1_2_client_method     10096920 f   libcurl:t1_clnt.obj
 0001:00095930       _TLSv1_client_method       10096930 f   libcurl:t1_clnt.obj
 0001:00095940       _ssl23_read_bytes          10096940 f   libcurl:s23_pkt.obj
 0001:000959c0       _ssl23_write_bytes         100969c0 f   libcurl:s23_pkt.obj
 0001:00095a30       _EVP_dss1                  10096a30 f   libcurl:m_dss1.obj
 0001:00095a60       _EVP_ecdsa                 10096a60 f   libcurl:m_ecdsa.obj
 0001:00095e70       _EVP_des_cbc               10096e70 f   libcurl:e_des.obj
 0001:00095e80       _EVP_des_cfb1              10096e80 f   libcurl:e_des.obj
 0001:00095e90       _EVP_des_cfb64             10096e90 f   libcurl:e_des.obj
 0001:00095ea0       _EVP_des_cfb8              10096ea0 f   libcurl:e_des.obj
 0001:00095eb0       _EVP_des_ecb               10096eb0 f   libcurl:e_des.obj
 0001:00095ec0       _EVP_des_ofb               10096ec0 f   libcurl:e_des.obj
 0001:00096380       _EVP_des_ede               10097380 f   libcurl:e_des3.obj
 0001:00096390       _EVP_des_ede3              10097390 f   libcurl:e_des3.obj
 0001:000963a0       _EVP_des_ede3_cbc          100973a0 f   libcurl:e_des3.obj
 0001:000963b0       _EVP_des_ede3_cfb1         100973b0 f   libcurl:e_des3.obj
 0001:000963c0       _EVP_des_ede3_cfb64        100973c0 f   libcurl:e_des3.obj
 0001:000963d0       _EVP_des_ede3_cfb8         100973d0 f   libcurl:e_des3.obj
 0001:000963e0       _EVP_des_ede3_ofb          100973e0 f   libcurl:e_des3.obj
 0001:000963f0       _EVP_des_ede_cbc           100973f0 f   libcurl:e_des3.obj
 0001:00096400       _EVP_des_ede_cfb64         10097400 f   libcurl:e_des3.obj
 0001:00096410       _EVP_des_ede_ofb           10097410 f   libcurl:e_des3.obj
 0001:00096480       _EVP_rc4                   10097480 f   libcurl:e_rc4.obj
 0001:00096490       _EVP_rc4_40                10097490 f   libcurl:e_rc4.obj
 0001:00096720       _EVP_idea_cbc              10097720 f   libcurl:e_idea.obj
 0001:00096730       _EVP_idea_cfb64            10097730 f   libcurl:e_idea.obj
 0001:00096740       _EVP_idea_ecb              10097740 f   libcurl:e_idea.obj
 0001:00096750       _EVP_idea_ofb              10097750 f   libcurl:e_idea.obj
 0001:00096b50       _EVP_rc2_40_cbc            10097b50 f   libcurl:e_rc2.obj
 0001:00096b60       _EVP_rc2_64_cbc            10097b60 f   libcurl:e_rc2.obj
 0001:00096b70       _EVP_rc2_cbc               10097b70 f   libcurl:e_rc2.obj
 0001:00096b80       _EVP_rc2_cfb64             10097b80 f   libcurl:e_rc2.obj
 0001:00096b90       _EVP_rc2_ecb               10097b90 f   libcurl:e_rc2.obj
 0001:00096ba0       _EVP_rc2_ofb               10097ba0 f   libcurl:e_rc2.obj
 0001:00097c50       _EVP_aes_128_cbc           10098c50 f   libcurl:e_aes.obj
 0001:00097c60       _EVP_aes_128_cfb1          10098c60 f   libcurl:e_aes.obj
 0001:00097c70       _EVP_aes_128_cfb128        10098c70 f   libcurl:e_aes.obj
 0001:00097c80       _EVP_aes_128_cfb8          10098c80 f   libcurl:e_aes.obj
 0001:00097c90       _EVP_aes_128_ctr           10098c90 f   libcurl:e_aes.obj
 0001:00097ca0       _EVP_aes_128_ecb           10098ca0 f   libcurl:e_aes.obj
 0001:00097cb0       _EVP_aes_128_gcm           10098cb0 f   libcurl:e_aes.obj
 0001:00097cc0       _EVP_aes_128_ofb           10098cc0 f   libcurl:e_aes.obj
 0001:00097cd0       _EVP_aes_128_xts           10098cd0 f   libcurl:e_aes.obj
 0001:00097ce0       _EVP_aes_192_cbc           10098ce0 f   libcurl:e_aes.obj
 0001:00097cf0       _EVP_aes_192_cfb1          10098cf0 f   libcurl:e_aes.obj
 0001:00097d00       _EVP_aes_192_cfb128        10098d00 f   libcurl:e_aes.obj
 0001:00097d10       _EVP_aes_192_cfb8          10098d10 f   libcurl:e_aes.obj
 0001:00097d20       _EVP_aes_192_ctr           10098d20 f   libcurl:e_aes.obj
 0001:00097d30       _EVP_aes_192_ecb           10098d30 f   libcurl:e_aes.obj
 0001:00097d40       _EVP_aes_192_gcm           10098d40 f   libcurl:e_aes.obj
 0001:00097d50       _EVP_aes_192_ofb           10098d50 f   libcurl:e_aes.obj
 0001:00097d60       _EVP_aes_256_cbc           10098d60 f   libcurl:e_aes.obj
 0001:00097d70       _EVP_aes_256_cfb1          10098d70 f   libcurl:e_aes.obj
 0001:00097d80       _EVP_aes_256_cfb128        10098d80 f   libcurl:e_aes.obj
 0001:00097d90       _EVP_aes_256_cfb8          10098d90 f   libcurl:e_aes.obj
 0001:00097da0       _EVP_aes_256_ctr           10098da0 f   libcurl:e_aes.obj
 0001:00097db0       _EVP_aes_256_ecb           10098db0 f   libcurl:e_aes.obj
 0001:00097dc0       _EVP_aes_256_gcm           10098dc0 f   libcurl:e_aes.obj
 0001:00097dd0       _EVP_aes_256_ofb           10098dd0 f   libcurl:e_aes.obj
 0001:00097de0       _EVP_aes_256_xts           10098de0 f   libcurl:e_aes.obj
 0001:00098270       _EVP_camellia_128_cbc      10099270 f   libcurl:e_camellia.obj
 0001:00098280       _EVP_camellia_128_cfb1     10099280 f   libcurl:e_camellia.obj
 0001:00098290       _EVP_camellia_128_cfb128   10099290 f   libcurl:e_camellia.obj
 0001:000982a0       _EVP_camellia_128_cfb8     100992a0 f   libcurl:e_camellia.obj
 0001:000982b0       _EVP_camellia_128_ecb      100992b0 f   libcurl:e_camellia.obj
 0001:000982c0       _EVP_camellia_128_ofb      100992c0 f   libcurl:e_camellia.obj
 0001:000982d0       _EVP_camellia_192_cbc      100992d0 f   libcurl:e_camellia.obj
 0001:000982e0       _EVP_camellia_192_cfb1     100992e0 f   libcurl:e_camellia.obj
 0001:000982f0       _EVP_camellia_192_cfb128   100992f0 f   libcurl:e_camellia.obj
 0001:00098300       _EVP_camellia_192_cfb8     10099300 f   libcurl:e_camellia.obj
 0001:00098310       _EVP_camellia_192_ecb      10099310 f   libcurl:e_camellia.obj
 0001:00098320       _EVP_camellia_192_ofb      10099320 f   libcurl:e_camellia.obj
 0001:00098330       _EVP_camellia_256_cbc      10099330 f   libcurl:e_camellia.obj
 0001:00098340       _EVP_camellia_256_cfb1     10099340 f   libcurl:e_camellia.obj
 0001:00098350       _EVP_camellia_256_cfb128   10099350 f   libcurl:e_camellia.obj
 0001:00098360       _EVP_camellia_256_cfb8     10099360 f   libcurl:e_camellia.obj
 0001:00098370       _EVP_camellia_256_ecb      10099370 f   libcurl:e_camellia.obj
 0001:00098380       _EVP_camellia_256_ofb      10099380 f   libcurl:e_camellia.obj
 0001:00098590       _EVP_seed_cbc              10099590 f   libcurl:e_seed.obj
 0001:000985a0       _EVP_seed_cfb128           100995a0 f   libcurl:e_seed.obj
 0001:000985b0       _EVP_seed_ecb              100995b0 f   libcurl:e_seed.obj
 0001:000985c0       _EVP_seed_ofb              100995c0 f   libcurl:e_seed.obj
 0001:00098b00       _RAND_SSLeay               10099b00 f   libcurl:md_rand.obj
 0001:00098b10       _ssleay_rand_bytes         10099b10 f   libcurl:md_rand.obj
 0001:00099000       _ENGINE_get_RAND           1009a000 f   libcurl:tb_rand.obj
 0001:00099010       _ENGINE_get_default_RAND   1009a010 f   libcurl:tb_rand.obj
 0001:00099020       _ENGINE_set_default_RAND   1009a020 f   libcurl:tb_rand.obj
 0001:00099060       _CONF_free                 1009a060 f   libcurl:conf_lib.obj
 0001:000990a0       _CONF_get_section          1009a0a0 f   libcurl:conf_lib.obj
 0001:00099120       _CONF_get_string           1009a120 f   libcurl:conf_lib.obj
 0001:000991b0       _NCONF_free                1009a1b0 f   libcurl:conf_lib.obj
 0001:000991d0       _NCONF_get_number_e        1009a1d0 f   libcurl:conf_lib.obj
 0001:00099270       _NCONF_get_section         1009a270 f   libcurl:conf_lib.obj
 0001:000992d0       _NCONF_get_string          1009a2d0 f   libcurl:conf_lib.obj
 0001:00099340       _NCONF_load                1009a340 f   libcurl:conf_lib.obj
 0001:00099370       _NCONF_new                 1009a370 f   libcurl:conf_lib.obj
 0001:000993b0       _DSO_bind_func             1009a3b0 f   libcurl:dso_lib.obj
 0001:00099430       _DSO_convert_filename      1009a430 f   libcurl:dso_lib.obj
 0001:00099510       _DSO_free                  1009a510 f   libcurl:dso_lib.obj
 0001:000995f0       _DSO_load                  1009a5f0 f   libcurl:dso_lib.obj
 0001:000996e0       _DSO_new_method            1009a6e0 f   libcurl:dso_lib.obj
 0001:000997a0       _DSO_set_filename          1009a7a0 f   libcurl:dso_lib.obj
 0001:00099890       _ASN1_add_oid_module       1009a890 f   libcurl:asn_moid.obj
 0001:00099a80       _EVP_add_alg_module        1009aa80 f   libcurl:evp_cnf.obj
 0001:00099be0       _ENGINE_add_conf_module    1009abe0 f   libcurl:eng_cnf.obj
 0001:0009a100       _ASN1_TYPE_cmp             1009b100 f   libcurl:a_type.obj
 0001:0009a150       _ASN1_TYPE_get             1009b150 f   libcurl:a_type.obj
 0001:0009a170       _ASN1_TYPE_set             1009b170 f   libcurl:a_type.obj
 0001:0009a1b0       _ASN1_TYPE_set1            1009b1b0 f   libcurl:a_type.obj
 0001:0009a260       _ASN1_OCTET_STRING_cmp     1009b260 f   libcurl:a_octet.obj
 0001:0009a270       _ASN1_OCTET_STRING_dup     1009b270 f   libcurl:a_octet.obj
 0001:0009a280       _ASN1_OCTET_STRING_set     1009b280 f   libcurl:a_octet.obj
 0001:0009a280       _ASN1_BIT_STRING_set       1009b280 f   libcurl:a_bitstr.obj
 0001:0009a290       _BIO_dump_indent           1009b290 f   libcurl:b_dump.obj
 0001:0009a2b0       _BIO_dump_indent_cb        1009b2b0 f   libcurl:b_dump.obj
 0001:0009a5c0       _X509V3_NAME_from_section  1009b5c0 f   libcurl:v3_utl.obj
 0001:0009a670       _X509V3_add_value          1009b670 f   libcurl:v3_utl.obj
 0001:0009a740       _X509V3_add_value_bool     1009b740 f   libcurl:v3_utl.obj
 0001:0009a770       _X509V3_add_value_int      1009b770 f   libcurl:v3_utl.obj
 0001:0009a7f0       _X509V3_add_value_uchar    1009b7f0 f   libcurl:v3_utl.obj
 0001:0009a800       _X509V3_conf_free          1009b800 f   libcurl:v3_utl.obj
 0001:0009a850       _X509V3_get_value_bool     1009b850 f   libcurl:v3_utl.obj
 0001:0009ab30       _X509V3_get_value_int      1009bb30 f   libcurl:v3_utl.obj
 0001:0009ab80       _X509V3_parse_list         1009bb80 f   libcurl:v3_utl.obj
 0001:0009ad30       _a2i_IPADDRESS             1009bd30 f   libcurl:v3_utl.obj
 0001:0009ade0       _a2i_IPADDRESS_NC          1009bde0 f   libcurl:v3_utl.obj
 0001:0009aef0       _a2i_ipadd                 1009bef0 f   libcurl:v3_utl.obj
 0001:0009af30       _hex_to_string             1009bf30 f   libcurl:v3_utl.obj
 0001:0009afc0       _i2s_ASN1_ENUMERATED       1009bfc0 f   libcurl:v3_utl.obj
 0001:0009b020       _i2s_ASN1_INTEGER          1009c020 f   libcurl:v3_utl.obj
 0001:0009b390       _name_cmp                  1009c390 f   libcurl:v3_utl.obj
 0001:0009b3e0       _s2i_ASN1_INTEGER          1009c3e0 f   libcurl:v3_utl.obj
 0001:0009b4f0       _string_to_hex             1009c4f0 f   libcurl:v3_utl.obj
 0001:0009b700       _PROXY_POLICY_it           1009c700 f   libcurl:v3_pcia.obj
 0001:0009b710       _PROXY_CERT_INFO_EXTENSION_free 1009c710 f   libcurl:v3_pcia.obj
 0001:0009b730       _PROXY_CERT_INFO_EXTENSION_it 1009c730 f   libcurl:v3_pcia.obj
 0001:0009b740       _PROXY_CERT_INFO_EXTENSION_new 1009c740 f   libcurl:v3_pcia.obj
 0001:0009b750       _BASIC_CONSTRAINTS_it      1009c750 f   libcurl:v3_bcons.obj
 0001:0009b8f0       _BASIC_CONSTRAINTS_free    1009c8f0 f   libcurl:v3_bcons.obj
 0001:0009b910       _ASN1_GENERALIZEDTIME_adj  1009c910 f   libcurl:a_gentm.obj
 0001:0009ba60       _ASN1_GENERALIZEDTIME_check 1009ca60 f   libcurl:a_gentm.obj
 0001:0009bbe0       _ASN1_ENUMERATED_get       1009cbe0 f   libcurl:a_enum.obj
 0001:0009bc50       _ASN1_ENUMERATED_to_BN     1009cc50 f   libcurl:a_enum.obj
 0001:0009bcb0       _ASN1_item_pack            1009ccb0 f   libcurl:asn_pack.obj
 0001:0009bd60       _ASN1_item_unpack          1009cd60 f   libcurl:asn_pack.obj
 0001:0009bdb0       _X509_STORE_CTX_cleanup    1009cdb0 f   libcurl:x509_vfy.obj
 0001:0009be40       _X509_STORE_CTX_get1_chain 1009ce40 f   libcurl:x509_vfy.obj
 0001:0009beb0       _X509_STORE_CTX_get_error  1009ceb0 f   libcurl:x509_vfy.obj
 0001:0009bec0       _X509_STORE_CTX_get_ex_new_index 1009cec0 f   libcurl:x509_vfy.obj
 0001:0009bee0       _X509_STORE_CTX_init       1009cee0 f   libcurl:x509_vfy.obj
 0001:0009c130       _X509_STORE_CTX_purpose_inherit 1009d130 f   libcurl:x509_vfy.obj
 0001:0009c210       _X509_STORE_CTX_set_default 1009d210 f   libcurl:x509_vfy.obj
 0001:0009c240       _X509_STORE_CTX_set_ex_data 1009d240 f   libcurl:x509_vfy.obj
 0001:0009c250       _X509_STORE_CTX_set_purpose 1009d250 f   libcurl:x509_vfy.obj
 0001:0009c270       _X509_STORE_CTX_set_verify_cb 1009d270 f   libcurl:x509_vfy.obj
 0001:0009c280       _X509_cmp_time             1009d280 f   libcurl:x509_vfy.obj
 0001:0009c550       _X509_get_pubkey_parameters 1009d550 f   libcurl:x509_vfy.obj
 0001:0009c650       _X509_gmtime_adj           1009d650 f   libcurl:x509_vfy.obj
 0001:0009c6e0       _X509_time_adj_ex          1009d6e0 f   libcurl:x509_vfy.obj
 0001:0009c780       _X509_verify_cert          1009d780 f   libcurl:x509_vfy.obj
 0001:0009e490       _OCSP_id_issuer_cmp        1009f490 f   libcurl:ocsp_lib.obj
 0001:0009e4e0       _ASN1_TIME_adj             1009f4e0 f   libcurl:a_time.obj
 0001:0009e5c0       _ASN1_TIME_check           1009f5c0 f   libcurl:a_time.obj
 0001:0009e5f0       _ASN1_TIME_free            1009f5f0 f   libcurl:a_time.obj
 0001:0009e610       _ASN1_TIME_it              1009f610 f   libcurl:a_time.obj
 0001:0009e980       _ACCESS_DESCRIPTION_it     1009f980 f   libcurl:v3_info.obj
 0001:0009e990       _AUTHORITY_INFO_ACCESS_it  1009f990 f   libcurl:v3_info.obj
 0001:0009e9a0       _ACCESS_DESCRIPTION_free   1009f9a0 f   libcurl:v3_info.obj
 0001:0009e9c0       _i2a_ASN1_INTEGER          1009f9c0 f   libcurl:f_int.obj
 0001:0009eac0       _i2a_ASN1_STRING           1009fac0 f   libcurl:f_string.obj
 0001:0009eba0       _i2v_GENERAL_NAMES         1009fba0 f   libcurl:v3_alt.obj
 0001:0009f0e0       _GENERAL_NAME_print        100a00e0 f   libcurl:v3_alt.obj
 0001:0009f2c0       _a2i_GENERAL_NAME          100a02c0 f   libcurl:v3_alt.obj
 0001:0009f840       _i2v_GENERAL_NAME          100a0840 f   libcurl:v3_alt.obj
 0001:0009fac0       _v2i_GENERAL_NAME          100a0ac0 f   libcurl:v3_alt.obj
 0001:0009fae0       _v2i_GENERAL_NAMES         100a0ae0 f   libcurl:v3_alt.obj
 0001:0009fb70       _v2i_GENERAL_NAME_ex       100a0b70 f   libcurl:v3_alt.obj
 0001:0009fc90       _ASN1_item_verify          100a0c90 f   libcurl:a_verify.obj
 0001:000a0060       _X509_TRUST_get_by_id      100a1060 f   libcurl:x509_trs.obj
 0001:000a00b0       _X509_check_trust          100a10b0 f   libcurl:x509_trs.obj
 0001:000a0190       _Curl_auth_create_external_message 100a1190 f   libcurl:cleartext.obj
 0001:000a01a0       _Curl_auth_create_login_message 100a11a0 f   libcurl:cleartext.obj
 0001:000a0210       _Curl_auth_create_plain_message 100a1210 f   libcurl:cleartext.obj
 0001:000a02c0       _Curl_auth_create_cram_md5_message 100a12c0 f   libcurl:cram.obj
 0001:000a0420       _Curl_auth_decode_cram_md5_message 100a1420 f   libcurl:cram.obj
 0001:000a0470       _Curl_auth_create_oauth_bearer_message 100a1470 f   libcurl:oauth2.obj
 0001:000a0520       _Curl_fnmatch              100a1520 f   libcurl:curl_fnmatch.obj
 0001:000a0fb0       _DES_ecb_encrypt           100a1fb0 f   libcurl:ecb_enc.obj
 0001:000a1060       _DES_is_weak_key           100a2060 f   libcurl:set_key.obj
 0001:000a10a0       _DES_set_key               100a20a0 f   libcurl:set_key.obj
 0001:000a10c0       _DES_set_key_checked       100a20c0 f   libcurl:set_key.obj
 0001:000a1110       _DES_set_key_unchecked     100a2110 f   libcurl:set_key.obj
 0001:000a1350       _DES_set_odd_parity        100a2350 f   libcurl:set_key.obj
 0001:000a13d0       _MD4_Final                 100a23d0 f   libcurl:md4_dgst.obj
 0001:000a14f0       _MD4_Update                100a24f0 f   libcurl:md4_dgst.obj
 0001:000a15d0       _md4_block_data_order      100a25d0 f   libcurl:md4_dgst.obj
 0001:000a1d00       _Curl_HMAC_final           100a2d00 f   libcurl:hmac.obj
 0001:000a1d50       _Curl_HMAC_init            100a2d50 f   libcurl:hmac.obj
 0001:000a1e60       _BN_lshift                 100a2e60 f   libcurl:bn_shift.obj
 0001:000a1fd0       _BN_lshift1                100a2fd0 f   libcurl:bn_shift.obj
 0001:000a2070       _BN_rshift                 100a3070 f   libcurl:bn_shift.obj
 0001:000a21e0       _BN_rshift1                100a31e0 f   libcurl:bn_shift.obj
 0001:000a2290       _bn_add_words              100a3290 f   libcurl:bn_asm.obj
 0001:000a2380       _bn_div_words              100a3380 f   libcurl:bn_asm.obj
 0001:000a23a0       _bn_mul_add_words          100a33a0 f   libcurl:bn_asm.obj
 0001:000a24b0       _bn_mul_comba4             100a34b0 f   libcurl:bn_asm.obj
 0001:000a2640       _bn_mul_comba8             100a3640 f   libcurl:bn_asm.obj
 0001:000a2c10       _bn_mul_words              100a3c10 f   libcurl:bn_asm.obj
 0001:000a2d20       _bn_sqr_comba4             100a3d20 f   libcurl:bn_asm.obj
 0001:000a2f00       _bn_sqr_comba8             100a3f00 f   libcurl:bn_asm.obj
 0001:000a35d0       _bn_sqr_words              100a45d0 f   libcurl:bn_asm.obj
 0001:000a3680       _bn_sub_words              100a4680 f   libcurl:bn_asm.obj
 0001:000a3780       _d2i_ASN1_BOOLEAN          100a4780 f   libcurl:a_bool.obj
 0001:000a3820       _ENGINE_get_digest         100a4820 f   libcurl:tb_digest.obj
 0001:000a3870       _ENGINE_get_digest_engine  100a4870 f   libcurl:tb_digest.obj
 0001:000a3890       _ENGINE_set_default_digests 100a4890 f   libcurl:tb_digest.obj
 0001:000a38f0       _SHA1_Final                100a48f0 f   libcurl:sha1dgst.obj
 0001:000a3a30       _RIPEMD160_Init            100a4a30 f   libcurl:rmd_dgst.obj
 0001:000a3a30       _SHA_Init                  100a4a30 f   libcurl:sha_dgst.obj
 0001:000a3a30       _SHA1_Init                 100a4a30 f   libcurl:sha1dgst.obj
 0001:000a3a70       _SHA1_Transform            100a4a70 f   libcurl:sha1dgst.obj
 0001:000a3a90       _SHA1_Update               100a4a90 f   libcurl:sha1dgst.obj
 0001:000a50a0       _SHA384_Init               100a60a0 f   libcurl:sha512.obj
 0001:000a5150       _SHA512_Final              100a6150 f   libcurl:sha512.obj
 0001:000a56d0       _SHA512_Init               100a66d0 f   libcurl:sha512.obj
 0001:000a5780       _SHA512_Transform          100a6780 f   libcurl:sha512.obj
 0001:000a57a0       _SHA512_Update             100a67a0 f   libcurl:sha512.obj
 0001:000a92a0       _ENGINE_free               100aa2a0 f   libcurl:eng_lib.obj
 0001:000a9320       _ENGINE_new                100aa320 f   libcurl:eng_lib.obj
 0001:000a9380       _engine_cleanup_add_first  100aa380 f   libcurl:eng_lib.obj
 0001:000a93d0       _engine_free_util          100aa3d0 f   libcurl:eng_lib.obj
 0001:000a9460       _ENGINE_get_pkey_asn1_meth 100aa460 f   libcurl:tb_asnmth.obj
 0001:000a94b0       _ENGINE_get_pkey_asn1_meth_engine 100aa4b0 f   libcurl:tb_asnmth.obj
 0001:000a94d0       _ENGINE_pkey_asn1_find_str 100aa4d0 f   libcurl:tb_asnmth.obj
 0001:000a9560       _ENGINE_set_default_pkey_asn1_meths 100aa560 f   libcurl:tb_asnmth.obj
 0001:000a95b0       _engine_pkey_asn1_meths_free 100aa5b0 f   libcurl:tb_asnmth.obj
 0001:000a97e0       _EVP_desx_cbc              100aa7e0 f   libcurl:e_xcbc_d.obj
 0001:000a9bb0       _EVP_rc4_hmac_md5          100aabb0 f   libcurl:e_rc4_hmac_md5.obj
 0001:000a9dd0       _EVP_bf_cbc                100aadd0 f   libcurl:e_bf.obj
 0001:000a9de0       _EVP_bf_cfb64              100aade0 f   libcurl:e_bf.obj
 0001:000a9df0       _EVP_bf_ecb                100aadf0 f   libcurl:e_bf.obj
 0001:000a9e00       _EVP_bf_ofb                100aae00 f   libcurl:e_bf.obj
 0001:000aa020       _EVP_cast5_cbc             100ab020 f   libcurl:e_cast.obj
 0001:000aa030       _EVP_cast5_cfb64           100ab030 f   libcurl:e_cast.obj
 0001:000aa040       _EVP_cast5_ecb             100ab040 f   libcurl:e_cast.obj
 0001:000aa050       _EVP_cast5_ofb             100ab050 f   libcurl:e_cast.obj
 0001:000aa0a0       _EVP_md4                   100ab0a0 f   libcurl:m_md4.obj
 0001:000aa0f0       _EVP_sha                   100ab0f0 f   libcurl:m_sha.obj
 0001:000aa120       _EVP_dss                   100ab120 f   libcurl:m_dss.obj
 0001:000aa180       _EVP_mdc2                  100ab180 f   libcurl:m_mdc2.obj
 0001:000aa1d0       _EVP_ripemd160             100ab1d0 f   libcurl:m_ripemd.obj
 0001:000aa230       _EVP_whirlpool             100ab230 f   libcurl:m_wp.obj
 0001:000aa240       _PKCS5_PBE_keyivgen        100ab240 f   libcurl:p5_crpt.obj
 0001:000aa580       _PKCS5_PBKDF2_HMAC         100ab580 f   libcurl:p5_crpt2.obj
 0001:000aa8f0       _PKCS5_v2_PBE_keyivgen     100ab8f0 f   libcurl:p5_crpt2.obj
 0001:000aaa30       _PKCS5_v2_PBKDF2_keyivgen  100aba30 f   libcurl:p5_crpt2.obj
 0001:000aac40       _PKCS12_PBE_keyivgen       100abc40 f   libcurl:p12_crpt.obj
 0001:000aae30       _BN_pseudo_rand            100abe30 f   libcurl:bn_rand.obj
 0001:000aae50       _BN_pseudo_rand_range      100abe50 f   libcurl:bn_rand.obj
 0001:000aae70       _BN_rand                   100abe70 f   libcurl:bn_rand.obj
 0001:000aae90       _BN_rand_range             100abe90 f   libcurl:bn_rand.obj
 0001:000ab1f0       _BN_BLINDING_convert_ex    100ac1f0 f   libcurl:bn_blind.obj
 0001:000ab280       _BN_BLINDING_create_param  100ac280 f   libcurl:bn_blind.obj
 0001:000ab460       _BN_BLINDING_free          100ac460 f   libcurl:bn_blind.obj
 0001:000ab4c0       _BN_BLINDING_invert_ex     100ac4c0 f   libcurl:bn_blind.obj
 0001:000ab510       _BN_BLINDING_thread_id     100ac510 f   libcurl:bn_blind.obj
 0001:000ab520       _BN_BLINDING_update        100ac520 f   libcurl:bn_blind.obj
 0001:000ac790       _RSA_PKCS1_SSLeay          100ad790 f   libcurl:rsa_eay.obj
 0001:000ac960       _ASN1_STRING_data          100ad960 f   libcurl:asn1_lib.obj
 0001:000ac960       _ENGINE_get_RSA            100ad960 f   libcurl:tb_rsa.obj
 0001:000ac960       _CONF_imodule_get_value    100ad960 f   libcurl:conf_mod.obj
 0001:000ac960       _EVP_CIPHER_key_length     100ad960 f   libcurl:evp_lib.obj
 0001:000ac960       _EC_KEY_get0_public_key    100ad960 f   libcurl:ec_key.obj
 0001:000ac960       _EVP_PKEY_CTX_get0_pkey    100ad960 f   libcurl:pmeth_lib.obj
 0001:000ac970       _ENGINE_get_default_RSA    100ad970 f   libcurl:tb_rsa.obj
 0001:000ac980       _ENGINE_set_default_RSA    100ad980 f   libcurl:tb_rsa.obj
 0001:000ac9c0       _EVP_CIPHER_flags          100ad9c0 f   libcurl:evp_lib.obj
 0001:000ac9c0       _ENGINE_get_DH             100ad9c0 f   libcurl:tb_dh.obj
 0001:000ac9c0       _EC_KEY_get_enc_flags      100ad9c0 f   libcurl:ec_key.obj
 0001:000ac9d0       _ENGINE_get_default_DH     100ad9d0 f   libcurl:tb_dh.obj
 0001:000ac9e0       _ENGINE_set_default_DH     100ad9e0 f   libcurl:tb_dh.obj
 0001:000ad190       _DSA_OpenSSL               100ae190 f   libcurl:dsa_ossl.obj
 0001:000ad1a0       _SSL_CTX_get_cert_store    100ae1a0 f   libcurl:ssl_lib.obj
 0001:000ad1a0       _Curl_llist_count          100ae1a0 f   libcurl:llist.obj
 0001:000ad1a0       _EVP_CIPHER_iv_length      100ae1a0 f   libcurl:evp_lib.obj
 0001:000ad1a0       _SSL_get_rbio              100ae1a0 f   libcurl:ssl_lib.obj
 0001:000ad1a0       _Curl_ftp_parselist_geterror 100ae1a0 f   libcurl:ftplistparser.obj
 0001:000ad1a0       _ENGINE_get_DSA            100ae1a0 f   libcurl:tb_dsa.obj
 0001:000ad1a0       _EC_KEY_get0_private_key   100ae1a0 f   libcurl:ec_key.obj
 0001:000ad1b0       _ENGINE_get_default_DSA    100ae1b0 f   libcurl:tb_dsa.obj
 0001:000ad1c0       _ENGINE_set_default_DSA    100ae1c0 f   libcurl:tb_dsa.obj
 0001:000ad200       _ASN1_d2i_bio              100ae200 f   libcurl:a_d2i_fp.obj
 0001:000ad260       _ASN1_item_d2i_bio         100ae260 f   libcurl:a_d2i_fp.obj
 0001:000ad580       _ECPKPARAMETERS_it         100ae580 f   libcurl:ec_asn1.obj
 0001:000ad590       _X9_62_PENTANOMIAL_it      100ae590 f   libcurl:ec_asn1.obj
 0001:000ad5b0       _X9_62_CHARACTERISTIC_TWO_it 100ae5b0 f   libcurl:ec_asn1.obj
 0001:000ad5d0       _X9_62_FIELDID_it          100ae5d0 f   libcurl:ec_asn1.obj
 0001:000ad5e0       _X9_62_CURVE_it            100ae5e0 f   libcurl:ec_asn1.obj
 0001:000ad5f0       _ECPARAMETERS_it           100ae5f0 f   libcurl:ec_asn1.obj
 0001:000ad600       _EC_GROUP_get_basis_type   100ae600 f   libcurl:ec_asn1.obj
 0001:000ad650       _EC_GROUP_get_pentanomial_basis 100ae650 f   libcurl:ec_asn1.obj
 0001:000ad6e0       _EC_GROUP_get_trinomial_basis 100ae6e0 f   libcurl:ec_asn1.obj
 0001:000ad740       _d2i_ECPKParameters        100ae740 f   libcurl:ec_asn1.obj
 0001:000ad810       _d2i_ECParameters          100ae810 f   libcurl:ec_asn1.obj
 0001:000ad8e0       _d2i_ECPrivateKey          100ae8e0 f   libcurl:ec_asn1.obj
 0001:000ae9f0       _i2d_ECPKParameters        100af9f0 f   libcurl:ec_asn1.obj
 0001:000aea80       _i2d_ECParameters          100afa80 f   libcurl:ec_asn1.obj
 0001:000aeac0       _i2d_ECPrivateKey          100afac0 f   libcurl:ec_asn1.obj
 0001:000aee10       _i2d_EC_PRIVATEKEY         100afe10 f   libcurl:ec_asn1.obj
 0001:000aee30       _i2o_ECPublicKey           100afe30 f   libcurl:ec_asn1.obj
 0001:000aef30       _o2i_ECPublicKey           100aff30 f   libcurl:ec_asn1.obj
 0001:000af000       _PKCS7_ISSUER_AND_SERIAL_it 100b0000 f   libcurl:pk7_asn1.obj
 0001:000af010       _PKCS7_SIGNER_INFO_it      100b0010 f   libcurl:pk7_asn1.obj
 0001:000af020       _PKCS7_RECIP_INFO_it       100b0020 f   libcurl:pk7_asn1.obj
 0001:000af030       _PKCS7_SIGNED_it           100b0030 f   libcurl:pk7_asn1.obj
 0001:000af040       _PKCS7_ENC_CONTENT_it      100b0040 f   libcurl:pk7_asn1.obj
 0001:000af050       _PKCS7_ENVELOPE_it         100b0050 f   libcurl:pk7_asn1.obj
 0001:000af060       _PKCS7_SIGN_ENVELOPE_it    100b0060 f   libcurl:pk7_asn1.obj
 0001:000af070       _PKCS7_DIGEST_it           100b0070 f   libcurl:pk7_asn1.obj
 0001:000af080       _PKCS7_ENCRYPT_it          100b0080 f   libcurl:pk7_asn1.obj
 0001:000af090       _PKCS7_it                  100b0090 f   libcurl:pk7_asn1.obj
 0001:000af170       _PKCS7_ATTR_SIGN_it        100b0170 f   libcurl:pk7_asn1.obj
 0001:000af180       _X509_SIG_free             100b0180 f   libcurl:x_sig.obj
 0001:000af1a0       _X509_SIG_it               100b01a0 f   libcurl:x_sig.obj
 0001:000af1b0       _d2i_X509_SIG              100b01b0 f   libcurl:x_sig.obj
 0001:000af1d0       _i2d_X509_SIG              100b01d0 f   libcurl:x_sig.obj
 0001:000af220       _X509_REQ_INFO_it          100b0220 f   libcurl:x_req.obj
 0001:000af230       _NETSCAPE_SPKAC_it         100b0230 f   libcurl:x_spki.obj
 0001:000af240       _ASN1_item_digest          100b0240 f   libcurl:a_digest.obj
 0001:000af2f0       _PKCS8_PRIV_KEY_INFO_free  100b02f0 f   libcurl:p8_pkey.obj
 0001:000af310       _PKCS8_PRIV_KEY_INFO_it    100b0310 f   libcurl:p8_pkey.obj
 0001:000af320       _PKCS8_pkey_get0           100b0320 f   libcurl:p8_pkey.obj
 0001:000af390       _PKCS8_pkey_set0           100b0390 f   libcurl:p8_pkey.obj
 0001:000af420       _d2i_PKCS8_PRIV_KEY_INFO   100b0420 f   libcurl:p8_pkey.obj
 0001:000af440       _EVP_PKCS82PKEY            100b0440 f   libcurl:evp_pkey.obj
 0001:000af570       _X509_PKEY_free            100b0570 f   libcurl:x_pkey.obj
 0001:000af5f0       _X509_PKEY_new             100b05f0 f   libcurl:x_pkey.obj
 0001:000af6b0       _asn1_do_adb               100b06b0 f   libcurl:tasn_utl.obj
 0001:000af750       _asn1_do_lock              100b0750 f   libcurl:tasn_utl.obj
 0001:000af7a0       _asn1_enc_free             100b07a0 f   libcurl:tasn_utl.obj
 0001:000af7f0       _asn1_enc_init             100b07f0 f   libcurl:tasn_utl.obj
 0001:000af830       _asn1_enc_restore          100b0830 f   libcurl:tasn_utl.obj
 0001:000af8a0       _asn1_enc_save             100b08a0 f   libcurl:tasn_utl.obj
 0001:000af920       _asn1_get_choice_selector  100b0920 f   libcurl:tasn_utl.obj
 0001:000af940       _asn1_get_field_ptr        100b0940 f   libcurl:tasn_utl.obj
 0001:000af960       _asn1_set_choice_selector  100b0960 f   libcurl:tasn_utl.obj
 0001:000af980       _ASN1_BIT_STRING_get_bit   100b0980 f   libcurl:a_bitstr.obj
 0001:000af9d0       _ASN1_BIT_STRING_set_bit   100b09d0 f   libcurl:a_bitstr.obj
 0001:000afaf0       _c2i_ASN1_BIT_STRING       100b0af0 f   libcurl:a_bitstr.obj
 0001:000afc20       _i2c_ASN1_BIT_STRING       100b0c20 f   libcurl:a_bitstr.obj
 0001:000afd30       _X509V3_get_section        100b0d30 f   libcurl:v3_conf.obj
 0001:000afd70       _X509V3_section_free       100b0d70 f   libcurl:v3_conf.obj
 0001:000b0160       _CERTIFICATEPOLICIES_it    100b1160 f   libcurl:v3_cpols.obj
 0001:000b0170       _POLICYINFO_it             100b1170 f   libcurl:v3_cpols.obj
 0001:000b0180       _POLICYQUALINFO_it         100b1180 f   libcurl:v3_cpols.obj
 0001:000b0190       _USERNOTICE_it             100b1190 f   libcurl:v3_cpols.obj
 0001:000b01a0       _NOTICEREF_it              100b11a0 f   libcurl:v3_cpols.obj
 0001:000b01b0       _POLICYINFO_free           100b11b0 f   libcurl:v3_cpols.obj
 0001:000b01d0       _POLICYQUALINFO_free       100b11d0 f   libcurl:v3_cpols.obj
 0001:000b0bc0       _POLICY_CONSTRAINTS_it     100b1bc0 f   libcurl:v3_pcons.obj
 0001:000b0bd0       _POLICY_CONSTRAINTS_free   100b1bd0 f   libcurl:v3_pcons.obj
 0001:000b0bf0       _policy_data_free          100b1bf0 f   libcurl:pcy_data.obj
 0001:000b0c30       _policy_data_new           100b1c30 f   libcurl:pcy_data.obj
 0001:000b0cf0       _policy_cache_set_mapping  100b1cf0 f   libcurl:pcy_map.obj
 0001:000b0e30       _ASN1_TYPE_get_int_octetstring 100b1e30 f   libcurl:evp_asn1.obj
 0001:000b0fb0       _ASN1_TYPE_get_octetstring 100b1fb0 f   libcurl:evp_asn1.obj
 0001:000b1000       _ASN1_TYPE_set_int_octetstring 100b2000 f   libcurl:evp_asn1.obj
 0001:000b1120       _ASN1_TYPE_set_octetstring 100b2120 f   libcurl:evp_asn1.obj
 0001:000b1170       _v2i_ASN1_BIT_STRING       100b2170 f   libcurl:v3_bitst.obj
 0001:000b1310       _i2v_ASN1_BIT_STRING       100b2310 f   libcurl:v3_bitst.obj
 0001:000b14b0       _EXTENDED_KEY_USAGE_it     100b24b0 f   libcurl:v3_extku.obj
 0001:000b1540       _PKEY_USAGE_PERIOD_it      100b2540 f   libcurl:v3_pku.obj
 0001:000b1690       _SXNET_it                  100b2690 f   libcurl:v3_sxnet.obj
 0001:000b16a0       _SXNETID_it                100b26a0 f   libcurl:v3_sxnet.obj
 0001:000b16b0       _SXNET_add_id_INTEGER      100b26b0 f   libcurl:v3_sxnet.obj
 0001:000b1840       _SXNET_get_id_INTEGER      100b2840 f   libcurl:v3_sxnet.obj
 0001:000b1990       _i2s_ASN1_OCTET_STRING     100b2990 f   libcurl:v3_skey.obj
 0001:000b1b20       _s2i_ASN1_OCTET_STRING     100b2b20 f   libcurl:v3_skey.obj
 0001:000b1f70       _i2s_ASN1_ENUMERATED_TABLE 100b2f70 f   libcurl:v3_enum.obj
 0001:000b2e70       _POLICY_MAPPING_it         100b3e70 f   libcurl:v3_pmaps.obj
 0001:000b2e80       _POLICY_MAPPINGS_it        100b3e80 f   libcurl:v3_pmaps.obj
 0001:000b2e90       _POLICY_MAPPING_free       100b3e90 f   libcurl:v3_pmaps.obj
 0001:000b2eb0       _EVP_BytesToKey            100b3eb0 f   libcurl:evp_key.obj
 0001:000b3160       _EVP_get_pw_prompt         100b4160 f   libcurl:evp_key.obj
 0001:000b3180       _EVP_read_pw_string_min    100b4180 f   libcurl:evp_key.obj
 0001:000b3270       _EVP_DecodeBlock           100b4270 f   libcurl:encode.obj
 0001:000b33c0       _EVP_DecodeFinal           100b43c0 f   libcurl:encode.obj
 0001:000b3410       _EVP_DecodeInit            100b4410 f   libcurl:encode.obj
 0001:000b3430       _EVP_DecodeUpdate          100b4430 f   libcurl:encode.obj
 0001:000b35d0       _EVP_EncodeBlock           100b45d0 f   libcurl:encode.obj
 0001:000b36d0       _EVP_EncodeFinal           100b46d0 f   libcurl:encode.obj
 0001:000b3720       _EVP_EncodeInit            100b4720 f   libcurl:encode.obj
 0001:000b3740       _EVP_EncodeUpdate          100b4740 f   libcurl:encode.obj
 0001:000b3870       _BN_add                    100b4870 f   libcurl:bn_add.obj
 0001:000b3900       _BN_sub                    100b4900 f   libcurl:bn_add.obj
 0001:000b39d0       _BN_uadd                   100b49d0 f   libcurl:bn_add.obj
 0001:000b3aa0       _BN_usub                   100b4aa0 f   libcurl:bn_add.obj
 0001:000b3c20       _BN_mul                    100b4c20 f   libcurl:bn_mul.obj
 0001:000b3ef0       _bn_mul_normal             100b4ef0 f   libcurl:bn_mul.obj
 0001:000b4000       _bn_mul_part_recursive     100b5000 f   libcurl:bn_mul.obj
 0001:000b4440       _bn_mul_recursive          100b5440 f   libcurl:bn_mul.obj
 0001:000b4840       _bn_sub_part_words         100b5840 f   libcurl:bn_mul.obj
 0001:000b49b0       _BN_gcd                    100b59b0 f   libcurl:bn_gcd.obj
 0001:000b4a50       _BN_mod_inverse            100b5a50 f   libcurl:bn_gcd.obj
 0001:000b53c0       _ENGINE_get_cipher         100b63c0 f   libcurl:tb_cipher.obj
 0001:000b5410       _ENGINE_get_cipher_engine  100b6410 f   libcurl:tb_cipher.obj
 0001:000b5430       _ENGINE_set_default_ciphers 100b6430 f   libcurl:tb_cipher.obj
 0001:000b5990       _X509_LOOKUP_hash_dir      100b6990 f   libcurl:by_dir.obj
 0001:000b5c00       _SRP_Calc_A                100b6c00 f   libcurl:srp_lib.obj
 0001:000b5c70       _SRP_Calc_B                100b6c70 f   libcurl:srp_lib.obj
 0001:000b5d80       _SRP_Calc_client_key       100b6d80 f   libcurl:srp_lib.obj
 0001:000b5f20       _SRP_Calc_server_key       100b6f20 f   libcurl:srp_lib.obj
 0001:000b5ff0       _SRP_Calc_u                100b6ff0 f   libcurl:srp_lib.obj
 0001:000b6160       _SRP_Calc_x                100b7160 f   libcurl:srp_lib.obj
 0001:000b6300       _SRP_Verify_A_mod_N        100b7300 f   libcurl:srp_lib.obj
 0001:000b6310       _SRP_Verify_B_mod_N        100b7310 f   libcurl:srp_lib.obj
 0001:000b6370       _SRP_check_known_gN_param  100b7370 f   libcurl:srp_lib.obj
 0001:000b6510       _ssl3_cbc_copy_mac         100b7510 f   libcurl:s3_cbc.obj
 0001:000b6710       _ssl3_cbc_digest_record    100b7710 f   libcurl:s3_cbc.obj
 0001:000b70c0       _ssl3_cbc_record_digest_supported 100b80c0 f   libcurl:s3_cbc.obj
 0001:000b70f0       _ssl3_cbc_remove_padding   100b80f0 f   libcurl:s3_cbc.obj
 0001:000b7160       _tls1_cbc_remove_padding   100b8160 f   libcurl:s3_cbc.obj
 0001:000b7800       _BIGNUM_it                 100b8800 f   libcurl:x_bignum.obj
 0001:000b7810       _CBIGNUM_it                100b8810 f   libcurl:x_bignum.obj
 0001:000b7990       _LONG_it                   100b8990 f   libcurl:x_long.obj
 0001:000b79a0       _ZLONG_it                  100b89a0 f   libcurl:x_long.obj
 0001:000b79b0       _PKCS8_decrypt             100b89b0 f   libcurl:p12_p8d.obj
 0001:000b79e0       _ERR_load_CRYPTO_strings   100b89e0 f   libcurl:cpt_err.obj
 0001:000b7a10       _ERR_load_BIO_strings      100b8a10 f   libcurl:bio_err.obj
 0001:000b7a40       _ERR_load_BN_strings       100b8a40 f   libcurl:bn_err.obj
 0001:000b7a70       _ERR_load_ASN1_strings     100b8a70 f   libcurl:asn1_err.obj
 0001:000b7aa0       _ERR_load_EC_strings       100b8aa0 f   libcurl:ec_err.obj
 0001:000b7ad0       _ERR_load_BUF_strings      100b8ad0 f   libcurl:buf_err.obj
 0001:000b7b00       _ERR_load_COMP_strings     100b8b00 f   libcurl:comp_err.obj
 0001:000b7b30       _ERR_load_RSA_strings      100b8b30 f   libcurl:rsa_err.obj
 0001:000b7b60       _ERR_load_DH_strings       100b8b60 f   libcurl:dh_err.obj
 0001:000b7b90       _ERR_load_DSA_strings      100b8b90 f   libcurl:dsa_err.obj
 0001:000b7bc0       _ERR_load_ECDSA_strings    100b8bc0 f   libcurl:ecs_err.obj
 0001:000b7bf0       _ERR_load_ECDH_strings     100b8bf0 f   libcurl:ech_err.obj
 0001:000b7c20       _ERR_load_OBJ_strings      100b8c20 f   libcurl:obj_err.obj
 0001:000b7c50       _ERR_load_EVP_strings      100b8c50 f   libcurl:evp_err.obj
 0001:000b7c80       _ERR_load_PEM_strings      100b8c80 f   libcurl:pem_err.obj
 0001:000b7cb0       _ERR_load_PKCS7_strings    100b8cb0 f   libcurl:pkcs7err.obj
 0001:000b7ce0       _ERR_load_X509_strings     100b8ce0 f   libcurl:x509_err.obj
 0001:000b7d10       _ERR_load_CONF_strings     100b8d10 f   libcurl:conf_err.obj
 0001:000b7d40       _ERR_load_X509V3_strings   100b8d40 f   libcurl:v3err.obj
 0001:000b7d70       _ERR_load_PKCS12_strings   100b8d70 f   libcurl:pk12err.obj
 0001:000b7da0       _ERR_load_RAND_strings     100b8da0 f   libcurl:rand_err.obj
 0001:000b7dd0       _ERR_load_DSO_strings      100b8dd0 f   libcurl:dso_err.obj
 0001:000b7e00       _ERR_load_UI_strings       100b8e00 f   libcurl:ui_err.obj
 0001:000b7e30       _ERR_load_ENGINE_strings   100b8e30 f   libcurl:eng_err.obj
 0001:000b7e60       _ERR_load_OCSP_strings     100b8e60 f   libcurl:ocsp_err.obj
 0001:000b7e90       _ERR_load_TS_strings       100b8e90 f   libcurl:ts_err.obj
 0001:000b7ec0       _ERR_load_CMS_strings      100b8ec0 f   libcurl:cms_err.obj
 0001:000b8520       _tls1_alert_code           100b9520 f   libcurl:t1_enc.obj
 0001:000b86f0       _tls1_cert_verify_mac      100b96f0 f   libcurl:t1_enc.obj
 0001:000b87f0       _tls1_change_cipher_state  100b97f0 f   libcurl:t1_enc.obj
 0001:000b8e80       _tls1_enc                  100b9e80 f   libcurl:t1_enc.obj
 0001:000b92d0       _tls1_export_keying_material 100ba2d0 f   libcurl:t1_enc.obj
 0001:000b9520       _tls1_final_finish_mac     100ba520 f   libcurl:t1_enc.obj
 0001:000b9770       _tls1_generate_master_secret 100ba770 f   libcurl:t1_enc.obj
 0001:000b9800       _tls1_mac                  100ba800 f   libcurl:t1_enc.obj
 0001:000b9a90       _tls1_setup_key_block      100baa90 f   libcurl:t1_enc.obj
 0001:000b9cb0       _HMAC_CTX_cleanup          100bacb0 f   libcurl:hmac.obj
 0001:000b9cf0       _HMAC_CTX_copy             100bacf0 f   libcurl:hmac.obj
 0001:000b9d60       _HMAC_CTX_init             100bad60 f   libcurl:hmac.obj
 0001:000b9d90       _HMAC_CTX_set_flags        100bad90 f   libcurl:hmac.obj
 0001:000b9dc0       _HMAC_Final                100badc0 f   libcurl:hmac.obj
 0001:000b9e70       _HMAC_Init_ex              100bae70 f   libcurl:hmac.obj
 0001:000ba080       _HMAC_Update               100bb080 f   libcurl:hmac.obj
 0001:000ba0a0       _SSL_get_srtp_profiles     100bb0a0 f   libcurl:d1_srtp.obj
 0001:000ba0d0       _ssl_add_clienthello_use_srtp_ext 100bb0d0 f   libcurl:d1_srtp.obj
 0001:000ba1c0       _ssl_add_serverhello_use_srtp_ext 100bb1c0 f   libcurl:d1_srtp.obj
 0001:000ba260       _ssl_parse_clienthello_use_srtp_ext 100bb260 f   libcurl:d1_srtp.obj
 0001:000ba3e0       _ssl_parse_serverhello_use_srtp_ext 100bb3e0 f   libcurl:d1_srtp.obj
 0001:000ba550       _ssl_add_clienthello_renegotiate_ext 100bb550 f   libcurl:t1_reneg.obj
 0001:000ba5d0       _ssl_add_serverhello_renegotiate_ext 100bb5d0 f   libcurl:t1_reneg.obj
 0001:000ba690       _ssl_parse_clienthello_renegotiate_ext 100bb690 f   libcurl:t1_reneg.obj
 0001:000ba7e0       _ssl_parse_serverhello_renegotiate_ext 100bb7e0 f   libcurl:t1_reneg.obj
 0001:000baa50       _SSLv23_method             100bba50 f   libcurl:s23_meth.obj
 0001:000baa60       _dtls1_heartbeat           100bba60 f   libcurl:d1_both.obj
 0001:000baba0       _BN_mod_exp                100bbba0 f   libcurl:bn_exp.obj
 0001:000bac10       _BN_mod_exp_mont           100bbc10 f   libcurl:bn_exp.obj
 0001:000bb050       _BN_mod_exp_mont_consttime 100bc050 f   libcurl:bn_exp.obj
 0001:000bb550       _BN_mod_exp_mont_word      100bc550 f   libcurl:bn_exp.obj
 0001:000bb900       _BN_mod_exp_recp           100bc900 f   libcurl:bn_exp.obj
 0001:000bbf50       _BN_MONT_CTX_copy          100bcf50 f   libcurl:bn_mont.obj
 0001:000bbfc0       _BN_MONT_CTX_free          100bcfc0 f   libcurl:bn_mont.obj
 0001:000bc000       _BN_MONT_CTX_new           100bd000 f   libcurl:bn_mont.obj
 0001:000bc060       _BN_MONT_CTX_set           100bd060 f   libcurl:bn_mont.obj
 0001:000bc1f0       _BN_MONT_CTX_set_locked    100bd1f0 f   libcurl:bn_mont.obj
 0001:000bc2a0       _BN_from_montgomery        100bd2a0 f   libcurl:bn_mont.obj
 0001:000bc580       _BN_mod_mul_montgomery     100bd580 f   libcurl:bn_mont.obj
 0001:000bc5f0       _DH_check_pub_key          100bd5f0 f   libcurl:dh_check.obj
 0001:000bc670       _DSA_SIG_free              100bd670 f   libcurl:dsa_sign.obj
 0001:000bc6b0       _DSA_SIG_new               100bd6b0 f   libcurl:dsa_sign.obj
 0001:000bc6e0       _DSA_do_sign               100bd6e0 f   libcurl:dsa_sign.obj
 0001:000bc6f0       _DSA_sign_setup            100bd6f0 f   libcurl:dsa_sign.obj
 0001:000bc700       _DSA_do_verify             100bd700 f   libcurl:dsa_vrf.obj
 0001:000be900       _ENGINE_get_pkey_meth      100bf900 f   libcurl:tb_pkmeth.obj
 0001:000be950       _ENGINE_get_pkey_meth_engine 100bf950 f   libcurl:tb_pkmeth.obj
 0001:000be970       _ENGINE_set_default_pkey_meths 100bf970 f   libcurl:tb_pkmeth.obj
 0001:000be9c0       _engine_pkey_meths_free    100bf9c0 f   libcurl:tb_pkmeth.obj
 0001:000bed80       _ec_wNAF_have_precompute_mult 100bfd80 f   libcurl:ec_mult.obj
 0001:000bedb0       _ec_wNAF_mul               100bfdb0 f   libcurl:ec_mult.obj
 0001:000bf7c0       _ec_wNAF_precompute_mult   100c07c0 f   libcurl:ec_mult.obj
 0001:000bfc20       _EC_GROUP_new_curve_GF2m   100c0c20 f   libcurl:ec_cvt.obj
 0001:000bfc70       _EC_GROUP_new_curve_GFp    100c0c70 f   libcurl:ec_cvt.obj
 0001:000bfd20       _ec_GFp_simple_oct2point   100c0d20 f   libcurl:ecp_oct.obj
 0001:000bff80       _ec_GFp_simple_point2oct   100c0f80 f   libcurl:ecp_oct.obj
 0001:000c0250       _ec_GFp_simple_set_compressed_coordinates 100c1250 f   libcurl:ecp_oct.obj
 0001:000c0590       _ec_GF2m_simple_oct2point  100c1590 f   libcurl:ec2_oct.obj
 0001:000c0840       _ec_GF2m_simple_point2oct  100c1840 f   libcurl:ec2_oct.obj
 0001:000c0b60       _ec_GF2m_simple_set_compressed_coordinates 100c1b60 f   libcurl:ec2_oct.obj
 0001:000c0d90       _ECDSA_SIG_free            100c1d90 f   libcurl:ecs_asn1.obj
 0001:000c0db0       _ECDSA_SIG_new             100c1db0 f   libcurl:ecs_asn1.obj
 0001:000c0dc0       _d2i_ECDSA_SIG             100c1dc0 f   libcurl:ecs_asn1.obj
 0001:000c0de0       _i2d_ECDSA_SIG             100c1de0 f   libcurl:ecs_asn1.obj
 0001:000c0ec0       _ECDSA_size                100c1ec0 f   libcurl:ecs_lib.obj
 0001:000c0f70       _ecdsa_check               100c1f70 f   libcurl:ecs_lib.obj
 0001:000c1110       _ecdh_check                100c2110 f   libcurl:ech_lib.obj
 0001:000c11e0       _ECDSA_verify              100c21e0 f   libcurl:ecs_vrf.obj
 0001:000c1300       _DES_decrypt3              100c2300 f   libcurl:des_enc.obj
 0001:000c1410       _DES_ede3_cbc_encrypt      100c2410 f   libcurl:des_enc.obj
 0001:000c1940       _DES_encrypt1              100c2940 f   libcurl:des_enc.obj
 0001:000c1c70       _DES_encrypt2              100c2c70 f   libcurl:des_enc.obj
 0001:000c1ef0       _DES_encrypt3              100c2ef0 f   libcurl:des_enc.obj
 0001:000c2000       _DES_ncbc_encrypt          100c3000 f   libcurl:des_enc.obj
 0001:000c2510       _DES_cfb_encrypt           100c3510 f   libcurl:cfb_enc.obj
 0001:000c2b80       _DES_cfb64_encrypt         100c3b80 f   libcurl:cfb64enc.obj
 0001:000c2d90       _DES_ofb64_encrypt         100c3d90 f   libcurl:ofb64enc.obj
 0001:000c2f70       _DES_ecb3_encrypt          100c3f70 f   libcurl:ecb3_enc.obj
 0001:000c3030       _DES_ede3_cfb64_encrypt    100c4030 f   libcurl:cfb64ede.obj
 0001:000c3260       _DES_ede3_cfb_encrypt      100c4260 f   libcurl:cfb64ede.obj
 0001:000c3a40       _DES_ede3_ofb64_encrypt    100c4a40 f   libcurl:ofb64ede.obj
 0001:000c3c40       _RC4_set_key               100c4c40 f   libcurl:rc4_utl.obj
 0001:000c3c50       _RC4                       100c4c50 f   libcurl:rc4_enc.obj
 0001:000c4090       _idea_ecb_encrypt          100c5090 f   libcurl:i_ecb.obj
 0001:000c4140       _idea_set_decrypt_key      100c5140 f   libcurl:i_skey.obj
 0001:000c41d0       _idea_set_encrypt_key      100c51d0 f   libcurl:i_skey.obj
 0001:000c43a0       _idea_cbc_encrypt          100c53a0 f   libcurl:i_cbc.obj
 0001:000c4880       _idea_encrypt              100c5880 f   libcurl:i_cbc.obj
 0001:000c5030       _idea_cfb64_encrypt        100c6030 f   libcurl:i_cfb64.obj
 0001:000c5250       _idea_ofb64_encrypt        100c6250 f   libcurl:i_ofb64.obj
 0001:000c5430       _RC2_set_key               100c6430 f   libcurl:rc2_skey.obj
 0001:000c5540       _RC2_ecb_encrypt           100c6540 f   libcurl:rc2_ecb.obj
 0001:000c5600       _RC2_cbc_encrypt           100c6600 f   libcurl:rc2_cbc.obj
 0001:000c5ae0       _RC2_decrypt               100c6ae0 f   libcurl:rc2_cbc.obj
 0001:000c5c60       _RC2_encrypt               100c6c60 f   libcurl:rc2_cbc.obj
 0001:000c5dc0       _RC2_cfb64_encrypt         100c6dc0 f   libcurl:rc2cfb64.obj
 0001:000c5fd0       _RC2_ofb64_encrypt         100c6fd0 f   libcurl:rc2ofb64.obj
 0001:000c61b0       _AES_set_decrypt_key       100c71b0 f   libcurl:aes_misc.obj
 0001:000c61c0       _AES_set_encrypt_key       100c71c0 f   libcurl:aes_misc.obj
 0001:000c61d0       _AES_decrypt               100c71d0 f   libcurl:aes_core.obj
 0001:000c6770       _AES_encrypt               100c7770 f   libcurl:aes_core.obj
 0001:000c6d40       _private_AES_set_decrypt_key 100c7d40 f   libcurl:aes_core.obj
 0001:000c6f40       _private_AES_set_encrypt_key 100c7f40 f   libcurl:aes_core.obj
 0001:000c7440       _AES_cbc_encrypt           100c8440 f   libcurl:aes_cbc.obj
 0001:000c7470       _CRYPTO_cbc128_decrypt     100c8470 f   libcurl:cbc128.obj
 0001:000c7720       _CRYPTO_cbc128_encrypt     100c8720 f   libcurl:cbc128.obj
 0001:000c78c0       _CRYPTO_ctr128_encrypt     100c88c0 f   libcurl:ctr128.obj
 0001:000c79e0       _CRYPTO_ctr128_encrypt_ctr32 100c89e0 f   libcurl:ctr128.obj
 0001:000c7bd0       _CRYPTO_ofb128_encrypt     100c8bd0 f   libcurl:ofb128.obj
 0001:000c7ce0       _CRYPTO_cfb128_1_encrypt   100c8ce0 f   libcurl:cfb128.obj
 0001:000c7e90       _CRYPTO_cfb128_8_encrypt   100c8e90 f   libcurl:cfb128.obj
 0001:000c7f30       _CRYPTO_cfb128_encrypt     100c8f30 f   libcurl:cfb128.obj
 0001:000c81b0       _CRYPTO_gcm128_aad         100c91b0 f   libcurl:gcm128.obj
 0001:000c8280       _CRYPTO_gcm128_decrypt     100c9280 f   libcurl:gcm128.obj
 0001:000c8550       _CRYPTO_gcm128_decrypt_ctr32 100c9550 f   libcurl:gcm128.obj
 0001:000c87c0       _CRYPTO_gcm128_encrypt     100c97c0 f   libcurl:gcm128.obj
 0001:000c8aa0       _CRYPTO_gcm128_encrypt_ctr32 100c9aa0 f   libcurl:gcm128.obj
 0001:000c8d10       _CRYPTO_gcm128_finish      100c9d10 f   libcurl:gcm128.obj
 0001:000c8e50       _CRYPTO_gcm128_init        100c9e50 f   libcurl:gcm128.obj
 0001:000c8f30       _CRYPTO_gcm128_setiv       100c9f30 f   libcurl:gcm128.obj
 0001:000c9180       _CRYPTO_gcm128_tag         100ca180 f   libcurl:gcm128.obj
 0001:000c99a0       _CRYPTO_ccm128_aad         100ca9a0 f   libcurl:ccm128.obj
 0001:000c9a60       _CRYPTO_ccm128_decrypt     100caa60 f   libcurl:ccm128.obj
 0001:000c9c90       _CRYPTO_ccm128_decrypt_ccm64 100cac90 f   libcurl:ccm128.obj
 0001:000c9e50       _CRYPTO_ccm128_encrypt     100cae50 f   libcurl:ccm128.obj
 0001:000ca160       _CRYPTO_ccm128_encrypt_ccm64 100cb160 f   libcurl:ccm128.obj
 0001:000ca420       _CRYPTO_ccm128_init        100cb420 f   libcurl:ccm128.obj
 0001:000ca470       _CRYPTO_ccm128_setiv       100cb470 f   libcurl:ccm128.obj
 0001:000ca4e0       _CRYPTO_ccm128_tag         100cb4e0 f   libcurl:ccm128.obj
 0001:000ca560       _CRYPTO_xts128_encrypt     100cb560 f   libcurl:xts128.obj
 0001:000ca8b0       _Camellia_set_key          100cb8b0 f   libcurl:cmll_utl.obj
 0001:000ca8c0       _Camellia_ecb_encrypt      100cb8c0 f   libcurl:cmll_ecb.obj
 0001:000ca8f0       _Camellia_cbc_encrypt      100cb8f0 f   libcurl:cmll_cbc.obj
 0001:000ca920       _Camellia_cfb128_encrypt   100cb920 f   libcurl:cmll_cfb.obj
 0001:000ca950       _Camellia_cfb1_encrypt     100cb950 f   libcurl:cmll_cfb.obj
 0001:000ca980       _Camellia_cfb8_encrypt     100cb980 f   libcurl:cmll_cfb.obj
 0001:000ca9b0       _Camellia_ofb128_encrypt   100cb9b0 f   libcurl:cmll_ofb.obj
 0001:000ca9e0       _SEED_decrypt              100cb9e0 f   libcurl:seed.obj
 0001:000cb740       _SEED_encrypt              100cc740 f   libcurl:seed.obj
 0001:000cc4a0       _SEED_set_key              100cd4a0 f   libcurl:seed.obj
 0001:000ccf30       _SEED_ecb_encrypt          100cdf30 f   libcurl:seed_ecb.obj
 0001:000ccf60       _SEED_cbc_encrypt          100cdf60 f   libcurl:seed_cbc.obj
 0001:000ccf90       _SEED_cfb128_encrypt       100cdf90 f   libcurl:seed_cfb.obj
 0001:000ccfc0       _SEED_ofb128_encrypt       100cdfc0 f   libcurl:seed_ofb.obj
 0001:000ccff0       _RAND_poll                 100cdff0 f   libcurl:rand_win.obj
 0001:000cda00       _ENGINE_by_id              100cea00 f   libcurl:eng_list.obj
 0001:000cdc60       _engine_table_cleanup      100cec60 f   libcurl:eng_table.obj
 0001:000cdcc0       _engine_table_doall        100cecc0 f   libcurl:eng_table.obj
 0001:000cdd00       _engine_table_register     100ced00 f   libcurl:eng_table.obj
 0001:000cde90       _engine_table_select       100cee90 f   libcurl:eng_table.obj
 0001:000ce7e0       _NCONF_default             100cf7e0 f   libcurl:conf_def.obj
 0001:000cede0       __CONF_add_string          100cfde0 f   libcurl:conf_api.obj
 0001:000cee40       __CONF_free_data           100cfe40 f   libcurl:conf_api.obj
 0001:000cee80       __CONF_get_section         100cfe80 f   libcurl:conf_api.obj
 0001:000ceec0       __CONF_get_section_values  100cfec0 f   libcurl:conf_api.obj
 0001:000cef10       __CONF_get_string          100cff10 f   libcurl:conf_api.obj
 0001:000cefe0       __CONF_new_data            100cffe0 f   libcurl:conf_api.obj
 0001:000cf020       __CONF_new_section         100d0020 f   libcurl:conf_api.obj
 0001:000cf250       _DSO_METHOD_openssl        100d0250 f   libcurl:dso_openssl.obj
 0001:000cf260       _ENGINE_cmd_is_executable  100d0260 f   libcurl:eng_ctrl.obj
 0001:000cf2b0       _ENGINE_ctrl               100d02b0 f   libcurl:eng_ctrl.obj
 0001:000cf3d0       _ENGINE_ctrl_cmd_string    100d03d0 f   libcurl:eng_ctrl.obj
 0001:000cf820       _ENGINE_set_default        100d0820 f   libcurl:eng_fat.obj
 0001:000cf900       _ENGINE_set_default_string 100d0900 f   libcurl:eng_fat.obj
 0001:000cfb40       _OPENSSL_gmtime            100d0b40 f   libcurl:o_time.obj
 0001:000cfb70       _OPENSSL_gmtime_adj        100d0b70 f   libcurl:o_time.obj
 0001:000cfe10       _ASN1_UTCTIME_adj          100d0e10 f   libcurl:a_utctm.obj
 0001:000cff70       _ASN1_UTCTIME_check        100d0f70 f   libcurl:a_utctm.obj
 0001:000d00b0       _X509_policy_check         100d10b0 f   libcurl:pcy_tree.obj
 0001:000d0230       _X509_policy_tree_free     100d1230 f   libcurl:pcy_tree.obj
 0001:000d0c70       _EVP_DigestSignFinal       100d1c70 f   libcurl:m_sigver.obj
 0001:000d0db0       _EVP_DigestSignInit        100d1db0 f   libcurl:m_sigver.obj
 0001:000d0dd0       _EVP_DigestVerifyFinal     100d1dd0 f   libcurl:m_sigver.obj
 0001:000d0ed0       _EVP_DigestVerifyInit      100d1ed0 f   libcurl:m_sigver.obj
 0001:000d1010       _ASN1_generate_v3          100d2010 f   libcurl:asn1_gen.obj
 0001:000d1ef0       _ASN1_bn_print             100d2ef0 f   libcurl:t_pkey.obj
 0001:000d20b0       _PKCS7_RECIP_INFO_get0_alg 100d30b0 f   libcurl:pk7_lib.obj
 0001:000d20d0       _PKCS7_SIGNER_INFO_get0_algs 100d30d0 f   libcurl:pk7_lib.obj
 0001:000d2100       _PKCS7_ctrl                100d3100 f   libcurl:pk7_lib.obj
 0001:000d21c0       _PKCS7_stream              100d31c0 f   libcurl:pk7_lib.obj
 0001:000d2270       _CMS_RecipientInfo_ktri_get0_algs 100d3270 f   libcurl:cms_env.obj
 0001:000d22d0       _cms_EnvelopedData_init_bio 100d32d0 f   libcurl:cms_env.obj
 0001:000d26d0       _CMS_SignerInfo_get0_algs  100d36d0 f   libcurl:cms_sd.obj
 0001:000d2710       _CMS_SignerInfo_sign       100d3710 f   libcurl:cms_sd.obj
 0001:000d2930       _cms_SignedData_final      100d3930 f   libcurl:cms_sd.obj
 0001:000d29d0       _cms_SignedData_init_bio   100d39d0 f   libcurl:cms_sd.obj
 0001:000d2d90       _EC_POINT_point2bn         100d3d90 f   libcurl:ec_print.obj
 0001:000d2e20       _ECPKParameters_print      100d3e20 f   libcurl:eck_prn.obj
 0001:000d34e0       _CMAC_CTX_cleanup          100d44e0 f   libcurl:cmac.obj
 0001:000d3540       _CMAC_CTX_copy             100d4540 f   libcurl:cmac.obj
 0001:000d35e0       _CMAC_CTX_free             100d45e0 f   libcurl:cmac.obj
 0001:000d3600       _CMAC_CTX_new              100d4600 f   libcurl:cmac.obj
 0001:000d3640       _CMAC_Final                100d4640 f   libcurl:cmac.obj
 0001:000d3720       _CMAC_Init                 100d4720 f   libcurl:cmac.obj
 0001:000d3890       _CMAC_Update               100d4890 f   libcurl:cmac.obj
 0001:000d39d0       _DES_xcbc_encrypt          100d49d0 f   libcurl:xcbc_enc.obj
 0001:000d3fa0       _BF_set_key                100d4fa0 f   libcurl:bf_skey.obj
 0001:000d4090       _BF_ecb_encrypt            100d5090 f   libcurl:bf_ecb.obj
 0001:000d4150       _BF_cbc_encrypt            100d5150 f   libcurl:bf_enc.obj
 0001:000d4630       _BF_decrypt                100d5630 f   libcurl:bf_enc.obj
 0001:000d4a00       _BF_encrypt                100d5a00 f   libcurl:bf_enc.obj
 0001:000d4dd0       _BF_cfb64_encrypt          100d5dd0 f   libcurl:bf_cfb64.obj
 0001:000d4ff0       _BF_ofb64_encrypt          100d5ff0 f   libcurl:bf_ofb64.obj
 0001:000d51d0       _CAST_set_key              100d61d0 f   libcurl:c_skey.obj
 0001:000d6430       _CAST_ecb_encrypt          100d7430 f   libcurl:c_ecb.obj
 0001:000d64f0       _CAST_cbc_encrypt          100d74f0 f   libcurl:c_enc.obj
 0001:000d69d0       _CAST_decrypt              100d79d0 f   libcurl:c_enc.obj
 0001:000d6e40       _CAST_encrypt              100d7e40 f   libcurl:c_enc.obj
 0001:000d72b0       _CAST_cfb64_encrypt        100d82b0 f   libcurl:c_cfb64.obj
 0001:000d74d0       _CAST_ofb64_encrypt        100d84d0 f   libcurl:c_ofb64.obj
 0001:000d76b0       _SHA_Final                 100d86b0 f   libcurl:sha_dgst.obj
 0001:000d77f0       _SHA_Update                100d87f0 f   libcurl:sha_dgst.obj
 0001:000d8d70       _RSA_sign_ASN1_OCTET_STRING 100d9d70 f   libcurl:rsa_saos.obj
 0001:000d8e70       _RSA_verify_ASN1_OCTET_STRING 100d9e70 f   libcurl:rsa_saos.obj
 0001:000d8fe0       _MDC2_Final                100d9fe0 f   libcurl:mdc2dgst.obj
 0001:000d9050       _MDC2_Init                 100da050 f   libcurl:mdc2dgst.obj
 0001:000d9090       _MDC2_Update               100da090 f   libcurl:mdc2dgst.obj
 0001:000d92f0       _RIPEMD160_Final           100da2f0 f   libcurl:rmd_dgst.obj
 0001:000d9430       _RIPEMD160_Update          100da430 f   libcurl:rmd_dgst.obj
 0001:000d9510       _ripemd160_block_data_order 100da510 f   libcurl:rmd_dgst.obj
 0001:000dab90       _WHIRLPOOL_BitUpdate       100dbb90 f   libcurl:wp_dgst.obj
 0001:000dae20       _WHIRLPOOL_Final           100dbe20 f   libcurl:wp_dgst.obj
 0001:000daf20       _WHIRLPOOL_Init            100dbf20 f   libcurl:wp_dgst.obj
 0001:000daf40       _WHIRLPOOL_Update          100dbf40 f   libcurl:wp_dgst.obj
 0001:000db170       _PBEPARAM_free             100dc170 f   libcurl:p5_pbe.obj
 0001:000db190       _d2i_PBEPARAM              100dc190 f   libcurl:p5_pbe.obj
 0001:000db1b0       _PBE2PARAM_free            100dc1b0 f   libcurl:p5_pbev2.obj
 0001:000db1d0       _PBKDF2PARAM_free          100dc1d0 f   libcurl:p5_pbev2.obj
 0001:000db1f0       _d2i_PBE2PARAM             100dc1f0 f   libcurl:p5_pbev2.obj
 0001:000db210       _d2i_PBKDF2PARAM           100dc210 f   libcurl:p5_pbev2.obj
 0001:000db230       _PKCS12_key_gen_asc        100dc230 f   libcurl:p12_key.obj
 0001:000db2e0       _PKCS12_key_gen_uni        100dc2e0 f   libcurl:p12_key.obj
 0001:000db770       _BN_mod_add                100dc770 f   libcurl:bn_mod.obj
 0001:000db7e0       _BN_mod_add_quick          100dc7e0 f   libcurl:bn_mod.obj
 0001:000db830       _BN_mod_lshift1_quick      100dc830 f   libcurl:bn_mod.obj
 0001:000db870       _BN_mod_lshift_quick       100dc870 f   libcurl:bn_mod.obj
 0001:000db930       _BN_mod_mul                100dc930 f   libcurl:bn_mod.obj
 0001:000db9b0       _BN_mod_sqr                100dc9b0 f   libcurl:bn_mod.obj
 0001:000db9f0       _BN_mod_sub                100dc9f0 f   libcurl:bn_mod.obj
 0001:000dba60       _BN_mod_sub_quick          100dca60 f   libcurl:bn_mod.obj
 0001:000dbaa0       _BN_nnmod                  100dcaa0 f   libcurl:bn_mod.obj
 0001:000dbaf0       _BN_div                    100dcaf0 f   libcurl:bn_div.obj
 0001:000dc010       _RSA_padding_add_PKCS1_type_1 100dd010 f   libcurl:rsa_pk1.obj
 0001:000dc080       _RSA_padding_add_PKCS1_type_2 100dd080 f   libcurl:rsa_pk1.obj
 0001:000dc130       _RSA_padding_check_PKCS1_type_1 100dd130 f   libcurl:rsa_pk1.obj
 0001:000dc230       _RSA_padding_check_PKCS1_type_2 100dd230 f   libcurl:rsa_pk1.obj
 0001:000dc3e0       _PKCS1_MGF1                100dd3e0 f   libcurl:rsa_oaep.obj
 0001:000dc560       _RSA_padding_add_PKCS1_OAEP 100dd560 f   libcurl:rsa_oaep.obj
 0001:000dc7e0       _RSA_padding_check_PKCS1_OAEP 100dd7e0 f   libcurl:rsa_oaep.obj
 0001:000dcb60       _RSA_padding_add_SSLv23    100ddb60 f   libcurl:rsa_ssl.obj
 0001:000dcc10       _RSA_padding_check_SSLv23  100ddc10 f   libcurl:rsa_ssl.obj
 0001:000dcd20       _RSA_padding_add_none      100ddd20 f   libcurl:rsa_none.obj
 0001:000dcd80       _RSA_padding_check_none    100ddd80 f   libcurl:rsa_none.obj
 0001:000dcde0       _RSA_X931_hash_id          100ddde0 f   libcurl:rsa_x931.obj
 0001:000dce20       _RSA_padding_add_X931      100dde20 f   libcurl:rsa_x931.obj
 0001:000dcea0       _RSA_padding_check_X931    100ddea0 f   libcurl:rsa_x931.obj
 0001:000dcf90       _BN_mod_exp2_mont          100ddf90 f   libcurl:bn_exp2.obj
 0001:000dd630       _PKCS7_SIGNER_INFO_sign    100de630 f   libcurl:pk7_doit.obj
 0001:000dd7d0       _PKCS7_add_signed_attribute 100de7d0 f   libcurl:pk7_doit.obj
 0001:000dd890       _PKCS7_dataFinal           100de890 f   libcurl:pk7_doit.obj
 0001:000ddcc0       _PKCS7_dataInit            100decc0 f   libcurl:pk7_doit.obj
 0001:000de5a0       _X509_ATTRIBUTE_set1_data  100df5a0 f   libcurl:x509_att.obj
 0001:000de6d0       _X509at_add1_attr          100df6d0 f   libcurl:x509_att.obj
 0001:000de780       _X509at_add1_attr_by_NID   100df780 f   libcurl:x509_att.obj
 0001:000de840       _X509v3_get_ext_by_OBJ     100df840 f   libcurl:x509_v3.obj
 0001:000de840       _X509at_get_attr_by_OBJ    100df840 f   libcurl:x509_att.obj
 0001:000de8a0       _X509at_get_attr_count     100df8a0 f   libcurl:x509_att.obj
 0001:000de8b0       _i2d_ASN1_bytes            100df8b0 f   libcurl:a_bytes.obj
 0001:000de950       _UI_add_input_string       100df950 f   libcurl:ui_lib.obj
 0001:000de980       _UI_add_verify_string      100df980 f   libcurl:ui_lib.obj
 0001:000de9b0       _UI_free                   100df9b0 f   libcurl:ui_lib.obj
 0001:000de9e0       _UI_get0_action_string     100df9e0 f   libcurl:ui_lib.obj
 0001:000dea00       _UI_get0_output_string     100dfa00 f   libcurl:ui_lib.obj
 0001:000dea00       _X509_NAME_ENTRY_get_data  100dfa00 f   libcurl:x509name.obj
 0001:000dea10       _UI_get0_result_string     100dfa10 f   libcurl:ui_lib.obj
 0001:000dea30       _UI_get0_test_string       100dfa30 f   libcurl:ui_lib.obj
 0001:000dea50       _UI_get_input_flags        100dfa50 f   libcurl:ui_lib.obj
 0001:000dea50       _X509_EXTENSION_get_data   100dfa50 f   libcurl:x509_v3.obj
 0001:000dea60       _UI_new                    100dfa60 f   libcurl:ui_lib.obj
 0001:000dead0       _UI_process                100dfad0 f   libcurl:ui_lib.obj
 0001:000debe0       _UI_set_result             100dfbe0 f   libcurl:ui_lib.obj
 0001:000def80       _PKCS12_item_decrypt_d2i   100dff80 f   libcurl:p12_decr.obj
 0001:000df040       _PKCS12_pbe_crypt          100e0040 f   libcurl:p12_decr.obj
 0001:000df1d0       _EVP_PKEY_keygen           100e01d0 f   libcurl:pmeth_gn.obj
 0001:000df280       _EVP_PKEY_keygen_init      100e0280 f   libcurl:pmeth_gn.obj
 0001:000df2e0       _EVP_PKEY_new_mac_key      100e02e0 f   libcurl:pmeth_gn.obj
 0001:000df360       _evp_pkey_set_cb_translate 100e0360 f   libcurl:pmeth_gn.obj
 0001:000df3f0       _ssl23_accept              100e03f0 f   libcurl:s23_srvr.obj
 0001:000df5c0       _ssl23_get_client_hello    100e05c0 f   libcurl:s23_srvr.obj
 0001:000dfc50       _SSLv3_method              100e0c50 f   libcurl:s3_meth.obj
 0001:000dfca0       _TLSv1_1_method            100e0ca0 f   libcurl:t1_meth.obj
 0001:000dfcb0       _TLSv1_2_method            100e0cb0 f   libcurl:t1_meth.obj
 0001:000dfcc0       _TLSv1_method              100e0cc0 f   libcurl:t1_meth.obj
 0001:000dfcd0       _do_dtls1_write            100e0cd0 f   libcurl:d1_pkt.obj
 0001:000dffa0       _dtls1_write_bytes         100e0fa0 f   libcurl:d1_pkt.obj
 0001:000dfff0       _dtls1_start_timer         100e0ff0 f   libcurl:d1_lib.obj
 0001:000e00a0       _BN_sqr                    100e10a0 f   libcurl:bn_sqr.obj
 0001:000e0270       _bn_sqr_normal             100e1270 f   libcurl:bn_sqr.obj
 0001:000e0330       _bn_sqr_recursive          100e1330 f   libcurl:bn_sqr.obj
 0001:000e04b0       _BN_RECP_CTX_free          100e14b0 f   libcurl:bn_recp.obj
 0001:000e04e0       _BN_RECP_CTX_init          100e14e0 f   libcurl:bn_recp.obj
 0001:000e0510       _BN_RECP_CTX_set           100e1510 f   libcurl:bn_recp.obj
 0001:000e0550       _BN_div_recp               100e1550 f   libcurl:bn_recp.obj
 0001:000e07c0       _BN_mod_mul_reciprocal     100e17c0 f   libcurl:bn_recp.obj
 0001:000e0840       _BN_reciprocal             100e1840 f   libcurl:bn_recp.obj
 0001:000e08a0       _BN_GENCB_call             100e18a0 f   libcurl:bn_prime.obj
 0001:000e08f0       _BN_generate_prime_ex      100e18f0 f   libcurl:bn_prime.obj
 0001:000e0b70       _BN_is_prime_fasttest_ex   100e1b70 f   libcurl:bn_prime.obj
 0001:000e1380       _RSA_generate_key_ex       100e2380 f   libcurl:rsa_gen.obj
 0001:000e1860       _RSA_padding_add_PKCS1_PSS_mgf1 100e2860 f   libcurl:rsa_pss.obj
 0001:000e1b40       _RSA_verify_PKCS1_PSS_mgf1 100e2b40 f   libcurl:rsa_pss.obj
 0001:000e1f70       _DH_generate_parameters_ex 100e2f70 f   libcurl:dh_gen.obj
 0001:000e2130       _DSA_generate_key          100e3130 f   libcurl:dsa_key.obj
 0001:000e2270       _dsa_builtin_paramgen      100e3270 f   libcurl:dsa_gen.obj
 0001:000e2a10       _ec_GFp_mont_group_init    100e3a10 f   libcurl:ecp_mont.obj
 0001:000e2a40       _ec_GFp_mont_group_set_curve 100e3a40 f   libcurl:ecp_mont.obj
 0001:000e2b80       _ec_GFp_mont_group_finish  100e3b80 f   libcurl:ecp_mont.obj
 0001:000e2bd0       _ec_GFp_mont_group_clear_finish 100e3bd0 f   libcurl:ecp_mont.obj
 0001:000e2c20       _ec_GFp_mont_group_copy    100e3c20 f   libcurl:ecp_mont.obj
 0001:000e2cf0       _ec_GFp_mont_field_mul     100e3cf0 f   libcurl:ecp_mont.obj
 0001:000e2d40       _ec_GFp_mont_field_sqr     100e3d40 f   libcurl:ecp_mont.obj
 0001:000e2d90       _ec_GFp_mont_field_encode  100e3d90 f   libcurl:ecp_mont.obj
 0001:000e2de0       _ec_GFp_mont_field_decode  100e3de0 f   libcurl:ecp_mont.obj
 0001:000e2e30       _ec_GFp_mont_field_set_to_one 100e3e30 f   libcurl:ecp_mont.obj
 0001:000e2e70       _EC_GFp_mont_method        100e3e70 f   libcurl:ecp_mont.obj
 0001:000e2e80       _ec_GFp_nist_group_copy    100e3e80 f   libcurl:ecp_nist.obj
 0001:000e2eb0       _ec_GFp_nist_group_set_curve 100e3eb0 f   libcurl:ecp_nist.obj
 0001:000e2ff0       _ec_GFp_nist_field_mul     100e3ff0 f   libcurl:ecp_nist.obj
 0001:000e30a0       _ec_GFp_nist_field_sqr     100e40a0 f   libcurl:ecp_nist.obj
 0001:000e3140       _EC_GFp_nist_method        100e4140 f   libcurl:ecp_nist.obj
 0001:000e3150       _ec_GF2m_simple_group_init 100e4150 f   libcurl:ec2_smpl.obj
 0001:000e3180       _ec_GF2m_simple_group_clear_finish 100e4180 f   libcurl:ec2_smpl.obj
 0001:000e31e0       _ec_GF2m_simple_group_copy 100e41e0 f   libcurl:ec2_smpl.obj
 0001:000e3300       _ec_GF2m_simple_group_set_curve 100e4300 f   libcurl:ec2_smpl.obj
 0001:000e3430       _ec_GF2m_simple_group_get_curve 100e4430 f   libcurl:ec2_smpl.obj
 0001:000e34a0       _ec_GF2m_simple_group_get_degree 100e44a0 f   libcurl:ec2_smpl.obj
 0001:000e34c0       _ec_GF2m_simple_group_check_discriminant 100e44c0 f   libcurl:ec2_smpl.obj
 0001:000e3560       _ec_GF2m_simple_point_init 100e4560 f   libcurl:ec2_smpl.obj
 0001:000e3590       _ec_GFp_simple_point_finish 100e4590 f   libcurl:ecp_smpl.obj
 0001:000e3590       _ec_GF2m_simple_point_finish 100e4590 f   libcurl:ec2_smpl.obj
 0001:000e35c0       _ec_GFp_simple_point_set_to_infinity 100e45c0 f   libcurl:ecp_smpl.obj
 0001:000e35c0       _ec_GF2m_simple_point_set_to_infinity 100e45c0 f   libcurl:ec2_smpl.obj
 0001:000e35e0       _ec_GF2m_simple_point_set_affine_coordinates 100e45e0 f   libcurl:ec2_smpl.obj
 0001:000e3680       _ec_GF2m_simple_point_get_affine_coordinates 100e4680 f   libcurl:ec2_smpl.obj
 0001:000e3750       _ec_GF2m_simple_add        100e4750 f   libcurl:ec2_smpl.obj
 0001:000e3ad0       _ec_GF2m_simple_dbl        100e4ad0 f   libcurl:ec2_smpl.obj
 0001:000e3af0       _ec_GF2m_simple_invert     100e4af0 f   libcurl:ec2_smpl.obj
 0001:000e3b40       _ec_GFp_simple_is_at_infinity 100e4b40 f   libcurl:ecp_smpl.obj
 0001:000e3b40       _ec_GF2m_simple_is_at_infinity 100e4b40 f   libcurl:ec2_smpl.obj
 0001:000e3b50       _ec_GF2m_simple_is_on_curve 100e4b50 f   libcurl:ec2_smpl.obj
 0001:000e3cc0       _ec_GF2m_simple_cmp        100e4cc0 f   libcurl:ec2_smpl.obj
 0001:000e3e40       _ec_GF2m_simple_make_affine 100e4e40 f   libcurl:ec2_smpl.obj
 0001:000e3f40       _ec_GF2m_simple_points_make_affine 100e4f40 f   libcurl:ec2_smpl.obj
 0001:000e3f90       _ec_GF2m_simple_field_mul  100e4f90 f   libcurl:ec2_smpl.obj
 0001:000e3fc0       _ec_GF2m_simple_field_sqr  100e4fc0 f   libcurl:ec2_smpl.obj
 0001:000e3fe0       _ec_GF2m_simple_field_div  100e4fe0 f   libcurl:ec2_smpl.obj
 0001:000e4010       _EC_GF2m_simple_method     100e5010 f   libcurl:ec2_smpl.obj
 0001:000e4020       _BN_kronecker              100e5020 f   libcurl:bn_kron.obj
 0001:000e4290       _BN_mod_sqrt               100e5290 f   libcurl:bn_sqrt.obj
 0001:000e49b0       _BN_GF2m_add               100e59b0 f   libcurl:bn_gf2m.obj
 0001:000e4a50       _BN_GF2m_mod               100e5a50 f   libcurl:bn_gf2m.obj
 0001:000e4ae0       _BN_GF2m_mod_arr           100e5ae0 f   libcurl:bn_gf2m.obj
 0001:000e4d40       _BN_GF2m_mod_div           100e5d40 f   libcurl:bn_gf2m.obj
 0001:000e4db0       _BN_GF2m_mod_exp_arr       100e5db0 f   libcurl:bn_gf2m.obj
 0001:000e4eb0       _BN_GF2m_mod_inv           100e5eb0 f   libcurl:bn_gf2m.obj
 0001:000e53c0       _BN_GF2m_mod_mul           100e63c0 f   libcurl:bn_gf2m.obj
 0001:000e5460       _BN_GF2m_mod_mul_arr       100e6460 f   libcurl:bn_gf2m.obj
 0001:000e56b0       _BN_GF2m_mod_solve_quad_arr 100e66b0 f   libcurl:bn_gf2m.obj
 0001:000e5a00       _BN_GF2m_mod_sqr_arr       100e6a00 f   libcurl:bn_gf2m.obj
 0001:000e5b50       _BN_GF2m_mod_sqrt_arr      100e6b50 f   libcurl:bn_gf2m.obj
 0001:000e5bc0       _BN_GF2m_poly2arr          100e6bc0 f   libcurl:bn_gf2m.obj
 0001:000e67c0       _ECDSA_OpenSSL             100e77c0 f   libcurl:ecs_ossl.obj
 0001:000e67d0       _ENGINE_get_default_ECDSA  100e77d0 f   libcurl:tb_ecdsa.obj
 0001:000e67e0       _ENGINE_set_default_ECDSA  100e77e0 f   libcurl:tb_ecdsa.obj
 0001:000e6ad0       _ECDH_OpenSSL              100e7ad0 f   libcurl:ech_ossl.obj
 0001:000e6ae0       _ENGINE_get_ECDH           100e7ae0 f   libcurl:tb_ecdh.obj
 0001:000e6ae0       _EC_KEY_get_conv_form      100e7ae0 f   libcurl:ec_key.obj
 0001:000e6ae0       _X509_STORE_CTX_get0_param 100e7ae0 f   libcurl:x509_vfy.obj
 0001:000e6af0       _ENGINE_get_default_ECDH   100e7af0 f   libcurl:tb_ecdh.obj
 0001:000e6b00       _ENGINE_set_default_ECDH   100e7b00 f   libcurl:tb_ecdh.obj
 0001:000e6b40       _private_RC4_set_key       100e7b40 f   libcurl:rc4_skey.obj
 0001:000e6c70       _Camellia_decrypt          100e7c70 f   libcurl:cmll_misc.obj
 0001:000e6c90       _Camellia_encrypt          100e7c90 f   libcurl:cmll_misc.obj
 0001:000e6cb0       _private_Camellia_set_key  100e7cb0 f   libcurl:cmll_misc.obj
 0001:000e7660       _DSO_METHOD_win32          100e8660 f   libcurl:dso_win32.obj
 0001:000e7af0       _X509_policy_tree_get0_user_policies 100e8af0 f   libcurl:pcy_lib.obj
 0001:000e7b10       _level_add_node            100e8b10 f   libcurl:pcy_node.obj
 0001:000e7be0       _level_find_node           100e8be0 f   libcurl:pcy_node.obj
 0001:000e7c70       _policy_node_cmp_new       100e8c70 f   libcurl:pcy_node.obj
 0001:000e7c80       _policy_node_match         100e8c80 f   libcurl:pcy_node.obj
 0001:000e7d00       _tree_find_sk              100e8d00 f   libcurl:pcy_node.obj
 0001:000e7d50       _CMS_dataFinal             100e8d50 f   libcurl:cms_lib.obj
 0001:000e7e90       _CMS_dataInit              100e8e90 f   libcurl:cms_lib.obj
 0001:000e7fb0       _CMS_get0_content          100e8fb0 f   libcurl:cms_lib.obj
 0001:000e8060       _cms_DigestAlgorithm_find_ctx 100e9060 f   libcurl:cms_lib.obj
 0001:000e8130       _cms_DigestAlgorithm_init_bio 100e9130 f   libcurl:cms_lib.obj
 0001:000e81f0       _AES_wrap_key              100e91f0 f   libcurl:aes_wrap.obj
 0001:000e83c0       _CMS_ReceiptsFrom_it       100e93c0 f   libcurl:cms_asn1.obj
 0001:000e83d0       _CMS_SignerInfo_it         100e93d0 f   libcurl:cms_asn1.obj
 0001:000e83e0       _CMS_IssuerAndSerialNumber_it 100e93e0 f   libcurl:cms_asn1.obj
 0001:000e83f0       _CMS_RecipientInfo_it      100e93f0 f   libcurl:cms_asn1.obj
 0001:000e8400       _CMS_PasswordRecipientInfo_it 100e9400 f   libcurl:cms_asn1.obj
 0001:000e8410       _CMS_OtherCertificateFormat_it 100e9410 f   libcurl:cms_asn1.obj
 0001:000e8420       _CMS_CertificateChoices_it 100e9420 f   libcurl:cms_asn1.obj
 0001:000e8430       _CMS_SignerIdentifier_it   100e9430 f   libcurl:cms_asn1.obj
 0001:000e8440       _CMS_EncapsulatedContentInfo_it 100e9440 f   libcurl:cms_asn1.obj
 0001:000e8490       _CMS_OtherRevocationInfoFormat_it 100e9490 f   libcurl:cms_asn1.obj
 0001:000e84a0       _CMS_RevocationInfoChoice_it 100e94a0 f   libcurl:cms_asn1.obj
 0001:000e84b0       _CMS_SignedData_it         100e94b0 f   libcurl:cms_asn1.obj
 0001:000e84c0       _CMS_OriginatorInfo_it     100e94c0 f   libcurl:cms_asn1.obj
 0001:000e84d0       _CMS_EncryptedContentInfo_it 100e94d0 f   libcurl:cms_asn1.obj
 0001:000e84e0       _CMS_KeyTransRecipientInfo_it 100e94e0 f   libcurl:cms_asn1.obj
 0001:000e84f0       _CMS_OtherKeyAttribute_it  100e94f0 f   libcurl:cms_asn1.obj
 0001:000e8500       _CMS_RecipientKeyIdentifier_it 100e9500 f   libcurl:cms_asn1.obj
 0001:000e8510       _CMS_KeyAgreeRecipientIdentifier_it 100e9510 f   libcurl:cms_asn1.obj
 0001:000e8520       _CMS_RecipientEncryptedKey_it 100e9520 f   libcurl:cms_asn1.obj
 0001:000e8530       _CMS_OriginatorPublicKey_it 100e9530 f   libcurl:cms_asn1.obj
 0001:000e8540       _CMS_OriginatorIdentifierOrKey_it 100e9540 f   libcurl:cms_asn1.obj
 0001:000e8550       _CMS_KeyAgreeRecipientInfo_it 100e9550 f   libcurl:cms_asn1.obj
 0001:000e8560       _CMS_KEKIdentifier_it      100e9560 f   libcurl:cms_asn1.obj
 0001:000e8570       _CMS_KEKRecipientInfo_it   100e9570 f   libcurl:cms_asn1.obj
 0001:000e8580       _CMS_OtherRecipientInfo_it 100e9580 f   libcurl:cms_asn1.obj
 0001:000e8600       _CMS_EnvelopedData_it      100e9600 f   libcurl:cms_asn1.obj
 0001:000e8610       _CMS_DigestedData_it       100e9610 f   libcurl:cms_asn1.obj
 0001:000e8620       _CMS_EncryptedData_it      100e9620 f   libcurl:cms_asn1.obj
 0001:000e8630       _CMS_AuthenticatedData_it  100e9630 f   libcurl:cms_asn1.obj
 0001:000e8640       _CMS_CompressedData_it     100e9640 f   libcurl:cms_asn1.obj
 0001:000e8650       _CMS_Attributes_Sign_it    100e9650 f   libcurl:cms_asn1.obj
 0001:000e8660       _cms_EncryptedContent_init_bio 100e9660 f   libcurl:cms_enc.obj
 0001:000e89c0       _cms_EncryptedData_init_bio 100e99c0 f   libcurl:cms_enc.obj
 0001:000e89f0       _cms_RecipientInfo_pwri_crypt 100e99f0 f   libcurl:cms_pwri.obj
 0001:000e8f80       _CMS_signed_add1_attr_by_NID 100e9f80 f   libcurl:cms_att.obj
 0001:000e8fb0       _CMS_signed_get_attr_by_NID 100e9fb0 f   libcurl:cms_att.obj
 0001:000e8fd0       _CMS_signed_get_attr_count 100e9fd0 f   libcurl:cms_att.obj
 0001:000e8fe0       _whirlpool_block           100e9fe0 f   libcurl:wp_block.obj
 0001:000ea1b0       _OPENSSL_asc2uni           100eb1b0 f   libcurl:p12_utl.obj
 0001:000ea2d0       _BIO_s_null                100eb2d0 f   libcurl:bss_null.obj
 0001:000ea660       _BIO_f_md                  100eb660 f   libcurl:bio_md.obj
 0001:000eac40       _BIO_f_cipher              100ebc40 f   libcurl:bio_enc.obj
 0001:000eac50       _PKCS7_add0_attrib_signing_time 100ebc50 f   libcurl:pk7_attr.obj
 0001:000eaca0       _PKCS7_add1_attrib_digest  100ebca0 f   libcurl:pk7_attr.obj
 0001:000eaf50       _UI_OpenSSL                100ebf50 f   libcurl:ui_openssl.obj
 0001:000eb270       _ssl3_accept               100ec270 f   libcurl:s3_srvr.obj
 0001:000ebf00       _SSLv3_server_method       100ecf00 f   libcurl:s3_srvr.obj
 0001:000ebf10       _ssl3_check_client_hello   100ecf10 f   libcurl:s3_srvr.obj
 0001:000ebfe0       _ssl3_get_cert_verify      100ecfe0 f   libcurl:s3_srvr.obj
 0001:000ec580       _ssl3_get_client_certificate 100ed580 f   libcurl:s3_srvr.obj
 0001:000eca50       _ssl3_get_client_hello     100eda50 f   libcurl:s3_srvr.obj
 0001:000ed4b0       _ssl3_get_client_key_exchange 100ee4b0 f   libcurl:s3_srvr.obj
 0001:000ee230       _ssl3_get_next_proto       100ef230 f   libcurl:s3_srvr.obj
 0001:000ee350       _ssl3_send_cert_status     100ef350 f   libcurl:s3_srvr.obj
 0001:000ee430       _ssl3_send_certificate_request 100ef430 f   libcurl:s3_srvr.obj
 0001:000ee6d0       _ssl3_send_hello_request   100ef6d0 f   libcurl:s3_srvr.obj
 0001:000ee710       _ssl3_send_newsession_ticket 100ef710 f   libcurl:s3_srvr.obj
 0001:000eeb80       _ssl3_send_server_certificate 100efb80 f   libcurl:s3_srvr.obj
 0001:000eec10       _ssl3_send_server_done     100efc10 f   libcurl:s3_srvr.obj
 0001:000eec50       _ssl3_send_server_hello    100efc50 f   libcurl:s3_srvr.obj
 0001:000eedc0       _ssl3_send_server_key_exchange 100efdc0 f   libcurl:s3_srvr.obj
 0001:000ef930       _TLSv1_1_server_method     100f0930 f   libcurl:t1_srvr.obj
 0001:000ef940       _TLSv1_2_server_method     100f0940 f   libcurl:t1_srvr.obj
 0001:000ef950       _TLSv1_server_method       100f0950 f   libcurl:t1_srvr.obj
 0001:000ef960       _dtls1_enc                 100f0960 f   libcurl:d1_enc.obj
 0001:000efbb0       _ec_GFp_simple_group_init  100f0bb0 f   libcurl:ecp_smpl.obj
 0001:000efbf0       _ec_GF2m_simple_group_finish 100f0bf0 f   libcurl:ec2_smpl.obj
 0001:000efbf0       _ec_GFp_simple_group_finish 100f0bf0 f   libcurl:ecp_smpl.obj
 0001:000efc20       _ec_GFp_simple_group_clear_finish 100f0c20 f   libcurl:ecp_smpl.obj
 0001:000efc50       _ec_GFp_simple_group_copy  100f0c50 f   libcurl:ecp_smpl.obj
 0001:000efcc0       _ec_GFp_simple_group_set_curve 100f0cc0 f   libcurl:ecp_smpl.obj
 0001:000efe50       _ec_GFp_simple_group_get_curve 100f0e50 f   libcurl:ecp_smpl.obj
 0001:000eff50       _ec_GFp_simple_group_get_degree 100f0f50 f   libcurl:ecp_smpl.obj
 0001:000eff60       _ec_GFp_simple_group_check_discriminant 100f0f60 f   libcurl:ecp_smpl.obj
 0001:000f0140       _ec_GFp_simple_point_init  100f1140 f   libcurl:ecp_smpl.obj
 0001:000f0180       _ec_GF2m_simple_point_clear_finish 100f1180 f   libcurl:ec2_smpl.obj
 0001:000f0180       _ec_GFp_simple_point_clear_finish 100f1180 f   libcurl:ecp_smpl.obj
 0001:000f01b0       _ec_GFp_simple_point_copy  100f11b0 f   libcurl:ecp_smpl.obj
 0001:000f01b0       _ec_GF2m_simple_point_copy 100f11b0 f   libcurl:ec2_smpl.obj
 0001:000f0210       _ec_GFp_simple_set_Jprojective_coordinates_GFp 100f1210 f   libcurl:ecp_smpl.obj
 0001:000f0370       _ec_GFp_simple_get_Jprojective_coordinates_GFp 100f1370 f   libcurl:ecp_smpl.obj
 0001:000f0480       _ec_GFp_simple_point_set_affine_coordinates 100f1480 f   libcurl:ecp_smpl.obj
 0001:000f04d0       _ec_GFp_simple_point_get_affine_coordinates 100f14d0 f   libcurl:ecp_smpl.obj
 0001:000f0760       _ec_GFp_simple_add         100f1760 f   libcurl:ecp_smpl.obj
 0001:000f0c70       _ec_GFp_simple_dbl         100f1c70 f   libcurl:ecp_smpl.obj
 0001:000f1070       _ec_GFp_simple_invert      100f2070 f   libcurl:ecp_smpl.obj
 0001:000f10b0       _ec_GFp_simple_is_on_curve 100f20b0 f   libcurl:ecp_smpl.obj
 0001:000f1330       _ec_GFp_simple_cmp         100f2330 f   libcurl:ecp_smpl.obj
 0001:000f15d0       _ec_GFp_simple_make_affine 100f25d0 f   libcurl:ecp_smpl.obj
 0001:000f16c0       _ec_GFp_simple_points_make_affine 100f26c0 f   libcurl:ecp_smpl.obj
 0001:000f1ab0       _ec_GFp_simple_field_mul   100f2ab0 f   libcurl:ecp_smpl.obj
 0001:000f1ae0       _ec_GFp_simple_field_sqr   100f2ae0 f   libcurl:ecp_smpl.obj
 0001:000f1b00       _BN_get0_nist_prime_192    100f2b00 f   libcurl:bn_nist.obj
 0001:000f1b10       _BN_get0_nist_prime_224    100f2b10 f   libcurl:bn_nist.obj
 0001:000f1b20       _BN_get0_nist_prime_256    100f2b20 f   libcurl:bn_nist.obj
 0001:000f1b30       _BN_get0_nist_prime_384    100f2b30 f   libcurl:bn_nist.obj
 0001:000f1b40       _BN_get0_nist_prime_521    100f2b40 f   libcurl:bn_nist.obj
 0001:000f1b50       _BN_nist_mod_192           100f2b50 f   libcurl:bn_nist.obj
 0001:000f1df0       _BN_nist_mod_224           100f2df0 f   libcurl:bn_nist.obj
 0001:000f2110       _BN_nist_mod_256           100f3110 f   libcurl:bn_nist.obj
 0001:000f2520       _BN_nist_mod_384           100f3520 f   libcurl:bn_nist.obj
 0001:000f29a0       _BN_nist_mod_521           100f39a0 f   libcurl:bn_nist.obj
 0001:000f2be0       _ec_GF2m_have_precompute_mult 100f3be0 f   libcurl:ec2_mult.obj
 0001:000f2f40       _ec_GF2m_precompute_mult   100f3f40 f   libcurl:ec2_mult.obj
 0001:000f2f50       _ec_GF2m_simple_mul        100f3f50 f   libcurl:ec2_mult.obj
 0001:000f3650       _Camellia_DecryptBlock_Rounds 100f4650 f   libcurl:camellia.obj
 0001:000f3fa0       _Camellia_Ekeygen          100f4fa0 f   libcurl:camellia.obj
 0001:000f4c30       _Camellia_EncryptBlock_Rounds 100f5c30 f   libcurl:camellia.obj
 0001:000f5580       _cms_DigestedData_do_final 100f6580 f   libcurl:cms_dd.obj
 0001:000f56d0       _cms_DigestedData_init_bio 100f66d0 f   libcurl:cms_dd.obj
 0001:000f56f0       _CMS_stream                100f66f0 f   libcurl:cms_io.obj
 0001:000f5750       _PKCS12_MAC_DATA_it        100f6750 f   libcurl:p12_asn.obj
 0001:000f5760       _PKCS12_SAFEBAG_it         100f6760 f   libcurl:p12_asn.obj
 0001:000f5770       _PKCS12_BAGS_it            100f6770 f   libcurl:p12_asn.obj
 0001:000f68c4       ?_Syserror_map@std@@YAPBDH@Z 100f78c4 f   libcpmt:syserror.obj
 0001:000f68ee       ?_Winerror_map@std@@YAPBDH@Z 100f78ee f   libcpmt:syserror.obj
 0001:000f6918       ??0_Locimp@locale@std@@AAE@ABV012@@Z 100f7918 f i libcpmt:locale0.obj
 0001:000f6982       ??0_Locimp@locale@std@@AAE@_N@Z 100f7982 f i libcpmt:locale0.obj
 0001:000f69bf       ??1_Fac_node@std@@QAE@XZ   100f79bf f i libcpmt:locale0.obj
 0001:000f69d4       ??1_Fac_tidy_reg_t@std@@QAE@XZ 100f79d4 f i libcpmt:locale0.obj
 0001:000f69f8       ??1_Locimp@locale@std@@MAE@XZ 100f79f8 f i libcpmt:locale0.obj
 0001:000f6a23       ??_E_Locimp@locale@std@@MAEPAXI@Z 100f7a23 f i libcpmt:locale0.obj
 0001:000f6a23       ??_G_Locimp@locale@std@@MAEPAXI@Z 100f7a23 f i libcpmt:locale0.obj
 0001:000f6a42       ?_Facet_Register@std@@YAXPAV_Facet_base@1@@Z 100f7a42 f   libcpmt:locale0.obj
 0001:000f6a6a       ?_Getgloballocale@locale@std@@CAPAV_Locimp@12@XZ 100f7a6a f   libcpmt:locale0.obj
 0001:000f6a70       ?_Init@locale@std@@CAPAV_Locimp@12@_N@Z 100f7a70 f   libcpmt:locale0.obj
 0001:000f6aec       ?_Locimp_dtor@_Locimp@locale@std@@CAXPAV123@@Z 100f7aec f   libcpmt:locale0.obj
 0001:000f6b45       ?_Locinfo_ctor@_Locinfo@std@@SAXPAV12@PBD@Z 100f7b45 f   libcpmt:locale0.obj
 0001:000f6b90       ?_Locinfo_dtor@_Locinfo@std@@SAXPAV12@@Z 100f7b90 f   libcpmt:locale0.obj
 0001:000f6bb2       ?_New_Locimp@_Locimp@locale@std@@CAPAV123@ABV123@@Z 100f7bb2 f   libcpmt:locale0.obj
 0001:000f6be2       ?_New_Locimp@_Locimp@locale@std@@CAPAV123@_N@Z 100f7be2 f   libcpmt:locale0.obj
 0001:000f6c01       ?_Setgloballocale@locale@std@@CAXPAX@Z 100f7c01 f   libcpmt:locale0.obj
 0001:000f6c29       __Deletegloballocale       100f7c29 f   libcpmt:locale0.obj
 0001:000f6c74       ?_Callfns@ios_base@std@@AAEXW4event@12@@Z 100f7c74 f i libcpmt:ios.obj
 0001:000f6c99       ?_Ios_base_dtor@ios_base@std@@CAXPAV12@@Z 100f7c99 f   libcpmt:ios.obj
 0001:000f6cd6       ?_Tidy@ios_base@std@@AAEXXZ 100f7cd6 f i libcpmt:ios.obj
 0001:000f6d18       ??0length_error@std@@QAE@ABV01@@Z 100f7d18 f i libcpmt:xthrow.obj
 0001:000f6d33       ??_Elength_error@std@@UAEPAXI@Z 100f7d33 f i libcpmt:xthrow.obj
 0001:000f6d33       ??_Glength_error@std@@UAEPAXI@Z 100f7d33 f i libcpmt:xthrow.obj
 0001:000f6d52       ?_Xbad_alloc@std@@YAXXZ    100f7d52 f   libcpmt:xthrow.obj
 0001:000f6d83       ?_Xlength_error@std@@YAXPBD@Z 100f7d83 f   libcpmt:xthrow.obj
 0001:000f6db1       ?_Xout_of_range@std@@YAXPBD@Z 100f7db1 f   libcpmt:xthrow.obj
 0001:000f6ddf       ??0_Init_locks@std@@QAE@XZ 100f7ddf f   libcpmt:xlock.obj
 0001:000f6e0d       ??0_Lockit@std@@QAE@H@Z    100f7e0d f   libcpmt:xlock.obj
 0001:000f6e40       ??1_Init_locks@std@@QAE@XZ 100f7e40 f   libcpmt:xlock.obj
 0001:000f6e68       ??1_Lockit@std@@QAE@XZ     100f7e68 f   libcpmt:xlock.obj
 0001:000f6e8c       ?uncaught_exception@std@@YA_NXZ 100f7e8c f   libcpmt:uncaught.obj
 0001:000f6e91       ??$_Xfiopen@_W@std@@YAPAU_iobuf@@PB_WHH@Z 100f7e91 f i libcpmt:fiopen.obj
 0001:000f6f33       ?_Fiopen@std@@YAPAU_iobuf@@PB_WHH@Z 100f7f33 f   libcpmt:fiopen.obj
 0001:000f6f3c       ?_Xfsopen@std@@YAPAU_iobuf@@PB_WHH@Z 100f7f3c f   libcpmt:fiopen.obj
 0001:000f6f59       ??_U@YAPAXI@Z              100f7f59 f   libcpmt:newaop.obj
 0001:000f6f62       __Getctype                 100f7f62 f   libcpmt:_tolower.obj
 0001:000f6fce       __Tolower                  100f7fce f   libcpmt:_tolower.obj
 0001:000f70cd       __Toupper                  100f80cd f   libcpmt:_toupper.obj
 0001:000f71cc       __Getcvt                   100f81cc f   libcpmt:xwctomb.obj
 0001:000f7235       __Wcrtomb                  100f8235 f   libcpmt:xwctomb.obj
 0001:000f7293       __Mbrtowc                  100f8293 f   libcpmt:xmbtowc.obj
 0001:000f73ea       ??$_Find_elem@D@std@@YAIPADD@Z 100f83ea f i libcpmt:locale.obj
 0001:000f740c       ??$_Getloctxt@DV?$istreambuf_iterator@DU?$char_traits@D@std@@@std@@@std@@YAHAAV?$istreambuf_iterator@DU?$char_traits@D@std@@@0@0IPBD@Z 100f840c f i libcpmt:locale.obj
 0001:000f7586       ??$use_facet@V?$num_get@DV?$istreambuf_iterator@DU?$char_traits@D@std@@@std@@@std@@@std@@YAABV?$num_get@DV?$istreambuf_iterator@DU?$char_traits@D@std@@@std@@@0@ABVlocale@0@@Z 100f8586 f i libcpmt:locale.obj
 0001:000f761f       ?_Getcat@?$num_get@DV?$istreambuf_iterator@DU?$char_traits@D@std@@@std@@@std@@SAIPAPBVfacet@locale@2@PBV42@@Z 100f861f f i libcpmt:locale.obj
 0001:000f7687       ?_Getffld@?$num_get@DV?$istreambuf_iterator@DU?$char_traits@D@std@@@std@@@std@@ABAHPADAAV?$istreambuf_iterator@DU?$char_traits@D@std@@@2@1AAVios_base@2@PAH@Z 100f8687 f i libcpmt:locale.obj
 0001:000f7c2e       ?_Getffldx@?$num_get@DV?$istreambuf_iterator@DU?$char_traits@D@std@@@std@@@std@@ABAHPADAAV?$istreambuf_iterator@DU?$char_traits@D@std@@@2@1AAVios_base@2@PAH@Z 100f8c2e f i libcpmt:locale.obj
 0001:000f8222       ?_Getifld@?$num_get@DV?$istreambuf_iterator@DU?$char_traits@D@std@@@std@@@std@@ABAHPADAAV?$istreambuf_iterator@DU?$char_traits@D@std@@@2@1HABVlocale@2@@Z 100f9222 f i libcpmt:locale.obj
 0001:000f855f       ?_Inc@?$istreambuf_iterator@DU?$char_traits@D@std@@@std@@AAEXXZ 100f955f f i libcpmt:locale.obj
 0001:000f8581       ?_Locimp_Addfac@_Locimp@locale@std@@CAXPAV123@PAVfacet@23@I@Z 100f9581 f   libcpmt:locale.obj
 0001:000f861a       ?_Locimp_ctor@_Locimp@locale@std@@CAXPAV123@ABV123@@Z 100f961a f   libcpmt:locale.obj
 0001:000f86bd       ?_Makeloc@_Locimp@locale@std@@CAPAV123@ABV_Locinfo@3@HPAV123@PBV23@@Z 100f96bd f   libcpmt:locale.obj
 0001:000f8905       ?_Peek@?$istreambuf_iterator@DU?$char_traits@D@std@@@std@@ABEDXZ 100f9905 f i libcpmt:locale.obj
 0001:000f8929       ?do_get@?$num_get@DV?$istreambuf_iterator@DU?$char_traits@D@std@@@std@@@std@@MBE?AV?$istreambuf_iterator@DU?$char_traits@D@std@@@2@V32@0AAVios_base@2@AAHAAG@Z 100f9929 f i libcpmt:locale.obj
 0001:000f89f2       ?do_get@?$num_get@DV?$istreambuf_iterator@DU?$char_traits@D@std@@@std@@@std@@MBE?AV?$istreambuf_iterator@DU?$char_traits@D@std@@@2@V32@0AAVios_base@2@AAHAAI@Z 100f99f2 f i libcpmt:locale.obj
 0001:000f8ab7       ?do_get@?$num_get@DV?$istreambuf_iterator@DU?$char_traits@D@std@@@std@@@std@@MBE?AV?$istreambuf_iterator@DU?$char_traits@D@std@@@2@V32@0AAVios_base@2@AAHAAJ@Z 100f9ab7 f i libcpmt:locale.obj
 0001:000f8b67       ?do_get@?$num_get@DV?$istreambuf_iterator@DU?$char_traits@D@std@@@std@@@std@@MBE?AV?$istreambuf_iterator@DU?$char_traits@D@std@@@2@V32@0AAVios_base@2@AAHAAK@Z 100f9b67 f i libcpmt:locale.obj
 0001:000f8c17       ?do_get@?$num_get@DV?$istreambuf_iterator@DU?$char_traits@D@std@@@std@@@std@@MBE?AV?$istreambuf_iterator@DU?$char_traits@D@std@@@2@V32@0AAVios_base@2@AAHAAM@Z 100f9c17 f i libcpmt:locale.obj
 0001:000f8cd7       ?do_get@?$num_get@DV?$istreambuf_iterator@DU?$char_traits@D@std@@@std@@@std@@MBE?AV?$istreambuf_iterator@DU?$char_traits@D@std@@@2@V32@0AAVios_base@2@AAHAAN@Z 100f9cd7 f i libcpmt:locale.obj
 0001:000f8d9a       ?do_get@?$num_get@DV?$istreambuf_iterator@DU?$char_traits@D@std@@@std@@@std@@MBE?AV?$istreambuf_iterator@DU?$char_traits@D@std@@@2@V32@0AAVios_base@2@AAHAAO@Z 100f9d9a f i libcpmt:locale.obj
 0001:000f8e5d       ?do_get@?$num_get@DV?$istreambuf_iterator@DU?$char_traits@D@std@@@std@@@std@@MBE?AV?$istreambuf_iterator@DU?$char_traits@D@std@@@2@V32@0AAVios_base@2@AAHAAPAX@Z 100f9e5d f i libcpmt:locale.obj
 0001:000f8f0f       ?do_get@?$num_get@DV?$istreambuf_iterator@DU?$char_traits@D@std@@@std@@@std@@MBE?AV?$istreambuf_iterator@DU?$char_traits@D@std@@@2@V32@0AAVios_base@2@AAHAA_J@Z 100f9f0f f i libcpmt:locale.obj
 0001:000f8fc4       ?do_get@?$num_get@DV?$istreambuf_iterator@DU?$char_traits@D@std@@@std@@@std@@MBE?AV?$istreambuf_iterator@DU?$char_traits@D@std@@@2@V32@0AAVios_base@2@AAHAA_K@Z 100f9fc4 f i libcpmt:locale.obj
 0001:000f9079       ?do_get@?$num_get@DV?$istreambuf_iterator@DU?$char_traits@D@std@@@std@@@std@@MBE?AV?$istreambuf_iterator@DU?$char_traits@D@std@@@2@V32@0AAVios_base@2@AAHAA_N@Z 100fa079 f i libcpmt:locale.obj
 0001:000f922f       ?equal@?$istreambuf_iterator@DU?$char_traits@D@std@@@std@@QBE_NABV12@@Z 100fa22f f i libcpmt:locale.obj
 0001:000f926a       ?sbumpc@?$basic_streambuf@DU?$char_traits@D@std@@@std@@QAEHXZ 100fa26a f i libcpmt:locale.obj
 0001:000f9294       ?sgetc@?$basic_streambuf@DU?$char_traits@D@std@@@std@@QAEHXZ 100fa294 f i libcpmt:locale.obj
 0001:000f92b3       _ldexpf                    100fa2b3 f i libcpmt:locale.obj
 0001:000f92d1       ??1_Init_atexit@@QAE@XZ    100fa2d1 f i libcpmt:iosptrs.obj
 0001:000f92fa       ?_Atexit@@YAXP6AXXZ@Z      100fa2fa f   libcpmt:iosptrs.obj
 0001:000f9328       __Mtxdst                   100fa328 f   libcpmt:xmtx.obj
 0001:000f9336       __Mtxinit                  100fa336 f   libcpmt:xmtx.obj
 0001:000f934d       __Mtxlock                  100fa34d f   libcpmt:xmtx.obj
 0001:000f935b       __Mtxunlock                100fa35b f   libcpmt:xmtx.obj
 0001:000f9369       ??$_Allocate@G@std@@YAPAGIPAG@Z 100fa369 f i libcpmt:wlocale.obj
 0001:000f9394       ??$_Copy_impl@PA_WV?$ostreambuf_iterator@GU?$char_traits@G@std@@@std@@@std@@YA?AV?$ostreambuf_iterator@GU?$char_traits@G@std@@@0@PA_W0V10@@Z 100fa394 f i libcpmt:wlocale.obj
 0001:000f9394       ??$_Copy_impl@PA_WV?$ostreambuf_iterator@_WU?$char_traits@_W@std@@@std@@@std@@YA?AV?$ostreambuf_iterator@_WU?$char_traits@_W@std@@@0@PA_W0V10@@Z 100fa394 f i libcpmt:wlocale.obj
 0001:000f93b6       ??$_Copy_impl@PA_WV?$ostreambuf_iterator@_WU?$char_traits@_W@std@@@std@@@std@@YA?AV?$ostreambuf_iterator@_WU?$char_traits@_W@std@@@0@PA_W0V10@U_Nonscalar_ptr_iterator_tag@0@@Z 100fa3b6 f i libcpmt:wlocale.obj
 0001:000f93b6       ??$_Copy_impl@PA_WV?$ostreambuf_iterator@GU?$char_traits@G@std@@@std@@@std@@YA?AV?$ostreambuf_iterator@GU?$char_traits@G@std@@@0@PA_W0V10@U_Nonscalar_ptr_iterator_tag@0@@Z 100fa3b6 f i libcpmt:wlocale.obj
 0001:000f93fb       ??$_Find_elem@_W@std@@YAIPA_W_W@Z 100fa3fb f i libcpmt:wlocale.obj
 0001:000f93fb       ??$_Find_elem@G@std@@YAIPAGG@Z 100fa3fb f i libcpmt:wlocale.obj
 0001:000f941f       ??$_Getloctxt@DV?$istreambuf_iterator@GU?$char_traits@G@std@@@std@@@std@@YAHAAV?$istreambuf_iterator@GU?$char_traits@G@std@@@0@0IPBD@Z 100fa41f f i libcpmt:wlocale.obj
 0001:000f941f       ??$_Getloctxt@DV?$istreambuf_iterator@_WU?$char_traits@_W@std@@@std@@@std@@YAHAAV?$istreambuf_iterator@_WU?$char_traits@_W@std@@@0@0IPBD@Z 100fa41f f i libcpmt:wlocale.obj
 0001:000f95a1       ??$_Getloctxt@GV?$istreambuf_iterator@GU?$char_traits@G@std@@@std@@@std@@YAHAAV?$istreambuf_iterator@GU?$char_traits@G@std@@@0@0IPBG@Z 100fa5a1 f i libcpmt:wlocale.obj
 0001:000f95a1       ??$_Getloctxt@_WV?$istreambuf_iterator@_WU?$char_traits@_W@std@@@std@@@std@@YAHAAV?$istreambuf_iterator@_WU?$char_traits@_W@std@@@0@0IPB_W@Z 100fa5a1 f i libcpmt:wlocale.obj
 0001:000f972b       ??$_Getvals@G@?$_Mpunct@G@std@@IAEXGPBUlconv@@@Z 100fa72b f i libcpmt:wlocale.obj
 0001:000f97bd       ??$_Getvals@G@?$numpunct@G@std@@IAEXGPBUlconv@@U_Cvtvec@@@Z 100fa7bd f i libcpmt:wlocale.obj
 0001:000f9821       ??$_Getvals@G@?$time_get@GV?$istreambuf_iterator@GU?$char_traits@G@std@@@std@@@std@@IAEXGABV_Locinfo@1@@Z 100fa821 f i libcpmt:wlocale.obj
 0001:000f988e       ??$_Getvals@_W@?$_Mpunct@_W@std@@IAEX_WPBUlconv@@@Z 100fa88e f i libcpmt:wlocale.obj
 0001:000f98fa       ??$_Getvals@_W@?$time_get@_WV?$istreambuf_iterator@_WU?$char_traits@_W@std@@@std@@@std@@IAEX_WABV_Locinfo@1@@Z 100fa8fa f i libcpmt:wlocale.obj
 0001:000f9955       ??$_LStrcoll@G@std@@YAHPBG000PBU_Collvec@@@Z 100fa955 f i libcpmt:wlocale.obj
 0001:000f99a2       ??$_LStrxfrm@G@std@@YAIPAG0PBG1PBU_Collvec@@@Z 100fa9a2 f i libcpmt:wlocale.obj
 0001:000f99d5       ??$_Maklocchr@_W@std@@YA_WDPA_WABU_Cvtvec@@@Z 100fa9d5 f i libcpmt:wlocale.obj
 0001:000f99d5       ??$_Maklocchr@G@std@@YAGDPAGABU_Cvtvec@@@Z 100fa9d5 f i libcpmt:wlocale.obj
 0001:000f9a03       ??$_Maklocstr@G@std@@YAPAGPBDPAGABU_Cvtvec@@@Z 100faa03 f i libcpmt:wlocale.obj
 0001:000f9a03       ??$_Maklocstr@_W@std@@YAPA_WPBDPA_WABU_Cvtvec@@@Z 100faa03 f i libcpmt:wlocale.obj
 0001:000f9a9c       ??$copy@PA_WV?$ostreambuf_iterator@_WU?$char_traits@_W@std@@@std@@@std@@YA?AV?$ostreambuf_iterator@_WU?$char_traits@_W@std@@@0@PA_W0V10@@Z 100faa9c f i libcpmt:wlocale.obj
 0001:000f9a9c       ??$copy@PA_WV?$ostreambuf_iterator@GU?$char_traits@G@std@@@std@@@std@@YA?AV?$ostreambuf_iterator@GU?$char_traits@G@std@@@0@PA_W0V10@@Z 100faa9c f i libcpmt:wlocale.obj
 0001:000f9acc       ??$use_facet@V?$codecvt@GDH@std@@@std@@YAABV?$codecvt@GDH@0@ABVlocale@0@@Z 100faacc f i libcpmt:wlocale.obj
 0001:000f9b65       ??$use_facet@V?$collate@G@std@@@std@@YAABV?$collate@G@0@ABVlocale@0@@Z 100fab65 f i libcpmt:wlocale.obj
 0001:000f9bfe       ??$use_facet@V?$collate@_W@std@@@std@@YAABV?$collate@_W@0@ABVlocale@0@@Z 100fabfe f i libcpmt:wlocale.obj
 0001:000f9c97       ??$use_facet@V?$ctype@G@std@@@std@@YAABV?$ctype@G@0@ABVlocale@0@@Z 100fac97 f i libcpmt:wlocale.obj
 0001:000f9d30       ??$use_facet@V?$ctype@_W@std@@@std@@YAABV?$ctype@_W@0@ABVlocale@0@@Z 100fad30 f i libcpmt:wlocale.obj
 0001:000f9dc9       ??$use_facet@V?$messages@G@std@@@std@@YAABV?$messages@G@0@ABVlocale@0@@Z 100fadc9 f i libcpmt:wlocale.obj
 0001:000f9e62       ??$use_facet@V?$messages@_W@std@@@std@@YAABV?$messages@_W@0@ABVlocale@0@@Z 100fae62 f i libcpmt:wlocale.obj
 0001:000f9efb       ??$use_facet@V?$money_get@GV?$istreambuf_iterator@GU?$char_traits@G@std@@@std@@@std@@@std@@YAABV?$money_get@GV?$istreambuf_iterator@GU?$char_traits@G@std@@@std@@@0@ABVlocale@0@@Z 100faefb f i libcpmt:wlocale.obj
 0001:000f9f94       ??$use_facet@V?$money_get@_WV?$istreambuf_iterator@_WU?$char_traits@_W@std@@@std@@@std@@@std@@YAABV?$money_get@_WV?$istreambuf_iterator@_WU?$char_traits@_W@std@@@std@@@0@ABVlocale@0@@Z 100faf94 f i libcpmt:wlocale.obj
 0001:000fa02d       ??$use_facet@V?$money_put@GV?$ostreambuf_iterator@GU?$char_traits@G@std@@@std@@@std@@@std@@YAABV?$money_put@GV?$ostreambuf_iterator@GU?$char_traits@G@std@@@std@@@0@ABVlocale@0@@Z 100fb02d f i libcpmt:wlocale.obj
 0001:000fa0c6       ??$use_facet@V?$money_put@_WV?$ostreambuf_iterator@_WU?$char_traits@_W@std@@@std@@@std@@@std@@YAABV?$money_put@_WV?$ostreambuf_iterator@_WU?$char_traits@_W@std@@@std@@@0@ABVlocale@0@@Z 100fb0c6 f i libcpmt:wlocale.obj
 0001:000fa15f       ??$use_facet@V?$moneypunct@G$00@std@@@std@@YAABV?$moneypunct@G$00@0@ABVlocale@0@@Z 100fb15f f i libcpmt:wlocale.obj
 0001:000fa1f8       ??$use_facet@V?$moneypunct@G$0A@@std@@@std@@YAABV?$moneypunct@G$0A@@0@ABVlocale@0@@Z 100fb1f8 f i libcpmt:wlocale.obj
 0001:000fa291       ??$use_facet@V?$moneypunct@_W$00@std@@@std@@YAABV?$moneypunct@_W$00@0@ABVlocale@0@@Z 100fb291 f i libcpmt:wlocale.obj
 0001:000fa32a       ??$use_facet@V?$moneypunct@_W$0A@@std@@@std@@YAABV?$moneypunct@_W$0A@@0@ABVlocale@0@@Z 100fb32a f i libcpmt:wlocale.obj
 0001:000fa3c3       ??$use_facet@V?$num_get@GV?$istreambuf_iterator@GU?$char_traits@G@std@@@std@@@std@@@std@@YAABV?$num_get@GV?$istreambuf_iterator@GU?$char_traits@G@std@@@std@@@0@ABVlocale@0@@Z 100fb3c3 f i libcpmt:wlocale.obj
 0001:000fa45c       ??$use_facet@V?$num_get@_WV?$istreambuf_iterator@_WU?$char_traits@_W@std@@@std@@@std@@@std@@YAABV?$num_get@_WV?$istreambuf_iterator@_WU?$char_traits@_W@std@@@std@@@0@ABVlocale@0@@Z 100fb45c f i libcpmt:wlocale.obj
 0001:000fa4f5       ??$use_facet@V?$num_put@GV?$ostreambuf_iterator@GU?$char_traits@G@std@@@std@@@std@@@std@@YAABV?$num_put@GV?$ostreambuf_iterator@GU?$char_traits@G@std@@@std@@@0@ABVlocale@0@@Z 100fb4f5 f i libcpmt:wlocale.obj
 0001:000fa58e       ??$use_facet@V?$num_put@_WV?$ostreambuf_iterator@_WU?$char_traits@_W@std@@@std@@@std@@@std@@YAABV?$num_put@_WV?$ostreambuf_iterator@_WU?$char_traits@_W@std@@@std@@@0@ABVlocale@0@@Z 100fb58e f i libcpmt:wlocale.obj
 0001:000fa627       ??$use_facet@V?$numpunct@G@std@@@std@@YAABV?$numpunct@G@0@ABVlocale@0@@Z 100fb627 f i libcpmt:wlocale.obj
 0001:000fa6c0       ??$use_facet@V?$numpunct@_W@std@@@std@@YAABV?$numpunct@_W@0@ABVlocale@0@@Z 100fb6c0 f i libcpmt:wlocale.obj
 0001:000fa759       ??$use_facet@V?$time_get@GV?$istreambuf_iterator@GU?$char_traits@G@std@@@std@@@std@@@std@@YAABV?$time_get@GV?$istreambuf_iterator@GU?$char_traits@G@std@@@std@@@0@ABVlocale@0@@Z 100fb759 f i libcpmt:wlocale.obj
 0001:000fa7f2       ??$use_facet@V?$time_get@_WV?$istreambuf_iterator@_WU?$char_traits@_W@std@@@std@@@std@@@std@@YAABV?$time_get@_WV?$istreambuf_iterator@_WU?$char_traits@_W@std@@@std@@@0@ABVlocale@0@@Z 100fb7f2 f i libcpmt:wlocale.obj
 0001:000fa88b       ??$use_facet@V?$time_put@GV?$ostreambuf_iterator@GU?$char_traits@G@std@@@std@@@std@@@std@@YAABV?$time_put@GV?$ostreambuf_iterator@GU?$char_traits@G@std@@@std@@@0@ABVlocale@0@@Z 100fb88b f i libcpmt:wlocale.obj
 0001:000fa924       ??$use_facet@V?$time_put@_WV?$ostreambuf_iterator@_WU?$char_traits@_W@std@@@std@@@std@@@std@@YAABV?$time_put@_WV?$ostreambuf_iterator@_WU?$char_traits@_W@std@@@std@@@0@ABVlocale@0@@Z 100fb924 f i libcpmt:wlocale.obj
 0001:000fa9bd       ??0?$basic_string@GU?$char_traits@G@std@@V?$allocator@G@2@@std@@QAE@ABV01@@Z 100fb9bd f i libcpmt:wlocale.obj
 0001:000fa9e5       ??0?$basic_string@GU?$char_traits@G@std@@V?$allocator@G@2@@std@@QAE@PBG@Z 100fb9e5 f i libcpmt:wlocale.obj
 0001:000faa0a       ??0?$basic_string@GU?$char_traits@G@std@@V?$allocator@G@2@@std@@QAE@PBGI@Z 100fba0a f i libcpmt:wlocale.obj
 0001:000faa32       ??0?$basic_string@_WU?$char_traits@_W@std@@V?$allocator@_W@2@@std@@QAE@PB_WI@Z 100fba32 f i libcpmt:wlocale.obj
 0001:000faa5a       ??0?$codecvt@GDH@std@@QAE@ABV_Locinfo@1@I@Z 100fba5a f i libcpmt:wlocale.obj
 0001:000faa90       ??0?$time_get@GV?$istreambuf_iterator@GU?$char_traits@G@std@@@std@@@std@@QAE@ABV_Locinfo@1@I@Z 100fba90 f i libcpmt:wlocale.obj
 0001:000faac3       ??0?$time_get@_WV?$istreambuf_iterator@_WU?$char_traits@_W@std@@@std@@@std@@QAE@ABV_Locinfo@1@I@Z 100fbac3 f i libcpmt:wlocale.obj
 0001:000faaf6       ??1?$basic_string@GU?$char_traits@G@std@@V?$allocator@G@2@@std@@QAE@XZ 100fbaf6 f i libcpmt:wlocale.obj
 0001:000fab00       ??1?$collate@G@std@@MAE@XZ 100fbb00 f i libcpmt:wlocale.obj
 0001:000fab1a       ??1?$collate@_W@std@@MAE@XZ 100fbb1a f i libcpmt:wlocale.obj
 0001:000fab34       ??1?$ctype@G@std@@MAE@XZ   100fbb34 f i libcpmt:wlocale.obj
 0001:000fab5d       ??1?$ctype@_W@std@@MAE@XZ  100fbb5d f i libcpmt:wlocale.obj
 0001:000fab86       ??1?$time_put@GV?$ostreambuf_iterator@GU?$char_traits@G@std@@@std@@@std@@MAE@XZ 100fbb86 f i libcpmt:wlocale.obj
 0001:000faba0       ??1?$time_put@_WV?$ostreambuf_iterator@_WU?$char_traits@_W@std@@@std@@@std@@MAE@XZ 100fbba0 f i libcpmt:wlocale.obj
 0001:000fabba       ??4?$_Yarn@_W@std@@QAEAAV01@PB_W@Z 100fbbba f i libcpmt:wlocale.obj
 0001:000fac13       ??4?$ostreambuf_iterator@GU?$char_traits@G@std@@@std@@QAEAAV01@G@Z 100fbc13 f i libcpmt:wlocale.obj
 0001:000fac13       ??4?$ostreambuf_iterator@_WU?$char_traits@_W@std@@@std@@QAEAAV01@_W@Z 100fbc13 f i libcpmt:wlocale.obj
 0001:000fac3c       ??_E?$moneypunct@_W$0A@@std@@MAEPAXI@Z 100fbc3c f i libcpmt:wlocale.obj
 0001:000fac3c       ??_G?$moneypunct@_W$00@std@@MAEPAXI@Z 100fbc3c f i libcpmt:wlocale.obj
 0001:000fac3c       ??_G?$_Mpunct@_W@std@@MAEPAXI@Z 100fbc3c f i libcpmt:wlocale.obj
 0001:000fac3c       ??_E?$moneypunct@_W$00@std@@MAEPAXI@Z 100fbc3c f i libcpmt:wlocale.obj
 0001:000fac3c       ??_G?$moneypunct@_W$0A@@std@@MAEPAXI@Z 100fbc3c f i libcpmt:wlocale.obj
 0001:000fac3c       ??_E?$_Mpunct@_W@std@@MAEPAXI@Z 100fbc3c f i libcpmt:wlocale.obj
 0001:000fac67       ??_G?$collate@G@std@@MAEPAXI@Z 100fbc67 f i libcpmt:wlocale.obj
 0001:000fac67       ??_E?$collate@G@std@@MAEPAXI@Z 100fbc67 f i libcpmt:wlocale.obj
 0001:000fac86       ??_G?$collate@_W@std@@MAEPAXI@Z 100fbc86 f i libcpmt:wlocale.obj
 0001:000fac86       ??_E?$collate@_W@std@@MAEPAXI@Z 100fbc86 f i libcpmt:wlocale.obj
 0001:000faca5       ??_G?$ctype@G@std@@MAEPAXI@Z 100fbca5 f i libcpmt:wlocale.obj
 0001:000faca5       ??_E?$ctype@G@std@@MAEPAXI@Z 100fbca5 f i libcpmt:wlocale.obj
 0001:000facc4       ??_E?$ctype@_W@std@@MAEPAXI@Z 100fbcc4 f i libcpmt:wlocale.obj
 0001:000facc4       ??_G?$ctype@_W@std@@MAEPAXI@Z 100fbcc4 f i libcpmt:wlocale.obj
 0001:000face3       ??_E?$_Mpunct@G@std@@MAEPAXI@Z 100fbce3 f i libcpmt:wlocale.obj
 0001:000face3       ??_E?$moneypunct@G$00@std@@MAEPAXI@Z 100fbce3 f i libcpmt:wlocale.obj
 0001:000face3       ??_E?$moneypunct@G$0A@@std@@MAEPAXI@Z 100fbce3 f i libcpmt:wlocale.obj
 0001:000face3       ??_G?$moneypunct@G$00@std@@MAEPAXI@Z 100fbce3 f i libcpmt:wlocale.obj
 0001:000face3       ??_G?$moneypunct@G$0A@@std@@MAEPAXI@Z 100fbce3 f i libcpmt:wlocale.obj
 0001:000face3       ??_G?$_Mpunct@G@std@@MAEPAXI@Z 100fbce3 f i libcpmt:wlocale.obj
 0001:000fad0e       ??_E?$numpunct@G@std@@MAEPAXI@Z 100fbd0e f i libcpmt:wlocale.obj
 0001:000fad0e       ??_G?$numpunct@G@std@@MAEPAXI@Z 100fbd0e f i libcpmt:wlocale.obj
 0001:000fad39       ??_G?$numpunct@_W@std@@MAEPAXI@Z 100fbd39 f i libcpmt:wlocale.obj
 0001:000fad39       ??_E?$numpunct@_W@std@@MAEPAXI@Z 100fbd39 f i libcpmt:wlocale.obj
 0001:000fad64       ??_G?$time_get@GV?$istreambuf_iterator@GU?$char_traits@G@std@@@std@@@std@@MAEPAXI@Z 100fbd64 f i libcpmt:wlocale.obj
 0001:000fad64       ??_E?$time_get@GV?$istreambuf_iterator@GU?$char_traits@G@std@@@std@@@std@@MAEPAXI@Z 100fbd64 f i libcpmt:wlocale.obj
 0001:000fad8f       ??_E?$time_get@_WV?$istreambuf_iterator@_WU?$char_traits@_W@std@@@std@@@std@@MAEPAXI@Z 100fbd8f f i libcpmt:wlocale.obj
 0001:000fad8f       ??_G?$time_get@_WV?$istreambuf_iterator@_WU?$char_traits@_W@std@@@std@@@std@@MAEPAXI@Z 100fbd8f f i libcpmt:wlocale.obj
 0001:000fadba       ??_G?$time_put@GV?$ostreambuf_iterator@GU?$char_traits@G@std@@@std@@@std@@MAEPAXI@Z 100fbdba f i libcpmt:wlocale.obj
 0001:000fadba       ??_E?$time_put@GV?$ostreambuf_iterator@GU?$char_traits@G@std@@@std@@@std@@MAEPAXI@Z 100fbdba f i libcpmt:wlocale.obj
 0001:000fadd9       ??_G?$time_put@_WV?$ostreambuf_iterator@_WU?$char_traits@_W@std@@@std@@@std@@MAEPAXI@Z 100fbdd9 f i libcpmt:wlocale.obj
 0001:000fadd9       ??_E?$time_put@_WV?$ostreambuf_iterator@_WU?$char_traits@_W@std@@@std@@@std@@MAEPAXI@Z 100fbdd9 f i libcpmt:wlocale.obj
 0001:000fadf8       ?_Assign_rv@?$basic_string@GU?$char_traits@G@std@@V?$allocator@G@2@@std@@QAEX$$QAV12@@Z 100fbdf8 f i libcpmt:wlocale.obj
 0001:000fae46       ?_Chassign@?$basic_string@GU?$char_traits@G@std@@V?$allocator@G@2@@std@@QAEXIIG@Z 100fbe46 f i libcpmt:wlocale.obj
 0001:000fae87       ?_Copy@?$basic_string@GU?$char_traits@G@std@@V?$allocator@G@2@@std@@QAEXII@Z 100fbe87 f i libcpmt:wlocale.obj
 0001:000faf77       ?_Donarrow@?$ctype@_W@std@@IBED_WD@Z 100fbf77 f i libcpmt:wlocale.obj
 0001:000faf77       ?_Donarrow@?$ctype@G@std@@IBEDGD@Z 100fbf77 f i libcpmt:wlocale.obj
 0001:000fafbf       ?_Dowiden@?$ctype@G@std@@IBEGD@Z 100fbfbf f i libcpmt:wlocale.obj
 0001:000fafbf       ?_Dowiden@?$ctype@_W@std@@IBE_WD@Z 100fbfbf f i libcpmt:wlocale.obj
 0001:000faff5       ?_Ffmt@?$num_put@_WV?$ostreambuf_iterator@_WU?$char_traits@_W@std@@@std@@@std@@ABAPADPADDH@Z 100fbff5 f i libcpmt:wlocale.obj
 0001:000faff5       ?_Ffmt@?$num_put@GV?$ostreambuf_iterator@GU?$char_traits@G@std@@@std@@@std@@ABAPADPADDH@Z 100fbff5 f i libcpmt:wlocale.obj
 0001:000fb08a       ?_Fput@?$num_put@GV?$ostreambuf_iterator@GU?$char_traits@G@std@@@std@@@std@@ABA?AV?$ostreambuf_iterator@GU?$char_traits@G@std@@@2@V32@AAVios_base@2@GPBDIIII@Z 100fc08a f i libcpmt:wlocale.obj
 0001:000fb3ed       ?_Fput@?$num_put@_WV?$ostreambuf_iterator@_WU?$char_traits@_W@std@@@std@@@std@@ABA?AV?$ostreambuf_iterator@_WU?$char_traits@_W@std@@@2@V32@AAVios_base@2@_WPBDIIII@Z 100fc3ed f i libcpmt:wlocale.obj
 0001:000fb750       ?_Getcat@?$codecvt@GDH@std@@SAIPAPBVfacet@locale@2@PBV42@@Z 100fc750 f i libcpmt:wlocale.obj
 0001:000fb7b6       ?_Getcat@?$collate@G@std@@SAIPAPBVfacet@locale@2@PBV42@@Z 100fc7b6 f i libcpmt:wlocale.obj
 0001:000fb85c       ?_Getcat@?$collate@_W@std@@SAIPAPBVfacet@locale@2@PBV42@@Z 100fc85c f i libcpmt:wlocale.obj
 0001:000fb902       ?_Getcat@?$ctype@G@std@@SAIPAPBVfacet@locale@2@PBV42@@Z 100fc902 f i libcpmt:wlocale.obj
 0001:000fb972       ?_Getcat@?$ctype@_W@std@@SAIPAPBVfacet@locale@2@PBV42@@Z 100fc972 f i libcpmt:wlocale.obj
 0001:000fb9e2       ?_Getcat@?$messages@G@std@@SAIPAPBVfacet@locale@2@PBV42@@Z 100fc9e2 f i libcpmt:wlocale.obj
 0001:000fba4a       ?_Getcat@?$messages@_W@std@@SAIPAPBVfacet@locale@2@PBV42@@Z 100fca4a f i libcpmt:wlocale.obj
 0001:000fbab2       ?_Getcat@?$money_get@GV?$istreambuf_iterator@GU?$char_traits@G@std@@@std@@@std@@SAIPAPBVfacet@locale@2@PBV42@@Z 100fcab2 f i libcpmt:wlocale.obj
 0001:000fbb1a       ?_Getcat@?$money_get@_WV?$istreambuf_iterator@_WU?$char_traits@_W@std@@@std@@@std@@SAIPAPBVfacet@locale@2@PBV42@@Z 100fcb1a f i libcpmt:wlocale.obj
 0001:000fbb82       ?_Getcat@?$money_put@GV?$ostreambuf_iterator@GU?$char_traits@G@std@@@std@@@std@@SAIPAPBVfacet@locale@2@PBV42@@Z 100fcb82 f i libcpmt:wlocale.obj
 0001:000fbbea       ?_Getcat@?$money_put@_WV?$ostreambuf_iterator@_WU?$char_traits@_W@std@@@std@@@std@@SAIPAPBVfacet@locale@2@PBV42@@Z 100fcbea f i libcpmt:wlocale.obj
 0001:000fbc52       ?_Getcat@?$moneypunct@G$00@std@@SAIPAPBVfacet@locale@2@PBV42@@Z 100fcc52 f i libcpmt:wlocale.obj
 0001:000fbcd6       ?_Getcat@?$moneypunct@G$0A@@std@@SAIPAPBVfacet@locale@2@PBV42@@Z 100fccd6 f i libcpmt:wlocale.obj
 0001:000fbd5b       ?_Getcat@?$moneypunct@_W$00@std@@SAIPAPBVfacet@locale@2@PBV42@@Z 100fcd5b f i libcpmt:wlocale.obj
 0001:000fbddf       ?_Getcat@?$moneypunct@_W$0A@@std@@SAIPAPBVfacet@locale@2@PBV42@@Z 100fcddf f i libcpmt:wlocale.obj
 0001:000fbe64       ?_Getcat@?$num_get@GV?$istreambuf_iterator@GU?$char_traits@G@std@@@std@@@std@@SAIPAPBVfacet@locale@2@PBV42@@Z 100fce64 f i libcpmt:wlocale.obj
 0001:000fbecc       ?_Getcat@?$num_get@_WV?$istreambuf_iterator@_WU?$char_traits@_W@std@@@std@@@std@@SAIPAPBVfacet@locale@2@PBV42@@Z 100fcecc f i libcpmt:wlocale.obj
 0001:000fbf34       ?_Getcat@?$num_put@GV?$ostreambuf_iterator@GU?$char_traits@G@std@@@std@@@std@@SAIPAPBVfacet@locale@2@PBV42@@Z 100fcf34 f i libcpmt:wlocale.obj
 0001:000fbf9c       ?_Getcat@?$num_put@_WV?$ostreambuf_iterator@_WU?$char_traits@_W@std@@@std@@@std@@SAIPAPBVfacet@locale@2@PBV42@@Z 100fcf9c f i libcpmt:wlocale.obj
 0001:000fc004       ?_Getcat@?$numpunct@G@std@@SAIPAPBVfacet@locale@2@PBV42@@Z 100fd004 f i libcpmt:wlocale.obj
 0001:000fc07f       ?_Getcat@?$numpunct@_W@std@@SAIPAPBVfacet@locale@2@PBV42@@Z 100fd07f f i libcpmt:wlocale.obj
 0001:000fc0fa       ?_Getcat@?$time_get@GV?$istreambuf_iterator@GU?$char_traits@G@std@@@std@@@std@@SAIPAPBVfacet@locale@2@PBV42@@Z 100fd0fa f i libcpmt:wlocale.obj
 0001:000fc166       ?_Getcat@?$time_get@_WV?$istreambuf_iterator@_WU?$char_traits@_W@std@@@std@@@std@@SAIPAPBVfacet@locale@2@PBV42@@Z 100fd166 f i libcpmt:wlocale.obj
 0001:000fc1d2       ?_Getcat@?$time_put@GV?$ostreambuf_iterator@GU?$char_traits@G@std@@@std@@@std@@SAIPAPBVfacet@locale@2@PBV42@@Z 100fd1d2 f i libcpmt:wlocale.obj
 0001:000fc246       ?_Getcat@?$time_put@_WV?$ostreambuf_iterator@_WU?$char_traits@_W@std@@@std@@@std@@SAIPAPBVfacet@locale@2@PBV42@@Z 100fd246 f i libcpmt:wlocale.obj
 0001:000fc2ba       ?_Getdays@_Locinfo@std@@QBEPBDXZ 100fd2ba f i libcpmt:wlocale.obj
 0001:000fc2f3       ?_Getffld@?$num_get@GV?$istreambuf_iterator@GU?$char_traits@G@std@@@std@@@std@@ABAHPADAAV?$istreambuf_iterator@GU?$char_traits@G@std@@@2@1AAVios_base@2@PAH@Z 100fd2f3 f i libcpmt:wlocale.obj
 0001:000fc8cd       ?_Getffld@?$num_get@_WV?$istreambuf_iterator@_WU?$char_traits@_W@std@@@std@@@std@@ABAHPADAAV?$istreambuf_iterator@_WU?$char_traits@_W@std@@@2@1AAVios_base@2@PAH@Z 100fd8cd f i libcpmt:wlocale.obj
 0001:000fcea7       ?_Getffldx@?$num_get@GV?$istreambuf_iterator@GU?$char_traits@G@std@@@std@@@std@@ABAHPADAAV?$istreambuf_iterator@GU?$char_traits@G@std@@@2@1AAVios_base@2@PAH@Z 100fdea7 f i libcpmt:wlocale.obj
 0001:000fd54c       ?_Getffldx@?$num_get@_WV?$istreambuf_iterator@_WU?$char_traits@_W@std@@@std@@@std@@ABAHPADAAV?$istreambuf_iterator@_WU?$char_traits@_W@std@@@2@1AAVios_base@2@PAH@Z 100fe54c f i libcpmt:wlocale.obj
 0001:000fdbf1       ?_Getfmt@?$time_get@GV?$istreambuf_iterator@GU?$char_traits@G@std@@@std@@@std@@IBE?AV?$istreambuf_iterator@GU?$char_traits@G@std@@@2@V32@0AAVios_base@2@AAHPAUtm@@PBD@Z 100febf1 f i libcpmt:wlocale.obj
 0001:000fdcfd       ?_Getfmt@?$time_get@_WV?$istreambuf_iterator@_WU?$char_traits@_W@std@@@std@@@std@@IBE?AV?$istreambuf_iterator@_WU?$char_traits@_W@std@@@2@V32@0AAVios_base@2@AAHPAUtm@@PBD@Z 100fecfd f i libcpmt:wlocale.obj
 0001:000fde09       ?_Getifld@?$num_get@GV?$istreambuf_iterator@GU?$char_traits@G@std@@@std@@@std@@ABAHPADAAV?$istreambuf_iterator@GU?$char_traits@G@std@@@2@1HABVlocale@2@@Z 100fee09 f i libcpmt:wlocale.obj
 0001:000fe18f       ?_Getifld@?$num_get@_WV?$istreambuf_iterator@_WU?$char_traits@_W@std@@@std@@@std@@ABAHPADAAV?$istreambuf_iterator@_WU?$char_traits@_W@std@@@2@1HABVlocale@2@@Z 100ff18f f i libcpmt:wlocale.obj
 0001:000fe515       ?_Getint@?$time_get@GV?$istreambuf_iterator@GU?$char_traits@G@std@@@std@@@std@@ABAHAAV?$istreambuf_iterator@GU?$char_traits@G@std@@@2@0HHAAHABV?$ctype@G@2@@Z 100ff515 f i libcpmt:wlocale.obj
 0001:000fe515       ?_Getint@?$time_get@_WV?$istreambuf_iterator@_WU?$char_traits@_W@std@@@std@@@std@@ABAHAAV?$istreambuf_iterator@_WU?$char_traits@_W@std@@@2@0HHAAHABV?$ctype@_W@2@@Z 100ff515 f i libcpmt:wlocale.obj
 0001:000fe68f       ?_Getmfld@?$money_get@GV?$istreambuf_iterator@GU?$char_traits@G@std@@@std@@@std@@ABE?AV?$basic_string@DU?$char_traits@D@std@@V?$allocator@D@2@@2@AAV?$istreambuf_iterator@GU?$char_traits@G@std@@@2@0_NAAVios_base@2@PAG@Z 100ff68f f i libcpmt:wlocale.obj
 0001:000ff0f3       ?_Getmfld@?$money_get@_WV?$istreambuf_iterator@_WU?$char_traits@_W@std@@@std@@@std@@ABE?AV?$basic_string@DU?$char_traits@D@std@@V?$allocator@D@2@@2@AAV?$istreambuf_iterator@_WU?$char_traits@_W@std@@@2@0_NAAVios_base@2@PA_W@Z 101000f3 f i libcpmt:wlocale.obj
 0001:000ffb57       ?_Getmonths@_Locinfo@std@@QBEPBDXZ 10100b57 f i libcpmt:wlocale.obj
 0001:000ffb90       ?_Grow@?$basic_string@GU?$char_traits@G@std@@V?$allocator@G@2@@std@@QAE_NI_N@Z 10100b90 f i libcpmt:wlocale.obj
 0001:000ffbf9       ?_Hash_seq@std@@YAIPBEI@Z  10100bf9 f i libcpmt:wlocale.obj
 0001:000ffc23       ?_Ifmt@?$num_put@GV?$ostreambuf_iterator@GU?$char_traits@G@std@@@std@@@std@@ABAPADPADPBDH@Z 10100c23 f i libcpmt:wlocale.obj
 0001:000ffc23       ?_Ifmt@?$num_put@_WV?$ostreambuf_iterator@_WU?$char_traits@_W@std@@@std@@@std@@ABAPADPADPBDH@Z 10100c23 f i libcpmt:wlocale.obj
 0001:000ffc99       ?_Inc@?$istreambuf_iterator@_WU?$char_traits@_W@std@@@std@@AAEXXZ 10100c99 f i libcpmt:wlocale.obj
 0001:000ffc99       ?_Inc@?$istreambuf_iterator@GU?$char_traits@G@std@@@std@@AAEXXZ 10100c99 f i libcpmt:wlocale.obj
 0001:000ffcc0       ?_Init@?$_Mpunct@G@std@@IAEXABV_Locinfo@2@_N@Z 10100cc0 f i libcpmt:wlocale.obj
 0001:000ffda9       ?_Init@?$_Mpunct@_W@std@@IAEXABV_Locinfo@2@_N@Z 10100da9 f i libcpmt:wlocale.obj
 0001:000ffe92       ?_Init@?$ctype@_W@std@@IAEXABV_Locinfo@2@@Z 10100e92 f i libcpmt:wlocale.obj
 0001:000ffe92       ?_Init@?$ctype@G@std@@IAEXABV_Locinfo@2@@Z 10100e92 f i libcpmt:wlocale.obj
 0001:000ffecd       ?_Init@?$numpunct@G@std@@IAEXABV_Locinfo@2@_N@Z 10100ecd f i libcpmt:wlocale.obj
 0001:000fffc6       ?_Init@?$numpunct@_W@std@@IAEXABV_Locinfo@2@_N@Z 10100fc6 f i libcpmt:wlocale.obj
 0001:001000ba       ?_Init@?$time_get@GV?$istreambuf_iterator@GU?$char_traits@G@std@@@std@@@std@@IAEXABV_Locinfo@2@@Z 101010ba f i libcpmt:wlocale.obj
 0001:00100104       ?_Init@?$time_get@_WV?$istreambuf_iterator@_WU?$char_traits@_W@std@@@std@@@std@@IAEXABV_Locinfo@2@@Z 10101104 f i libcpmt:wlocale.obj
 0001:0010014e       ?_Init@?$time_put@DV?$ostreambuf_iterator@DU?$char_traits@D@std@@@std@@@std@@IAEXABV_Locinfo@2@@Z 1010114e f i libcpmt:xlocale.obj
 0001:0010014e       ?_Init@?$time_put@GV?$ostreambuf_iterator@GU?$char_traits@G@std@@@std@@@std@@IAEXABV_Locinfo@2@@Z 1010114e f i libcpmt:wlocale.obj
 0001:0010014e       ?_Init@?$time_put@_WV?$ostreambuf_iterator@_WU?$char_traits@_W@std@@@std@@@std@@IAEXABV_Locinfo@2@@Z 1010114e f i libcpmt:wlocale.obj
 0001:00100179       ?_Inside@?$basic_string@GU?$char_traits@G@std@@V?$allocator@G@2@@std@@QAE_NPBG@Z 10101179 f i libcpmt:wlocale.obj
 0001:001001b5       ?_Iput@?$num_put@GV?$ostreambuf_iterator@GU?$char_traits@G@std@@@std@@@std@@ABA?AV?$ostreambuf_iterator@GU?$char_traits@G@std@@@2@V32@AAVios_base@2@GPADI@Z 101011b5 f i libcpmt:wlocale.obj
 0001:0010045b       ?_Iput@?$num_put@_WV?$ostreambuf_iterator@_WU?$char_traits@_W@std@@@std@@@std@@ABA?AV?$ostreambuf_iterator@_WU?$char_traits@_W@std@@@2@V32@AAVios_base@2@_WPADI@Z 1010145b f i libcpmt:wlocale.obj
 0001:00100701       ?_Makeushloc@_Locimp@locale@std@@CAXABV_Locinfo@3@HPAV123@PBV23@@Z 10101701 f   libcpmt:wlocale.obj
 0001:00100cab       ?_Makewloc@_Locimp@locale@std@@CAXABV_Locinfo@3@HPAV123@PBV23@@Z 10101cab f   libcpmt:wlocale.obj
 0001:00101255       ?_Maklocwcs@std@@YAPA_WPB_W@Z 10102255 f i libcpmt:wlocale.obj
 0001:00101293       ?_Peek@?$istreambuf_iterator@_WU?$char_traits@_W@std@@@std@@ABE_WXZ 10102293 f i libcpmt:wlocale.obj
 0001:00101293       ?_Peek@?$istreambuf_iterator@GU?$char_traits@G@std@@@std@@ABEGXZ 10102293 f i libcpmt:wlocale.obj
 0001:001012c1       ?_Put@?$money_put@GV?$ostreambuf_iterator@GU?$char_traits@G@std@@@std@@@std@@CA?AV?$ostreambuf_iterator@GU?$char_traits@G@std@@@2@V32@V?$_String_const_iterator@V?$_String_val@U?$_Simple_types@G@std@@@std@@@2@I@Z 101022c1 f i libcpmt:wlocale.obj
 0001:001012c1       ?_Put@?$money_put@_WV?$ostreambuf_iterator@_WU?$char_traits@_W@std@@@std@@@std@@CA?AV?$ostreambuf_iterator@_WU?$char_traits@_W@std@@@2@V32@V?$_String_const_iterator@V?$_String_val@U?$_Simple_types@_W@std@@@std@@@2@I@Z 101022c1 f i libcpmt:wlocale.obj
 0001:001012f8       ?_Put@?$num_put@GV?$ostreambuf_iterator@GU?$char_traits@G@std@@@std@@@std@@ABA?AV?$ostreambuf_iterator@GU?$char_traits@G@std@@@2@V32@PBGI@Z 101022f8 f i libcpmt:wlocale.obj
 0001:001012f8       ?_Put@?$num_put@_WV?$ostreambuf_iterator@_WU?$char_traits@_W@std@@@std@@@std@@ABA?AV?$ostreambuf_iterator@_WU?$char_traits@_W@std@@@2@V32@PB_WI@Z 101022f8 f i libcpmt:wlocale.obj
 0001:0010132b       ?_Putmfld@?$money_put@GV?$ostreambuf_iterator@GU?$char_traits@G@std@@@std@@@std@@ABE?AV?$ostreambuf_iterator@GU?$char_traits@G@std@@@2@V32@_NAAVios_base@2@G1V?$basic_string@GU?$char_traits@G@std@@V?$allocator@G@2@@2@G@Z 1010232b f i libcpmt:wlocale.obj
 0001:00101890       ?_Putmfld@?$money_put@_WV?$ostreambuf_iterator@_WU?$char_traits@_W@std@@@std@@@std@@ABE?AV?$ostreambuf_iterator@_WU?$char_traits@_W@std@@@2@V32@_NAAVios_base@2@_W1V?$basic_string@_WU?$char_traits@_W@std@@V?$allocator@_W@2@@2@3@Z 10102890 f i libcpmt:wlocale.obj
 0001:00101df5       ?_Rep@?$money_put@GV?$ostreambuf_iterator@GU?$char_traits@G@std@@@std@@@std@@CA?AV?$ostreambuf_iterator@GU?$char_traits@G@std@@@2@V32@GI@Z 10102df5 f i libcpmt:wlocale.obj
 0001:00101df5       ?_Rep@?$money_put@_WV?$ostreambuf_iterator@_WU?$char_traits@_W@std@@@std@@@std@@CA?AV?$ostreambuf_iterator@_WU?$char_traits@_W@std@@@2@V32@_WI@Z 10102df5 f i libcpmt:wlocale.obj
 0001:00101e1f       ?_Rep@?$num_put@GV?$ostreambuf_iterator@GU?$char_traits@G@std@@@std@@@std@@ABA?AV?$ostreambuf_iterator@GU?$char_traits@G@std@@@2@V32@GI@Z 10102e1f f i libcpmt:wlocale.obj
 0001:00101e1f       ?_Rep@?$num_put@_WV?$ostreambuf_iterator@_WU?$char_traits@_W@std@@@std@@@std@@ABA?AV?$ostreambuf_iterator@_WU?$char_traits@_W@std@@@2@V32@_WI@Z 10102e1f f i libcpmt:wlocale.obj
 0001:00101e49       ?_Tidy@?$_Mpunct@G@std@@AAEXXZ 10102e49 f i libcpmt:wlocale.obj
 0001:00101e49       ?_Tidy@?$_Mpunct@_W@std@@AAEXXZ 10102e49 f i libcpmt:wlocale.obj
 0001:00101e49       ?_Tidy@?$_Mpunct@D@std@@AAEXXZ 10102e49 f i libcpmt:xlocale.obj
 0001:00101e71       ?_Tidy@?$basic_string@GU?$char_traits@G@std@@V?$allocator@G@2@@std@@QAEX_NI@Z 10102e71 f i libcpmt:wlocale.obj
 0001:00101eb7       ?_W_Getdays@_Locinfo@std@@QBEPBGXZ 10102eb7 f i libcpmt:wlocale.obj
 0001:00101ef0       ?_W_Getmonths@_Locinfo@std@@QBEPBGXZ 10102ef0 f i libcpmt:wlocale.obj
 0001:00101f29       ?append@?$basic_string@GU?$char_traits@G@std@@V?$allocator@G@2@@std@@QAEAAV12@ABV12@II@Z 10102f29 f i libcpmt:wlocale.obj
 0001:00101fce       ?append@?$basic_string@GU?$char_traits@G@std@@V?$allocator@G@2@@std@@QAEAAV12@IG@Z 10102fce f i libcpmt:wlocale.obj
 0001:00102031       ?assign@?$basic_string@GU?$char_traits@G@std@@V?$allocator@G@2@@std@@QAEAAV12@$$QAV12@@Z 10103031 f i libcpmt:wlocale.obj
 0001:00102031       ??4?$basic_string@GU?$char_traits@G@std@@V?$allocator@G@2@@std@@QAEAAV01@$$QAV01@@Z 10103031 f i libcpmt:wlocale.obj
 0001:00102056       ?assign@?$basic_string@GU?$char_traits@G@std@@V?$allocator@G@2@@std@@QAEAAV12@ABV12@II@Z 10103056 f i libcpmt:wlocale.obj
 0001:001020ea       ?assign@?$basic_string@GU?$char_traits@G@std@@V?$allocator@G@2@@std@@QAEAAV12@IG@Z 101030ea f i libcpmt:wlocale.obj
 0001:0010213a       ?assign@?$basic_string@GU?$char_traits@G@std@@V?$allocator@G@2@@std@@QAEAAV12@PBG@Z 1010313a f i libcpmt:wlocale.obj
 0001:00102161       ?assign@?$basic_string@GU?$char_traits@G@std@@V?$allocator@G@2@@std@@QAEAAV12@PBGI@Z 10103161 f i libcpmt:wlocale.obj
 0001:001021da       ?assign@?$basic_string@_WU?$char_traits@_W@std@@V?$allocator@_W@2@@std@@QAEAAV12@$$QAV12@@Z 101031da f i libcpmt:wlocale.obj
 0001:001021ff       ?copy@?$char_traits@G@std@@SAPAGPAGPBGI@Z 101031ff f i libcpmt:wlocale.obj
 0001:00102221       ?do_compare@?$collate@G@std@@MBEHPBG000@Z 10103221 f i libcpmt:wlocale.obj
 0001:00102252       ?do_compare@?$collate@_W@std@@MBEHPB_W000@Z 10103252 f i libcpmt:wlocale.obj
 0001:00102283       ?do_date_order@?$time_get@_WV?$istreambuf_iterator@_WU?$char_traits@_W@std@@@std@@@std@@MBE?AW4dateorder@time_base@2@XZ 10103283 f i libcpmt:wlocale.obj
 0001:00102283       ?do_date_order@?$time_get@GV?$istreambuf_iterator@GU?$char_traits@G@std@@@std@@@std@@MBE?AW4dateorder@time_base@2@XZ 10103283 f i libcpmt:wlocale.obj
 0001:00102283       ?do_date_order@?$time_get@DV?$istreambuf_iterator@DU?$char_traits@D@std@@@std@@@std@@MBE?AW4dateorder@time_base@2@XZ 10103283 f i libcpmt:xlocale.obj
 0001:00102287       ?do_decimal_point@?$_Mpunct@_W@std@@MBE_WXZ 10103287 f i libcpmt:wlocale.obj
 0001:00102287       ?do_decimal_point@?$numpunct@G@std@@MBEGXZ 10103287 f i libcpmt:wlocale.obj
 0001:00102287       ?do_decimal_point@?$numpunct@_W@std@@MBE_WXZ 10103287 f i libcpmt:wlocale.obj
 0001:00102287       ?do_decimal_point@?$_Mpunct@G@std@@MBEGXZ 10103287 f i libcpmt:wlocale.obj
 0001:0010228c       ?do_falsename@?$numpunct@G@std@@MBE?AV?$basic_string@GU?$char_traits@G@std@@V?$allocator@G@2@@2@XZ 1010328c f i libcpmt:wlocale.obj
 0001:0010228c       ?do_curr_symbol@?$_Mpunct@G@std@@MBE?AV?$basic_string@GU?$char_traits@G@std@@V?$allocator@G@2@@2@XZ 1010328c f i libcpmt:wlocale.obj
 0001:001022a8       ?do_falsename@?$numpunct@_W@std@@MBE?AV?$basic_string@_WU?$char_traits@_W@std@@V?$allocator@_W@2@@2@XZ 101032a8 f i libcpmt:wlocale.obj
 0001:001022a8       ?do_curr_symbol@?$_Mpunct@_W@std@@MBE?AV?$basic_string@_WU?$char_traits@_W@std@@V?$allocator@_W@2@@2@XZ 101032a8 f i libcpmt:wlocale.obj
 0001:001022c4       ?do_get@?$messages@G@std@@MBE?AV?$basic_string@GU?$char_traits@G@std@@V?$allocator@G@2@@2@HHHABV32@@Z 101032c4 f i libcpmt:wlocale.obj
 0001:001022e0       ?do_get@?$messages@_W@std@@MBE?AV?$basic_string@_WU?$char_traits@_W@std@@V?$allocator@_W@2@@2@HHHABV32@@Z 101032e0 f i libcpmt:wlocale.obj
 0001:001022fc       ?do_get@?$money_get@GV?$istreambuf_iterator@GU?$char_traits@G@std@@@std@@@std@@MBE?AV?$istreambuf_iterator@GU?$char_traits@G@std@@@2@V32@0_NAAVios_base@2@AAHAAO@Z 101032fc f i libcpmt:wlocale.obj
 0001:001023a8       ?do_get@?$money_get@GV?$istreambuf_iterator@GU?$char_traits@G@std@@@std@@@std@@MBE?AV?$istreambuf_iterator@GU?$char_traits@G@std@@@2@V32@0_NAAVios_base@2@AAHAAV?$basic_string@GU?$char_traits@G@std@@V?$allocator@G@2@@2@@Z 101033a8 f i libcpmt:wlocale.obj
 0001:00102484       ?do_get@?$money_get@_WV?$istreambuf_iterator@_WU?$char_traits@_W@std@@@std@@@std@@MBE?AV?$istreambuf_iterator@_WU?$char_traits@_W@std@@@2@V32@0_NAAVios_base@2@AAHAAO@Z 10103484 f i libcpmt:wlocale.obj
 0001:00102530       ?do_get@?$money_get@_WV?$istreambuf_iterator@_WU?$char_traits@_W@std@@@std@@@std@@MBE?AV?$istreambuf_iterator@_WU?$char_traits@_W@std@@@2@V32@0_NAAVios_base@2@AAHAAV?$basic_string@_WU?$char_traits@_W@std@@V?$allocator@_W@2@@2@@Z 10103530 f i libcpmt:wlocale.obj
 0001:0010260c       ?do_get@?$num_get@GV?$istreambuf_iterator@GU?$char_traits@G@std@@@std@@@std@@MBE?AV?$istreambuf_iterator@GU?$char_traits@G@std@@@2@V32@0AAVios_base@2@AAHAAG@Z 1010360c f i libcpmt:wlocale.obj
 0001:001026d5       ?do_get@?$num_get@GV?$istreambuf_iterator@GU?$char_traits@G@std@@@std@@@std@@MBE?AV?$istreambuf_iterator@GU?$char_traits@G@std@@@2@V32@0AAVios_base@2@AAHAAI@Z 101036d5 f i libcpmt:wlocale.obj
 0001:0010279a       ?do_get@?$num_get@GV?$istreambuf_iterator@GU?$char_traits@G@std@@@std@@@std@@MBE?AV?$istreambuf_iterator@GU?$char_traits@G@std@@@2@V32@0AAVios_base@2@AAHAAJ@Z 1010379a f i libcpmt:wlocale.obj
 0001:0010284a       ?do_get@?$num_get@GV?$istreambuf_iterator@GU?$char_traits@G@std@@@std@@@std@@MBE?AV?$istreambuf_iterator@GU?$char_traits@G@std@@@2@V32@0AAVios_base@2@AAHAAK@Z 1010384a f i libcpmt:wlocale.obj
 0001:001028fa       ?do_get@?$num_get@GV?$istreambuf_iterator@GU?$char_traits@G@std@@@std@@@std@@MBE?AV?$istreambuf_iterator@GU?$char_traits@G@std@@@2@V32@0AAVios_base@2@AAHAAM@Z 101038fa f i libcpmt:wlocale.obj
 0001:001029ba       ?do_get@?$num_get@GV?$istreambuf_iterator@GU?$char_traits@G@std@@@std@@@std@@MBE?AV?$istreambuf_iterator@GU?$char_traits@G@std@@@2@V32@0AAVios_base@2@AAHAAN@Z 101039ba f i libcpmt:wlocale.obj
 0001:00102a7d       ?do_get@?$num_get@GV?$istreambuf_iterator@GU?$char_traits@G@std@@@std@@@std@@MBE?AV?$istreambuf_iterator@GU?$char_traits@G@std@@@2@V32@0AAVios_base@2@AAHAAO@Z 10103a7d f i libcpmt:wlocale.obj
 0001:00102b40       ?do_get@?$num_get@GV?$istreambuf_iterator@GU?$char_traits@G@std@@@std@@@std@@MBE?AV?$istreambuf_iterator@GU?$char_traits@G@std@@@2@V32@0AAVios_base@2@AAHAAPAX@Z 10103b40 f i libcpmt:wlocale.obj
 0001:00102bf2       ?do_get@?$num_get@GV?$istreambuf_iterator@GU?$char_traits@G@std@@@std@@@std@@MBE?AV?$istreambuf_iterator@GU?$char_traits@G@std@@@2@V32@0AAVios_base@2@AAHAA_J@Z 10103bf2 f i libcpmt:wlocale.obj
 0001:00102ca7       ?do_get@?$num_get@GV?$istreambuf_iterator@GU?$char_traits@G@std@@@std@@@std@@MBE?AV?$istreambuf_iterator@GU?$char_traits@G@std@@@2@V32@0AAVios_base@2@AAHAA_K@Z 10103ca7 f i libcpmt:wlocale.obj
 0001:00102d5c       ?do_get@?$num_get@GV?$istreambuf_iterator@GU?$char_traits@G@std@@@std@@@std@@MBE?AV?$istreambuf_iterator@GU?$char_traits@G@std@@@2@V32@0AAVios_base@2@AAHAA_N@Z 10103d5c f i libcpmt:wlocale.obj
 0001:00102f14       ?do_get@?$num_get@_WV?$istreambuf_iterator@_WU?$char_traits@_W@std@@@std@@@std@@MBE?AV?$istreambuf_iterator@_WU?$char_traits@_W@std@@@2@V32@0AAVios_base@2@AAHAAG@Z 10103f14 f i libcpmt:wlocale.obj
 0001:00102fdd       ?do_get@?$num_get@_WV?$istreambuf_iterator@_WU?$char_traits@_W@std@@@std@@@std@@MBE?AV?$istreambuf_iterator@_WU?$char_traits@_W@std@@@2@V32@0AAVios_base@2@AAHAAI@Z 10103fdd f i libcpmt:wlocale.obj
 0001:001030a2       ?do_get@?$num_get@_WV?$istreambuf_iterator@_WU?$char_traits@_W@std@@@std@@@std@@MBE?AV?$istreambuf_iterator@_WU?$char_traits@_W@std@@@2@V32@0AAVios_base@2@AAHAAJ@Z 101040a2 f i libcpmt:wlocale.obj
 0001:00103152       ?do_get@?$num_get@_WV?$istreambuf_iterator@_WU?$char_traits@_W@std@@@std@@@std@@MBE?AV?$istreambuf_iterator@_WU?$char_traits@_W@std@@@2@V32@0AAVios_base@2@AAHAAK@Z 10104152 f i libcpmt:wlocale.obj
 0001:00103202       ?do_get@?$num_get@_WV?$istreambuf_iterator@_WU?$char_traits@_W@std@@@std@@@std@@MBE?AV?$istreambuf_iterator@_WU?$char_traits@_W@std@@@2@V32@0AAVios_base@2@AAHAAM@Z 10104202 f i libcpmt:wlocale.obj
 0001:001032c2       ?do_get@?$num_get@_WV?$istreambuf_iterator@_WU?$char_traits@_W@std@@@std@@@std@@MBE?AV?$istreambuf_iterator@_WU?$char_traits@_W@std@@@2@V32@0AAVios_base@2@AAHAAN@Z 101042c2 f i libcpmt:wlocale.obj
 0001:00103385       ?do_get@?$num_get@_WV?$istreambuf_iterator@_WU?$char_traits@_W@std@@@std@@@std@@MBE?AV?$istreambuf_iterator@_WU?$char_traits@_W@std@@@2@V32@0AAVios_base@2@AAHAAO@Z 10104385 f i libcpmt:wlocale.obj
 0001:00103448       ?do_get@?$num_get@_WV?$istreambuf_iterator@_WU?$char_traits@_W@std@@@std@@@std@@MBE?AV?$istreambuf_iterator@_WU?$char_traits@_W@std@@@2@V32@0AAVios_base@2@AAHAAPAX@Z 10104448 f i libcpmt:wlocale.obj
 0001:001034fa       ?do_get@?$num_get@_WV?$istreambuf_iterator@_WU?$char_traits@_W@std@@@std@@@std@@MBE?AV?$istreambuf_iterator@_WU?$char_traits@_W@std@@@2@V32@0AAVios_base@2@AAHAA_J@Z 101044fa f i libcpmt:wlocale.obj
 0001:001035af       ?do_get@?$num_get@_WV?$istreambuf_iterator@_WU?$char_traits@_W@std@@@std@@@std@@MBE?AV?$istreambuf_iterator@_WU?$char_traits@_W@std@@@2@V32@0AAVios_base@2@AAHAA_K@Z 101045af f i libcpmt:wlocale.obj
 0001:00103664       ?do_get@?$num_get@_WV?$istreambuf_iterator@_WU?$char_traits@_W@std@@@std@@@std@@MBE?AV?$istreambuf_iterator@_WU?$char_traits@_W@std@@@2@V32@0AAVios_base@2@AAHAA_N@Z 10104664 f i libcpmt:wlocale.obj
 0001:0010381c       ?do_get@?$time_get@GV?$istreambuf_iterator@GU?$char_traits@G@std@@@std@@@std@@MBE?AV?$istreambuf_iterator@GU?$char_traits@G@std@@@2@V32@0AAVios_base@2@AAHPAUtm@@DD@Z 1010481c f i libcpmt:wlocale.obj
 0001:00103b85       ?do_get@?$time_get@_WV?$istreambuf_iterator@_WU?$char_traits@_W@std@@@std@@@std@@MBE?AV?$istreambuf_iterator@_WU?$char_traits@_W@std@@@2@V32@0AAVios_base@2@AAHPAUtm@@DD@Z 10104b85 f i libcpmt:wlocale.obj
 0001:00103eee       ?do_get_date@?$time_get@GV?$istreambuf_iterator@GU?$char_traits@G@std@@@std@@@std@@MBE?AV?$istreambuf_iterator@GU?$char_traits@G@std@@@2@V32@0AAVios_base@2@AAHPAUtm@@@Z 10104eee f i libcpmt:wlocale.obj
 0001:00104341       ?do_get_date@?$time_get@_WV?$istreambuf_iterator@_WU?$char_traits@_W@std@@@std@@@std@@MBE?AV?$istreambuf_iterator@_WU?$char_traits@_W@std@@@2@V32@0AAVios_base@2@AAHPAUtm@@@Z 10105341 f i libcpmt:wlocale.obj
 0001:00104794       ?do_get_monthname@?$time_get@GV?$istreambuf_iterator@GU?$char_traits@G@std@@@std@@@std@@MBE?AV?$istreambuf_iterator@GU?$char_traits@G@std@@@2@V32@0AAVios_base@2@AAHPAUtm@@@Z 10105794 f i libcpmt:wlocale.obj
 0001:00104794       ?do_get_monthname@?$time_get@_WV?$istreambuf_iterator@_WU?$char_traits@_W@std@@@std@@@std@@MBE?AV?$istreambuf_iterator@_WU?$char_traits@_W@std@@@2@V32@0AAVios_base@2@AAHPAUtm@@@Z 10105794 f i libcpmt:wlocale.obj
 0001:001047d4       ?do_get_time@?$time_get@GV?$istreambuf_iterator@GU?$char_traits@G@std@@@std@@@std@@MBE?AV?$istreambuf_iterator@GU?$char_traits@G@std@@@2@V32@0AAVios_base@2@AAHPAUtm@@@Z 101057d4 f i libcpmt:wlocale.obj
 0001:001048d6       ?do_get_time@?$time_get@_WV?$istreambuf_iterator@_WU?$char_traits@_W@std@@@std@@@std@@MBE?AV?$istreambuf_iterator@_WU?$char_traits@_W@std@@@2@V32@0AAVios_base@2@AAHPAUtm@@@Z 101058d6 f i libcpmt:wlocale.obj
 0001:001049d8       ?do_get_weekday@?$time_get@_WV?$istreambuf_iterator@_WU?$char_traits@_W@std@@@std@@@std@@MBE?AV?$istreambuf_iterator@_WU?$char_traits@_W@std@@@2@V32@0AAVios_base@2@AAHPAUtm@@@Z 101059d8 f i libcpmt:wlocale.obj
 0001:001049d8       ?do_get_weekday@?$time_get@GV?$istreambuf_iterator@GU?$char_traits@G@std@@@std@@@std@@MBE?AV?$istreambuf_iterator@GU?$char_traits@G@std@@@2@V32@0AAVios_base@2@AAHPAUtm@@@Z 101059d8 f i libcpmt:wlocale.obj
 0001:00104a18       ?do_get_year@?$time_get@GV?$istreambuf_iterator@GU?$char_traits@G@std@@@std@@@std@@MBE?AV?$istreambuf_iterator@GU?$char_traits@G@std@@@2@V32@0AAVios_base@2@AAHPAUtm@@@Z 10105a18 f i libcpmt:wlocale.obj
 0001:00104ab0       ?do_get_year@?$time_get@_WV?$istreambuf_iterator@_WU?$char_traits@_W@std@@@std@@@std@@MBE?AV?$istreambuf_iterator@_WU?$char_traits@_W@std@@@2@V32@0AAVios_base@2@AAHPAUtm@@@Z 10105ab0 f i libcpmt:wlocale.obj
 0001:00104b48       ?do_grouping@?$numpunct@_W@std@@MBE?AV?$basic_string@DU?$char_traits@D@std@@V?$allocator@D@2@@2@XZ 10105b48 f i libcpmt:wlocale.obj
 0001:00104b48       ?do_grouping@?$numpunct@G@std@@MBE?AV?$basic_string@DU?$char_traits@D@std@@V?$allocator@D@2@@2@XZ 10105b48 f i libcpmt:wlocale.obj
 0001:00104b48       ?do_grouping@?$_Mpunct@D@std@@MBE?AV?$basic_string@DU?$char_traits@D@std@@V?$allocator@D@2@@2@XZ 10105b48 f i libcpmt:xlocale.obj
 0001:00104b48       ?do_grouping@?$_Mpunct@_W@std@@MBE?AV?$basic_string@DU?$char_traits@D@std@@V?$allocator@D@2@@2@XZ 10105b48 f i libcpmt:wlocale.obj
 0001:00104b48       ?do_grouping@?$_Mpunct@G@std@@MBE?AV?$basic_string@DU?$char_traits@D@std@@V?$allocator@D@2@@2@XZ 10105b48 f i libcpmt:wlocale.obj
 0001:00104b64       ?do_hash@?$collate@G@std@@MBEJPBG0@Z 10105b64 f i libcpmt:wlocale.obj
 0001:00104b64       ?do_hash@?$collate@_W@std@@MBEJPB_W0@Z 10105b64 f i libcpmt:wlocale.obj
 0001:00104b7f       ?do_in@?$codecvt@GDH@std@@MBEHAAHPBD1AAPBDPAG3AAPAG@Z 10105b7f f i libcpmt:wlocale.obj
 0001:00104c19       ?do_is@?$ctype@_W@std@@MBEPB_WPB_W0PAF@Z 10105c19 f i libcpmt:wlocale.obj
 0001:00104c19       ?do_is@?$ctype@G@std@@MBEPBGPBG0PAF@Z 10105c19 f i libcpmt:wlocale.obj
 0001:00104c35       ?do_is@?$ctype@_W@std@@MBE_NF_W@Z 10105c35 f i libcpmt:wlocale.obj
 0001:00104c35       ?do_is@?$ctype@G@std@@MBE_NFG@Z 10105c35 f i libcpmt:wlocale.obj
 0001:00104c54       ?do_length@?$codecvt@GDH@std@@MBEHAAHPBD1I@Z 10105c54 f i libcpmt:wlocale.obj
 0001:00104ccb       ?do_max_length@?$codecvt@GDH@std@@MBEHXZ 10105ccb f i libcpmt:wlocale.obj
 0001:00104ccf       ?do_narrow@?$ctype@_W@std@@MBED_WD@Z 10105ccf f i libcpmt:wlocale.obj
 0001:00104ccf       ?do_narrow@?$ctype@G@std@@MBEDGD@Z 10105ccf f i libcpmt:wlocale.obj
 0001:00104cd8       ?do_narrow@?$ctype@G@std@@MBEPBGPBG0DPAD@Z 10105cd8 f i libcpmt:wlocale.obj
 0001:00104cd8       ?do_narrow@?$ctype@_W@std@@MBEPB_WPB_W0DPAD@Z 10105cd8 f i libcpmt:wlocale.obj
 0001:00104d2b       ?do_neg_format@?$_Mpunct@G@std@@MBE?AUpattern@money_base@2@XZ 10105d2b f i libcpmt:wlocale.obj
 0001:00104d2b       ?do_neg_format@?$_Mpunct@_W@std@@MBE?AUpattern@money_base@2@XZ 10105d2b f i libcpmt:wlocale.obj
 0001:00104d2b       ?do_neg_format@?$_Mpunct@D@std@@MBE?AUpattern@money_base@2@XZ 10105d2b f i libcpmt:xlocale.obj
 0001:00104d3a       ?do_negative_sign@?$_Mpunct@G@std@@MBE?AV?$basic_string@GU?$char_traits@G@std@@V?$allocator@G@2@@2@XZ 10105d3a f i libcpmt:wlocale.obj
 0001:00104d56       ?do_negative_sign@?$_Mpunct@_W@std@@MBE?AV?$basic_string@_WU?$char_traits@_W@std@@V?$allocator@_W@2@@2@XZ 10105d56 f i libcpmt:wlocale.obj
 0001:00104d72       ?do_open@?$messages@G@std@@MBEHABV?$basic_string@DU?$char_traits@D@std@@V?$allocator@D@2@@2@ABVlocale@2@@Z 10105d72 f i libcpmt:wlocale.obj
 0001:00104d72       ?do_open@?$messages@D@std@@MBEHABV?$basic_string@DU?$char_traits@D@std@@V?$allocator@D@2@@2@ABVlocale@2@@Z 10105d72 f i libcpmt:xlocale.obj
 0001:00104d72       ?do_open@?$messages@_W@std@@MBEHABV?$basic_string@DU?$char_traits@D@std@@V?$allocator@D@2@@2@ABVlocale@2@@Z 10105d72 f i libcpmt:wlocale.obj
 0001:00104d78       ?do_out@?$codecvt@GDH@std@@MBEHAAHPBG1AAPBGPAD3AAPAD@Z 10105d78 f i libcpmt:wlocale.obj
 0001:00104e6d       ?do_truename@?$numpunct@G@std@@MBE?AV?$basic_string@GU?$char_traits@G@std@@V?$allocator@G@2@@2@XZ 10105e6d f i libcpmt:wlocale.obj
 0001:00104e6d       ?do_positive_sign@?$_Mpunct@G@std@@MBE?AV?$basic_string@GU?$char_traits@G@std@@V?$allocator@G@2@@2@XZ 10105e6d f i libcpmt:wlocale.obj
 0001:00104e89       ?do_positive_sign@?$_Mpunct@_W@std@@MBE?AV?$basic_string@_WU?$char_traits@_W@std@@V?$allocator@_W@2@@2@XZ 10105e89 f i libcpmt:wlocale.obj
 0001:00104e89       ?do_truename@?$numpunct@_W@std@@MBE?AV?$basic_string@_WU?$char_traits@_W@std@@V?$allocator@_W@2@@2@XZ 10105e89 f i libcpmt:wlocale.obj
 0001:00104ea5       ?do_put@?$money_put@GV?$ostreambuf_iterator@GU?$char_traits@G@std@@@std@@@std@@MBE?AV?$ostreambuf_iterator@GU?$char_traits@G@std@@@2@V32@_NAAVios_base@2@GABV?$basic_string@GU?$char_traits@G@std@@V?$allocator@G@2@@2@@Z 10105ea5 f i libcpmt:wlocale.obj
 0001:00104fc4       ?do_put@?$money_put@GV?$ostreambuf_iterator@GU?$char_traits@G@std@@@std@@@std@@MBE?AV?$ostreambuf_iterator@GU?$char_traits@G@std@@@2@V32@_NAAVios_base@2@GO@Z 10105fc4 f i libcpmt:wlocale.obj
 0001:00105125       ?do_put@?$money_put@_WV?$ostreambuf_iterator@_WU?$char_traits@_W@std@@@std@@@std@@MBE?AV?$ostreambuf_iterator@_WU?$char_traits@_W@std@@@2@V32@_NAAVios_base@2@_WABV?$basic_string@_WU?$char_traits@_W@std@@V?$allocator@_W@2@@2@@Z 10106125 f i libcpmt:wlocale.obj
 0001:00105244       ?do_put@?$money_put@_WV?$ostreambuf_iterator@_WU?$char_traits@_W@std@@@std@@@std@@MBE?AV?$ostreambuf_iterator@_WU?$char_traits@_W@std@@@2@V32@_NAAVios_base@2@_WO@Z 10106244 f i libcpmt:wlocale.obj
 0001:001053a5       ?do_put@?$num_put@GV?$ostreambuf_iterator@GU?$char_traits@G@std@@@std@@@std@@MBE?AV?$ostreambuf_iterator@GU?$char_traits@G@std@@@2@V32@AAVios_base@2@GJ@Z 101063a5 f i libcpmt:wlocale.obj
 0001:00105412       ?do_put@?$num_put@GV?$ostreambuf_iterator@GU?$char_traits@G@std@@@std@@@std@@MBE?AV?$ostreambuf_iterator@GU?$char_traits@G@std@@@2@V32@AAVios_base@2@GK@Z 10106412 f i libcpmt:wlocale.obj
 0001:0010547f       ?do_put@?$num_put@GV?$ostreambuf_iterator@GU?$char_traits@G@std@@@std@@@std@@MBE?AV?$ostreambuf_iterator@GU?$char_traits@G@std@@@2@V32@AAVios_base@2@GN@Z 1010647f f i libcpmt:wlocale.obj
 0001:00105637       ?do_put@?$num_put@GV?$ostreambuf_iterator@GU?$char_traits@G@std@@@std@@@std@@MBE?AV?$ostreambuf_iterator@GU?$char_traits@G@std@@@2@V32@AAVios_base@2@GO@Z 10106637 f i libcpmt:wlocale.obj
 0001:001057d5       ?do_put@?$num_put@GV?$ostreambuf_iterator@GU?$char_traits@G@std@@@std@@@std@@MBE?AV?$ostreambuf_iterator@GU?$char_traits@G@std@@@2@V32@AAVios_base@2@GPBX@Z 101067d5 f i libcpmt:wlocale.obj
 0001:00105832       ?do_put@?$num_put@GV?$ostreambuf_iterator@GU?$char_traits@G@std@@@std@@@std@@MBE?AV?$ostreambuf_iterator@GU?$char_traits@G@std@@@2@V32@AAVios_base@2@G_J@Z 10106832 f i libcpmt:wlocale.obj
 0001:001058a2       ?do_put@?$num_put@GV?$ostreambuf_iterator@GU?$char_traits@G@std@@@std@@@std@@MBE?AV?$ostreambuf_iterator@GU?$char_traits@G@std@@@2@V32@AAVios_base@2@G_K@Z 101068a2 f i libcpmt:wlocale.obj
 0001:00105912       ?do_put@?$num_put@GV?$ostreambuf_iterator@GU?$char_traits@G@std@@@std@@@std@@MBE?AV?$ostreambuf_iterator@GU?$char_traits@G@std@@@2@V32@AAVios_base@2@G_N@Z 10106912 f i libcpmt:wlocale.obj
 0001:00105a74       ?do_put@?$num_put@_WV?$ostreambuf_iterator@_WU?$char_traits@_W@std@@@std@@@std@@MBE?AV?$ostreambuf_iterator@_WU?$char_traits@_W@std@@@2@V32@AAVios_base@2@_WJ@Z 10106a74 f i libcpmt:wlocale.obj
 0001:00105ae1       ?do_put@?$num_put@_WV?$ostreambuf_iterator@_WU?$char_traits@_W@std@@@std@@@std@@MBE?AV?$ostreambuf_iterator@_WU?$char_traits@_W@std@@@2@V32@AAVios_base@2@_WK@Z 10106ae1 f i libcpmt:wlocale.obj
 0001:00105b4e       ?do_put@?$num_put@_WV?$ostreambuf_iterator@_WU?$char_traits@_W@std@@@std@@@std@@MBE?AV?$ostreambuf_iterator@_WU?$char_traits@_W@std@@@2@V32@AAVios_base@2@_WN@Z 10106b4e f i libcpmt:wlocale.obj
 0001:00105d06       ?do_put@?$num_put@_WV?$ostreambuf_iterator@_WU?$char_traits@_W@std@@@std@@@std@@MBE?AV?$ostreambuf_iterator@_WU?$char_traits@_W@std@@@2@V32@AAVios_base@2@_WO@Z 10106d06 f i libcpmt:wlocale.obj
 0001:00105ea4       ?do_put@?$num_put@_WV?$ostreambuf_iterator@_WU?$char_traits@_W@std@@@std@@@std@@MBE?AV?$ostreambuf_iterator@_WU?$char_traits@_W@std@@@2@V32@AAVios_base@2@_WPBX@Z 10106ea4 f i libcpmt:wlocale.obj
 0001:00105f01       ?do_put@?$num_put@_WV?$ostreambuf_iterator@_WU?$char_traits@_W@std@@@std@@@std@@MBE?AV?$ostreambuf_iterator@_WU?$char_traits@_W@std@@@2@V32@AAVios_base@2@_W_J@Z 10106f01 f i libcpmt:wlocale.obj
 0001:00105f71       ?do_put@?$num_put@_WV?$ostreambuf_iterator@_WU?$char_traits@_W@std@@@std@@@std@@MBE?AV?$ostreambuf_iterator@_WU?$char_traits@_W@std@@@2@V32@AAVios_base@2@_W_K@Z 10106f71 f i libcpmt:wlocale.obj
 0001:00105fe1       ?do_put@?$num_put@_WV?$ostreambuf_iterator@_WU?$char_traits@_W@std@@@std@@@std@@MBE?AV?$ostreambuf_iterator@_WU?$char_traits@_W@std@@@2@V32@AAVios_base@2@_W_N@Z 10106fe1 f i libcpmt:wlocale.obj
 0001:00106143       ?do_put@?$time_put@_WV?$ostreambuf_iterator@_WU?$char_traits@_W@std@@@std@@@std@@MBE?AV?$ostreambuf_iterator@_WU?$char_traits@_W@std@@@2@V32@AAVios_base@2@_WPBUtm@@DD@Z 10107143 f i libcpmt:wlocale.obj
 0001:00106143       ?do_put@?$time_put@GV?$ostreambuf_iterator@GU?$char_traits@G@std@@@std@@@std@@MBE?AV?$ostreambuf_iterator@GU?$char_traits@G@std@@@2@V32@AAVios_base@2@GPBUtm@@DD@Z 10107143 f i libcpmt:wlocale.obj
 0001:0010621d       ?do_scan_is@?$ctype@G@std@@MBEPBGFPBG0@Z 1010721d f i libcpmt:wlocale.obj
 0001:0010621d       ?do_scan_is@?$ctype@_W@std@@MBEPB_WFPB_W0@Z 1010721d f i libcpmt:wlocale.obj
 0001:0010624b       ?do_scan_not@?$ctype@G@std@@MBEPBGFPBG0@Z 1010724b f i libcpmt:wlocale.obj
 0001:0010624b       ?do_scan_not@?$ctype@_W@std@@MBEPB_WFPB_W0@Z 1010724b f i libcpmt:wlocale.obj
 0001:00106279       ?do_thousands_sep@?$numpunct@_W@std@@MBE_WXZ 10107279 f i libcpmt:wlocale.obj
 0001:00106279       ?do_thousands_sep@?$_Mpunct@_W@std@@MBE_WXZ 10107279 f i libcpmt:wlocale.obj
 0001:00106279       ?do_thousands_sep@?$numpunct@G@std@@MBEGXZ 10107279 f i libcpmt:wlocale.obj
 0001:00106279       ?do_thousands_sep@?$_Mpunct@G@std@@MBEGXZ 10107279 f i libcpmt:wlocale.obj
 0001:0010627e       ?do_tolower@?$ctype@G@std@@MBEGG@Z 1010727e f i libcpmt:wlocale.obj
 0001:0010627e       ?do_tolower@?$ctype@_W@std@@MBE_W_W@Z 1010727e f i libcpmt:wlocale.obj
 0001:00106293       ?do_tolower@?$ctype@_W@std@@MBEPB_WPA_WPB_W@Z 10107293 f i libcpmt:wlocale.obj
 0001:00106293       ?do_tolower@?$ctype@G@std@@MBEPBGPAGPBG@Z 10107293 f i libcpmt:wlocale.obj
 0001:001062da       ?do_toupper@?$ctype@_W@std@@MBEPB_WPA_WPB_W@Z 101072da f i libcpmt:wlocale.obj
 0001:001062da       ?do_toupper@?$ctype@G@std@@MBEPBGPAGPBG@Z 101072da f i libcpmt:wlocale.obj
 0001:00106321       ?do_toupper@?$ctype@_W@std@@MBE_W_W@Z 10107321 f i libcpmt:wlocale.obj
 0001:00106321       ?do_toupper@?$ctype@G@std@@MBEGG@Z 10107321 f i libcpmt:wlocale.obj
 0001:00106336       ?do_transform@?$collate@G@std@@MBE?AV?$basic_string@GU?$char_traits@G@std@@V?$allocator@G@2@@2@PBG0@Z 10107336 f i libcpmt:wlocale.obj
 0001:001063c4       ?do_transform@?$collate@_W@std@@MBE?AV?$basic_string@_WU?$char_traits@_W@std@@V?$allocator@_W@2@@2@PB_W0@Z 101073c4 f i libcpmt:wlocale.obj
 0001:00106452       ?do_unshift@?$codecvt@GDH@std@@MBEHAAHPAD1AAPAD@Z 10107452 f i libcpmt:wlocale.obj
 0001:001064d8       ?do_widen@?$ctype@_W@std@@MBE_WD@Z 101074d8 f i libcpmt:wlocale.obj
 0001:001064d8       ?do_widen@?$ctype@G@std@@MBEGD@Z 101074d8 f i libcpmt:wlocale.obj
 0001:001064e1       ?do_widen@?$ctype@_W@std@@MBEPBDPBD0PA_W@Z 101074e1 f i libcpmt:wlocale.obj
 0001:001064e1       ?do_widen@?$ctype@G@std@@MBEPBDPBD0PAG@Z 101074e1 f i libcpmt:wlocale.obj
 0001:0010652f       ?equal@?$istreambuf_iterator@_WU?$char_traits@_W@std@@@std@@QBE_NABV12@@Z 1010752f f i libcpmt:wlocale.obj
 0001:0010652f       ?equal@?$istreambuf_iterator@GU?$char_traits@G@std@@@std@@QBE_NABV12@@Z 1010752f f i libcpmt:wlocale.obj
 0001:0010656a       ?erase@?$basic_string@GU?$char_traits@G@std@@V?$allocator@G@2@@std@@QAEAAV12@I@Z 1010756a f i libcpmt:wlocale.obj
 0001:0010659d       ?erase@?$basic_string@GU?$char_traits@G@std@@V?$allocator@G@2@@std@@QAEAAV12@II@Z 1010759d f i libcpmt:wlocale.obj
 0001:00106621       ?falsename@?$numpunct@_W@std@@QBE?AV?$basic_string@_WU?$char_traits@_W@std@@V?$allocator@_W@2@@2@XZ 10107621 f i libcpmt:wlocale.obj
 0001:00106621       ?curr_symbol@?$_Mpunct@G@std@@QBE?AV?$basic_string@GU?$char_traits@G@std@@V?$allocator@G@2@@2@XZ 10107621 f i libcpmt:wlocale.obj
 0001:00106621       ?curr_symbol@?$_Mpunct@_W@std@@QBE?AV?$basic_string@_WU?$char_traits@_W@std@@V?$allocator@_W@2@@2@XZ 10107621 f i libcpmt:wlocale.obj
 0001:00106621       ?falsename@?$numpunct@G@std@@QBE?AV?$basic_string@GU?$char_traits@G@std@@V?$allocator@G@2@@2@XZ 10107621 f i libcpmt:wlocale.obj
 0001:00106621       ?curr_symbol@?$_Mpunct@D@std@@QBE?AV?$basic_string@DU?$char_traits@D@std@@V?$allocator@D@2@@2@XZ 10107621 f i libcpmt:xlocale.obj
 0001:0010663a       ?grouping@?$numpunct@_W@std@@QBE?AV?$basic_string@DU?$char_traits@D@std@@V?$allocator@D@2@@2@XZ 1010763a f i libcpmt:wlocale.obj
 0001:0010663a       ?grouping@?$_Mpunct@D@std@@QBE?AV?$basic_string@DU?$char_traits@D@std@@V?$allocator@D@2@@2@XZ 1010763a f i libcpmt:xlocale.obj
 0001:0010663a       ?grouping@?$numpunct@G@std@@QBE?AV?$basic_string@DU?$char_traits@D@std@@V?$allocator@D@2@@2@XZ 1010763a f i libcpmt:wlocale.obj
 0001:0010663a       ?grouping@?$_Mpunct@G@std@@QBE?AV?$basic_string@DU?$char_traits@D@std@@V?$allocator@D@2@@2@XZ 1010763a f i libcpmt:wlocale.obj
 0001:0010663a       ?grouping@?$_Mpunct@_W@std@@QBE?AV?$basic_string@DU?$char_traits@D@std@@V?$allocator@D@2@@2@XZ 1010763a f i libcpmt:wlocale.obj
 0001:00106653       ?insert@?$basic_string@GU?$char_traits@G@std@@V?$allocator@G@2@@std@@QAEAAV12@IIG@Z 10107653 f i libcpmt:wlocale.obj
 0001:00106704       ?move@?$char_traits@G@std@@SAPAGPAGPBGI@Z 10107704 f i libcpmt:wlocale.obj
 0001:00106726       ?name@locale@std@@QBE?AV?$basic_string@DU?$char_traits@D@std@@V?$allocator@D@2@@2@XZ 10107726 f i libcpmt:wlocale.obj
 0001:001067a5       ?negative_sign@?$_Mpunct@G@std@@QBE?AV?$basic_string@GU?$char_traits@G@std@@V?$allocator@G@2@@2@XZ 101077a5 f i libcpmt:wlocale.obj
 0001:001067a5       ?negative_sign@?$_Mpunct@_W@std@@QBE?AV?$basic_string@_WU?$char_traits@_W@std@@V?$allocator@_W@2@@2@XZ 101077a5 f i libcpmt:wlocale.obj
 0001:001067a5       ?negative_sign@?$_Mpunct@D@std@@QBE?AV?$basic_string@DU?$char_traits@D@std@@V?$allocator@D@2@@2@XZ 101077a5 f i libcpmt:xlocale.obj
 0001:001067be       ?positive_sign@?$_Mpunct@D@std@@QBE?AV?$basic_string@DU?$char_traits@D@std@@V?$allocator@D@2@@2@XZ 101077be f i libcpmt:xlocale.obj
 0001:001067be       ?positive_sign@?$_Mpunct@G@std@@QBE?AV?$basic_string@GU?$char_traits@G@std@@V?$allocator@G@2@@2@XZ 101077be f i libcpmt:wlocale.obj
 0001:001067be       ?truename@?$numpunct@_W@std@@QBE?AV?$basic_string@_WU?$char_traits@_W@std@@V?$allocator@_W@2@@2@XZ 101077be f i libcpmt:wlocale.obj
 0001:001067be       ?truename@?$numpunct@G@std@@QBE?AV?$basic_string@GU?$char_traits@G@std@@V?$allocator@G@2@@2@XZ 101077be f i libcpmt:wlocale.obj
 0001:001067be       ?positive_sign@?$_Mpunct@_W@std@@QBE?AV?$basic_string@_WU?$char_traits@_W@std@@V?$allocator@_W@2@@2@XZ 101077be f i libcpmt:wlocale.obj
 0001:001067d7       ?resize@?$basic_string@GU?$char_traits@G@std@@V?$allocator@G@2@@std@@QAEXIG@Z 101077d7 f i libcpmt:wlocale.obj
 0001:00106805       ?resize@?$basic_string@_WU?$char_traits@_W@std@@V?$allocator@_W@2@@std@@QAEXI_W@Z 10107805 f i libcpmt:wlocale.obj
 0001:00106833       ?sbumpc@?$basic_streambuf@_WU?$char_traits@_W@std@@@std@@QAEGXZ 10107833 f i libcpmt:wlocale.obj
 0001:00106833       ?sbumpc@?$basic_streambuf@GU?$char_traits@G@std@@@std@@QAEGXZ 10107833 f i libcpmt:wlocale.obj
 0001:00106861       ?sgetc@?$basic_streambuf@_WU?$char_traits@_W@std@@@std@@QAEGXZ 10107861 f i libcpmt:wlocale.obj
 0001:00106861       ?sgetc@?$basic_streambuf@GU?$char_traits@G@std@@@std@@QAEGXZ 10107861 f i libcpmt:wlocale.obj
 0001:00106884       ?sputc@?$basic_streambuf@_WU?$char_traits@_W@std@@@std@@QAEG_W@Z 10107884 f i libcpmt:wlocale.obj
 0001:00106884       ?sputc@?$basic_streambuf@GU?$char_traits@G@std@@@std@@QAEGG@Z 10107884 f i libcpmt:wlocale.obj
 0001:001068bf       ??$_Copy_impl@PADV?$ostreambuf_iterator@DU?$char_traits@D@std@@@std@@@std@@YA?AV?$ostreambuf_iterator@DU?$char_traits@D@std@@@0@PAD0V10@@Z 101078bf f i libcpmt:xlocale.obj
 0001:001068e1       ??$_Copy_impl@PADV?$ostreambuf_iterator@DU?$char_traits@D@std@@@std@@@std@@YA?AV?$ostreambuf_iterator@DU?$char_traits@D@std@@@0@PAD0V10@U_Nonscalar_ptr_iterator_tag@0@@Z 101078e1 f i libcpmt:xlocale.obj
 0001:00106921       ??$_Getvals@D@?$_Mpunct@D@std@@IAEXDPBUlconv@@@Z 10107921 f i libcpmt:xlocale.obj
 0001:0010699d       ??$_Getvals@D@?$time_get@DV?$istreambuf_iterator@DU?$char_traits@D@std@@@std@@@std@@IAEXDABV_Locinfo@1@@Z 1010799d f i libcpmt:xlocale.obj
 0001:00106a0a       ??$copy@PADV?$ostreambuf_iterator@DU?$char_traits@D@std@@@std@@@std@@YA?AV?$ostreambuf_iterator@DU?$char_traits@D@std@@@0@PAD0V10@@Z 10107a0a f i libcpmt:xlocale.obj
 0001:00106a3a       ??$use_facet@V?$collate@D@std@@@std@@YAABV?$collate@D@0@ABVlocale@0@@Z 10107a3a f i libcpmt:xlocale.obj
 0001:00106ad3       ??$use_facet@V?$messages@D@std@@@std@@YAABV?$messages@D@0@ABVlocale@0@@Z 10107ad3 f i libcpmt:xlocale.obj
 0001:00106b6c       ??$use_facet@V?$money_get@DV?$istreambuf_iterator@DU?$char_traits@D@std@@@std@@@std@@@std@@YAABV?$money_get@DV?$istreambuf_iterator@DU?$char_traits@D@std@@@std@@@0@ABVlocale@0@@Z 10107b6c f i libcpmt:xlocale.obj
 0001:00106c05       ??$use_facet@V?$money_put@DV?$ostreambuf_iterator@DU?$char_traits@D@std@@@std@@@std@@@std@@YAABV?$money_put@DV?$ostreambuf_iterator@DU?$char_traits@D@std@@@std@@@0@ABVlocale@0@@Z 10107c05 f i libcpmt:xlocale.obj
 0001:00106c9e       ??$use_facet@V?$moneypunct@D$00@std@@@std@@YAABV?$moneypunct@D$00@0@ABVlocale@0@@Z 10107c9e f i libcpmt:xlocale.obj
 0001:00106d37       ??$use_facet@V?$moneypunct@D$0A@@std@@@std@@YAABV?$moneypunct@D$0A@@0@ABVlocale@0@@Z 10107d37 f i libcpmt:xlocale.obj
 0001:00106dd0       ??$use_facet@V?$time_get@DV?$istreambuf_iterator@DU?$char_traits@D@std@@@std@@@std@@@std@@YAABV?$time_get@DV?$istreambuf_iterator@DU?$char_traits@D@std@@@std@@@0@ABVlocale@0@@Z 10107dd0 f i libcpmt:xlocale.obj
 0001:00106e69       ??$use_facet@V?$time_put@DV?$ostreambuf_iterator@DU?$char_traits@D@std@@@std@@@std@@@std@@YAABV?$time_put@DV?$ostreambuf_iterator@DU?$char_traits@D@std@@@std@@@0@ABVlocale@0@@Z 10107e69 f i libcpmt:xlocale.obj
 0001:00106f02       ??0?$time_get@DV?$istreambuf_iterator@DU?$char_traits@D@std@@@std@@@std@@QAE@ABV_Locinfo@1@I@Z 10107f02 f i libcpmt:xlocale.obj
 0001:00106f35       ??1?$collate@D@std@@MAE@XZ 10107f35 f i libcpmt:xlocale.obj
 0001:00106f4f       ??1?$time_put@DV?$ostreambuf_iterator@DU?$char_traits@D@std@@@std@@@std@@MAE@XZ 10107f4f f i libcpmt:xlocale.obj
 0001:00106f69       ??_E?$collate@D@std@@MAEPAXI@Z 10107f69 f i libcpmt:xlocale.obj
 0001:00106f69       ??_G?$collate@D@std@@MAEPAXI@Z 10107f69 f i libcpmt:xlocale.obj
 0001:00106f88       ??_G?$messages@_W@std@@MAEPAXI@Z 10107f88 f i libcpmt:wlocale.obj
 0001:00106f88       ??_E?$num_put@_WV?$ostreambuf_iterator@_WU?$char_traits@_W@std@@@std@@@std@@MAEPAXI@Z 10107f88 f i libcpmt:wlocale.obj
 0001:00106f88       ??_G?$num_put@GV?$ostreambuf_iterator@GU?$char_traits@G@std@@@std@@@std@@MAEPAXI@Z 10107f88 f i libcpmt:wlocale.obj
 0001:00106f88       ??_E?$money_put@GV?$ostreambuf_iterator@GU?$char_traits@G@std@@@std@@@std@@MAEPAXI@Z 10107f88 f i libcpmt:wlocale.obj
 0001:00106f88       ??_G?$messages@G@std@@MAEPAXI@Z 10107f88 f i libcpmt:wlocale.obj
 0001:00106f88       ??_G?$messages@D@std@@MAEPAXI@Z 10107f88 f i libcpmt:xlocale.obj
 0001:00106f88       ??_E?$num_get@GV?$istreambuf_iterator@GU?$char_traits@G@std@@@std@@@std@@MAEPAXI@Z 10107f88 f i libcpmt:wlocale.obj
 0001:00106f88       ??_G?$num_put@_WV?$ostreambuf_iterator@_WU?$char_traits@_W@std@@@std@@@std@@MAEPAXI@Z 10107f88 f i libcpmt:wlocale.obj
 0001:00106f88       ??_G?$money_put@_WV?$ostreambuf_iterator@_WU?$char_traits@_W@std@@@std@@@std@@MAEPAXI@Z 10107f88 f i libcpmt:wlocale.obj
 0001:00106f88       ??_G?$money_get@DV?$istreambuf_iterator@DU?$char_traits@D@std@@@std@@@std@@MAEPAXI@Z 10107f88 f i libcpmt:xlocale.obj
 0001:00106f88       ??_E?$num_get@_WV?$istreambuf_iterator@_WU?$char_traits@_W@std@@@std@@@std@@MAEPAXI@Z 10107f88 f i libcpmt:wlocale.obj
 0001:00106f88       ??_E?$num_get@DV?$istreambuf_iterator@DU?$char_traits@D@std@@@std@@@std@@MAEPAXI@Z 10107f88 f i libcpmt:locale.obj
 0001:00106f88       ??_G?$money_put@GV?$ostreambuf_iterator@GU?$char_traits@G@std@@@std@@@std@@MAEPAXI@Z 10107f88 f i libcpmt:wlocale.obj
 0001:00106f88       ??_G?$num_get@DV?$istreambuf_iterator@DU?$char_traits@D@std@@@std@@@std@@MAEPAXI@Z 10107f88 f i libcpmt:locale.obj
 0001:00106f88       ??_E?$num_put@GV?$ostreambuf_iterator@GU?$char_traits@G@std@@@std@@@std@@MAEPAXI@Z 10107f88 f i libcpmt:wlocale.obj
 0001:00106f88       ??_E?$messages@D@std@@MAEPAXI@Z 10107f88 f i libcpmt:xlocale.obj
 0001:00106f88       ??_G?$num_get@GV?$istreambuf_iterator@GU?$char_traits@G@std@@@std@@@std@@MAEPAXI@Z 10107f88 f i libcpmt:wlocale.obj
 0001:00106f88       ??_E?$messages@G@std@@MAEPAXI@Z 10107f88 f i libcpmt:wlocale.obj
 0001:00106f88       ??_G?$codecvt@GDH@std@@MAEPAXI@Z 10107f88 f i libcpmt:wlocale.obj
 0001:00106f88       ??_E?$money_put@DV?$ostreambuf_iterator@DU?$char_traits@D@std@@@std@@@std@@MAEPAXI@Z 10107f88 f i libcpmt:xlocale.obj
 0001:00106f88       ??_E?$money_put@_WV?$ostreambuf_iterator@_WU?$char_traits@_W@std@@@std@@@std@@MAEPAXI@Z 10107f88 f i libcpmt:wlocale.obj
 0001:00106f88       ??_E?$money_get@DV?$istreambuf_iterator@DU?$char_traits@D@std@@@std@@@std@@MAEPAXI@Z 10107f88 f i libcpmt:xlocale.obj
 0001:00106f88       ??_G?$money_get@_WV?$istreambuf_iterator@_WU?$char_traits@_W@std@@@std@@@std@@MAEPAXI@Z 10107f88 f i libcpmt:wlocale.obj
 0001:00106f88       ??_G?$money_get@GV?$istreambuf_iterator@GU?$char_traits@G@std@@@std@@@std@@MAEPAXI@Z 10107f88 f i libcpmt:wlocale.obj
 0001:00106f88       ??_E?$money_get@GV?$istreambuf_iterator@GU?$char_traits@G@std@@@std@@@std@@MAEPAXI@Z 10107f88 f i libcpmt:wlocale.obj
 0001:00106f88       ??_G?$money_put@DV?$ostreambuf_iterator@DU?$char_traits@D@std@@@std@@@std@@MAEPAXI@Z 10107f88 f i libcpmt:xlocale.obj
 0001:00106f88       ??_E?$money_get@_WV?$istreambuf_iterator@_WU?$char_traits@_W@std@@@std@@@std@@MAEPAXI@Z 10107f88 f i libcpmt:wlocale.obj
 0001:00106f88       ??_G?$num_get@_WV?$istreambuf_iterator@_WU?$char_traits@_W@std@@@std@@@std@@MAEPAXI@Z 10107f88 f i libcpmt:wlocale.obj
 0001:00106f88       ??_E?$messages@_W@std@@MAEPAXI@Z 10107f88 f i libcpmt:wlocale.obj
 0001:00106f88       ??_E?$codecvt@GDH@std@@MAEPAXI@Z 10107f88 f i libcpmt:wlocale.obj
 0001:00106fa8       ??_E?$_Mpunct@D@std@@MAEPAXI@Z 10107fa8 f i libcpmt:xlocale.obj
 0001:00106fa8       ??_G?$moneypunct@D$0A@@std@@MAEPAXI@Z 10107fa8 f i libcpmt:xlocale.obj
 0001:00106fa8       ??_E?$moneypunct@D$00@std@@MAEPAXI@Z 10107fa8 f i libcpmt:xlocale.obj
 0001:00106fa8       ??_G?$_Mpunct@D@std@@MAEPAXI@Z 10107fa8 f i libcpmt:xlocale.obj
 0001:00106fa8       ??_G?$moneypunct@D$00@std@@MAEPAXI@Z 10107fa8 f i libcpmt:xlocale.obj
 0001:00106fa8       ??_E?$moneypunct@D$0A@@std@@MAEPAXI@Z 10107fa8 f i libcpmt:xlocale.obj
 0001:00106fd3       ??_E?$time_get@DV?$istreambuf_iterator@DU?$char_traits@D@std@@@std@@@std@@MAEPAXI@Z 10107fd3 f i libcpmt:xlocale.obj
 0001:00106fd3       ??_G?$time_get@DV?$istreambuf_iterator@DU?$char_traits@D@std@@@std@@@std@@MAEPAXI@Z 10107fd3 f i libcpmt:xlocale.obj
 0001:00106ffe       ??_E?$time_put@DV?$ostreambuf_iterator@DU?$char_traits@D@std@@@std@@@std@@MAEPAXI@Z 10107ffe f i libcpmt:xlocale.obj
 0001:00106ffe       ??_G?$time_put@DV?$ostreambuf_iterator@DU?$char_traits@D@std@@@std@@@std@@MAEPAXI@Z 10107ffe f i libcpmt:xlocale.obj
 0001:0010701d       ?_Getcat@?$collate@D@std@@SAIPAPBVfacet@locale@2@PBV42@@Z 1010801d f i libcpmt:xlocale.obj
 0001:001070c3       ?_Getcat@?$messages@D@std@@SAIPAPBVfacet@locale@2@PBV42@@Z 101080c3 f i libcpmt:xlocale.obj
 0001:0010712b       ?_Getcat@?$money_get@DV?$istreambuf_iterator@DU?$char_traits@D@std@@@std@@@std@@SAIPAPBVfacet@locale@2@PBV42@@Z 1010812b f i libcpmt:xlocale.obj
 0001:00107193       ?_Getcat@?$money_put@DV?$ostreambuf_iterator@DU?$char_traits@D@std@@@std@@@std@@SAIPAPBVfacet@locale@2@PBV42@@Z 10108193 f i libcpmt:xlocale.obj
 0001:001071fb       ?_Getcat@?$moneypunct@D$00@std@@SAIPAPBVfacet@locale@2@PBV42@@Z 101081fb f i libcpmt:xlocale.obj
 0001:0010727f       ?_Getcat@?$moneypunct@D$0A@@std@@SAIPAPBVfacet@locale@2@PBV42@@Z 1010827f f i libcpmt:xlocale.obj
 0001:00107304       ?_Getcat@?$time_get@DV?$istreambuf_iterator@DU?$char_traits@D@std@@@std@@@std@@SAIPAPBVfacet@locale@2@PBV42@@Z 10108304 f i libcpmt:xlocale.obj
 0001:00107370       ?_Getcat@?$time_put@DV?$ostreambuf_iterator@DU?$char_traits@D@std@@@std@@@std@@SAIPAPBVfacet@locale@2@PBV42@@Z 10108370 f i libcpmt:xlocale.obj
 0001:001073e4       ?_Getfmt@?$time_get@DV?$istreambuf_iterator@DU?$char_traits@D@std@@@std@@@std@@IBE?AV?$istreambuf_iterator@DU?$char_traits@D@std@@@2@V32@0AAVios_base@2@AAHPAUtm@@PBD@Z 101083e4 f i libcpmt:xlocale.obj
 0001:001074ef       ?_Getint@?$time_get@DV?$istreambuf_iterator@DU?$char_traits@D@std@@@std@@@std@@ABAHAAV?$istreambuf_iterator@DU?$char_traits@D@std@@@2@0HHAAHABV?$ctype@D@2@@Z 101084ef f i libcpmt:xlocale.obj
 0001:00107679       ?_Getmfld@?$money_get@DV?$istreambuf_iterator@DU?$char_traits@D@std@@@std@@@std@@ABE?AV?$basic_string@DU?$char_traits@D@std@@V?$allocator@D@2@@2@AAV?$istreambuf_iterator@DU?$char_traits@D@std@@@2@0_NAAVios_base@2@PAD@Z 10108679 f i libcpmt:xlocale.obj
 0001:001080c9       ?_W_Gettnames@_Locinfo@std@@QBE?AV_Timevec@2@XZ 101090c9 f i libcpmt:wlocale.obj
 0001:001080c9       ?_Gettnames@_Locinfo@std@@QBE?AV_Timevec@2@XZ 101090c9 f i libcpmt:xlocale.obj
 0001:001080e3       ?_Init@?$_Mpunct@D@std@@IAEXABV_Locinfo@2@_N@Z 101090e3 f i libcpmt:xlocale.obj
 0001:001081cc       ?_Init@?$time_get@DV?$istreambuf_iterator@DU?$char_traits@D@std@@@std@@@std@@IAEXABV_Locinfo@2@@Z 101091cc f i libcpmt:xlocale.obj
 0001:00108216       ?_Makexloc@_Locimp@locale@std@@CAXABV_Locinfo@3@HPAV123@PBV23@@Z 10109216 f   libcpmt:xlocale.obj
 0001:0010859a       ?_Makpat@?$_Mpunct@G@std@@AAEXAAUpattern@money_base@2@III@Z 1010959a f i libcpmt:wlocale.obj
 0001:0010859a       ?_Makpat@?$_Mpunct@_W@std@@AAEXAAUpattern@money_base@2@III@Z 1010959a f i libcpmt:wlocale.obj
 0001:0010859a       ?_Makpat@?$_Mpunct@D@std@@AAEXAAUpattern@money_base@2@III@Z 1010959a f i libcpmt:xlocale.obj
 0001:001085e4       ?_Put@?$money_put@DV?$ostreambuf_iterator@DU?$char_traits@D@std@@@std@@@std@@CA?AV?$ostreambuf_iterator@DU?$char_traits@D@std@@@2@V32@V?$_String_const_iterator@V?$_String_val@U?$_Simple_types@D@std@@@std@@@2@I@Z 101095e4 f i libcpmt:xlocale.obj
 0001:00108619       ?_Putmfld@?$money_put@DV?$ostreambuf_iterator@DU?$char_traits@D@std@@@std@@@std@@ABE?AV?$ostreambuf_iterator@DU?$char_traits@D@std@@@2@V32@_NAAVios_base@2@D1V?$basic_string@DU?$char_traits@D@std@@V?$allocator@D@2@@2@D@Z 10109619 f i libcpmt:xlocale.obj
 0001:00108b67       ?_Rep@?$money_put@DV?$ostreambuf_iterator@DU?$char_traits@D@std@@@std@@@std@@CA?AV?$ostreambuf_iterator@DU?$char_traits@D@std@@@2@V32@DI@Z 10109b67 f i libcpmt:xlocale.obj
 0001:00108b91       ?_Tidy@?$time_get@GV?$istreambuf_iterator@GU?$char_traits@G@std@@@std@@@std@@AAEXXZ 10109b91 f i libcpmt:wlocale.obj
 0001:00108b91       ?_Tidy@?$time_get@DV?$istreambuf_iterator@DU?$char_traits@D@std@@@std@@@std@@AAEXXZ 10109b91 f i libcpmt:xlocale.obj
 0001:00108b91       ?_Tidy@?$time_get@_WV?$istreambuf_iterator@_WU?$char_traits@_W@std@@@std@@@std@@AAEXXZ 10109b91 f i libcpmt:wlocale.obj
 0001:00108bb1       ?do_compare@?$collate@D@std@@MBEHPBD000@Z 10109bb1 f i libcpmt:xlocale.obj
 0001:00108be2       ?do_curr_symbol@?$_Mpunct@D@std@@MBE?AV?$basic_string@DU?$char_traits@D@std@@V?$allocator@D@2@@2@XZ 10109be2 f i libcpmt:xlocale.obj
 0001:00108bfe       ?do_frac_digits@?$_Mpunct@D@std@@MBEHXZ 10109bfe f i libcpmt:xlocale.obj
 0001:00108bfe       ?do_frac_digits@?$_Mpunct@G@std@@MBEHXZ 10109bfe f i libcpmt:wlocale.obj
 0001:00108bfe       ?do_frac_digits@?$_Mpunct@_W@std@@MBEHXZ 10109bfe f i libcpmt:wlocale.obj
 0001:00108c02       ?do_get@?$messages@D@std@@MBE?AV?$basic_string@DU?$char_traits@D@std@@V?$allocator@D@2@@2@HHHABV32@@Z 10109c02 f i libcpmt:xlocale.obj
 0001:00108c1e       ?do_get@?$money_get@DV?$istreambuf_iterator@DU?$char_traits@D@std@@@std@@@std@@MBE?AV?$istreambuf_iterator@DU?$char_traits@D@std@@@2@V32@0_NAAVios_base@2@AAHAAO@Z 10109c1e f i libcpmt:xlocale.obj
 0001:00108cca       ?do_get@?$money_get@DV?$istreambuf_iterator@DU?$char_traits@D@std@@@std@@@std@@MBE?AV?$istreambuf_iterator@DU?$char_traits@D@std@@@2@V32@0_NAAVios_base@2@AAHAAV?$basic_string@DU?$char_traits@D@std@@V?$allocator@D@2@@2@@Z 10109cca f i libcpmt:xlocale.obj
 0001:00108d9e       ?do_get@?$time_get@DV?$istreambuf_iterator@DU?$char_traits@D@std@@@std@@@std@@MBE?AV?$istreambuf_iterator@DU?$char_traits@D@std@@@2@V32@0AAVios_base@2@AAHPAUtm@@DD@Z 10109d9e f i libcpmt:xlocale.obj
 0001:00109107       ?do_get_date@?$time_get@DV?$istreambuf_iterator@DU?$char_traits@D@std@@@std@@@std@@MBE?AV?$istreambuf_iterator@DU?$char_traits@D@std@@@2@V32@0AAVios_base@2@AAHPAUtm@@@Z 1010a107 f i libcpmt:xlocale.obj
 0001:0010956e       ?do_get_monthname@?$time_get@DV?$istreambuf_iterator@DU?$char_traits@D@std@@@std@@@std@@MBE?AV?$istreambuf_iterator@DU?$char_traits@D@std@@@2@V32@0AAVios_base@2@AAHPAUtm@@@Z 1010a56e f i libcpmt:xlocale.obj
 0001:001095ae       ?do_get_time@?$time_get@DV?$istreambuf_iterator@DU?$char_traits@D@std@@@std@@@std@@MBE?AV?$istreambuf_iterator@DU?$char_traits@D@std@@@2@V32@0AAVios_base@2@AAHPAUtm@@@Z 1010a5ae f i libcpmt:xlocale.obj
 0001:001096b0       ?do_get_weekday@?$time_get@DV?$istreambuf_iterator@DU?$char_traits@D@std@@@std@@@std@@MBE?AV?$istreambuf_iterator@DU?$char_traits@D@std@@@2@V32@0AAVios_base@2@AAHPAUtm@@@Z 1010a6b0 f i libcpmt:xlocale.obj
 0001:001096f0       ?do_get_year@?$time_get@DV?$istreambuf_iterator@DU?$char_traits@D@std@@@std@@@std@@MBE?AV?$istreambuf_iterator@DU?$char_traits@D@std@@@2@V32@0AAVios_base@2@AAHPAUtm@@@Z 1010a6f0 f i libcpmt:xlocale.obj
 0001:00109788       ?do_hash@?$collate@D@std@@MBEJPBD0@Z 1010a788 f i libcpmt:xlocale.obj
 0001:001097a0       ?do_negative_sign@?$_Mpunct@D@std@@MBE?AV?$basic_string@DU?$char_traits@D@std@@V?$allocator@D@2@@2@XZ 1010a7a0 f i libcpmt:xlocale.obj
 0001:001097bc       ?do_pos_format@?$_Mpunct@D@std@@MBE?AUpattern@money_base@2@XZ 1010a7bc f i libcpmt:xlocale.obj
 0001:001097bc       ?do_pos_format@?$_Mpunct@_W@std@@MBE?AUpattern@money_base@2@XZ 1010a7bc f i libcpmt:wlocale.obj
 0001:001097bc       ?do_pos_format@?$_Mpunct@G@std@@MBE?AUpattern@money_base@2@XZ 1010a7bc f i libcpmt:wlocale.obj
 0001:001097cb       ?do_positive_sign@?$_Mpunct@D@std@@MBE?AV?$basic_string@DU?$char_traits@D@std@@V?$allocator@D@2@@2@XZ 1010a7cb f i libcpmt:xlocale.obj
 0001:001097e7       ?do_put@?$money_put@DV?$ostreambuf_iterator@DU?$char_traits@D@std@@@std@@@std@@MBE?AV?$ostreambuf_iterator@DU?$char_traits@D@std@@@2@V32@_NAAVios_base@2@DABV?$basic_string@DU?$char_traits@D@std@@V?$allocator@D@2@@2@@Z 1010a7e7 f i libcpmt:xlocale.obj
 0001:00109913       ?do_put@?$money_put@DV?$ostreambuf_iterator@DU?$char_traits@D@std@@@std@@@std@@MBE?AV?$ostreambuf_iterator@DU?$char_traits@D@std@@@2@V32@_NAAVios_base@2@DO@Z 1010a913 f i libcpmt:xlocale.obj
 0001:00109a70       ?do_put@?$time_put@DV?$ostreambuf_iterator@DU?$char_traits@D@std@@@std@@@std@@MBE?AV?$ostreambuf_iterator@DU?$char_traits@D@std@@@2@V32@AAVios_base@2@DPBUtm@@DD@Z 1010aa70 f i libcpmt:xlocale.obj
 0001:00109b3d       ?do_transform@?$collate@D@std@@MBE?AV?$basic_string@DU?$char_traits@D@std@@V?$allocator@D@2@@2@PBD0@Z 1010ab3d f i libcpmt:xlocale.obj
 0001:00109bc5       ?resize@?$basic_string@DU?$char_traits@D@std@@V?$allocator@D@2@@std@@QAEXID@Z 1010abc5 f i libcpmt:xlocale.obj
 0001:00109bf1       __Stofx                    1010abf1 f   libcpmt:xstof.obj
 0001:00109e03       __Stodx                    1010ae03 f   libcpmt:xstod.obj
 0001:0010a06c       __Stoldx                   1010b06c f   libcpmt:xstold.obj
 0001:0010a2d5       __Stolx                    1010b2d5 f   libcpmt:xstol.obj
 0001:0010a375       __Stoulx                   1010b375 f   libcpmt:xstoul.obj
 0001:0010a4f1       __Stollx                   1010b4f1 f   libcpmt:xstoll.obj
 0001:0010a5b9       __Stoullx                  1010b5b9 f   libcpmt:xstoull.obj
 0001:0010a7a4       __Getcoll                  1010b7a4 f   libcpmt:xstrcoll.obj
 0001:0010a7c5       __Strcoll                  1010b7c5 f   libcpmt:xstrcoll.obj
 0001:0010a85a       __Getdateorder             1010b85a f   libcpmt:xdateord.obj
 0001:0010a8a4       __Wcscoll                  1010b8a4 f   libcpmt:xwcscoll.obj
 0001:0010a947       __Wcsxfrm                  1010b947 f   libcpmt:xwcsxfrm.obj
 0001:0010aa09       __Getwctype                1010ba09 f   libcpmt:xgetwctype.obj
 0001:0010aa2d       __Getwctypes               1010ba2d f   libcpmt:xgetwctype.obj
 0001:0010aa4c       __Towlower                 1010ba4c f   libcpmt:xtowlower.obj
 0001:0010aab8       __Towupper                 1010bab8 f   libcpmt:xtowupper.obj
 0001:0010ab28       __Strxfrm                  1010bb28 f   libcpmt:xstrxfrm.obj
 0001:0010abce       __Stopfx                   1010bbce f   libcpmt:xstopfx.obj
 0001:0010ad08       __Stoflt                   1010bd08 f   libcpmt:xstoflt.obj
 0001:0010af5b       __Stoxflt                  1010bf5b f   libcpmt:xstoxflt.obj
 0001:0010b1e5       __FDtest                   1010c1e5 f   libcpmt:xfdtest.obj
 0001:0010b231       __FPmsw                    1010c231 f   libcpmt:xfdtest.obj
 0001:0010b23c       __FDscale                  1010c23c f   libcpmt:xfdscale.obj
 0001:0010b3d6       __FXp_addh                 1010c3d6 f   libcpmt:xfprec.obj
 0001:0010b6f7       __FXp_addx                 1010c6f7 f   libcpmt:xfprec.obj
 0001:0010b73a       __FXp_getw                 1010c73a f   libcpmt:xfprec.obj
 0001:0010b7fc       __FXp_movx                 1010c7fc f   libcpmt:xfprec.obj
 0001:0010b819       __FXp_mulh                 1010c819 f   libcpmt:xfprec.obj
 0001:0010b9a3       __FXp_mulx                 1010c9a3 f   libcpmt:xfprec.obj
 0001:0010ba77       __FXp_setn                 1010ca77 f   libcpmt:xfprec.obj
 0001:0010bade       __FXp_setw                 1010cade f   libcpmt:xfprec.obj
 0001:0010bb62       __FDtento                  1010cb62 f   libcpmt:xfdtento.obj
 0001:0010bc89       __Dtest                    1010cc89 f   libcpmt:xdtest.obj
 0001:0010bceb       __FPlsw                    1010cceb f   libcpmt:xfdtest.obj
 0001:0010bceb       __Plsw                     1010cceb f   libcpmt:xdtest.obj
 0001:0010bceb       __LPlsw                    1010cceb f   libcpmt:xldtest.obj
 0001:0010bcf3       __Pmsw                     1010ccf3 f   libcpmt:xdtest.obj
 0001:0010bcf3       __LPmsw                    1010ccf3 f   libcpmt:xldtest.obj
 0001:0010bcfe       __Dscale                   1010ccfe f   libcpmt:xdscale.obj
 0001:0010bf65       __Xp_addh                  1010cf65 f   libcpmt:xprec.obj
 0001:0010c26b       __Xp_addx                  1010d26b f   libcpmt:xprec.obj
 0001:0010c2af       __LXp_getw                 1010d2af f   libcpmt:xlprec.obj
 0001:0010c2af       __Xp_getw                  1010d2af f   libcpmt:xprec.obj
 0001:0010c360       __Xp_mulh                  1010d360 f   libcpmt:xprec.obj
 0001:0010c4de       __Xp_mulx                  1010d4de f   libcpmt:xprec.obj
 0001:0010c5b1       __Xp_setn                  1010d5b1 f   libcpmt:xprec.obj
 0001:0010c5d9       __Xp_setw                  1010d5d9 f   libcpmt:xprec.obj
 0001:0010c6c7       __Dtento                   1010d6c7 f   libcpmt:xdtento.obj
 0001:0010c7e9       __LDtest                   1010d7e9 f   libcpmt:xldtest.obj
 0001:0010c7f2       __LDscale                  1010d7f2 f   libcpmt:xldscale.obj
 0001:0010c7fb       __LXp_addh                 1010d7fb f   libcpmt:xlprec.obj
 0001:0010cb01       __LXp_addx                 1010db01 f   libcpmt:xlprec.obj
 0001:0010cb45       __LXp_movx                 1010db45 f   libcpmt:xlprec.obj
 0001:0010cb45       __Xp_movx                  1010db45 f   libcpmt:xprec.obj
 0001:0010cb62       __LXp_mulh                 1010db62 f   libcpmt:xlprec.obj
 0001:0010cce0       __LXp_mulx                 1010dce0 f   libcpmt:xlprec.obj
 0001:0010cdb3       __LXp_setn                 1010ddb3 f   libcpmt:xlprec.obj
 0001:0010cddb       __LXp_setw                 1010dddb f   libcpmt:xlprec.obj
 0001:0010cec9       __LDtento                  1010dec9 f   libcpmt:xldtento.obj
 0001:0010cfeb       __FDnorm                   1010dfeb f   libcpmt:xfdnorm.obj
 0001:0010d0b5       __Feraise                  1010e0b5 f   libcpmt:xferaise.obj
 0001:0010d0de       __FDint                    1010e0de f   libcpmt:xfdint.obj
 0001:0010d1a8       __FDunscale                1010e1a8 f   libcpmt:xfdunsca.obj
 0001:0010d22d       __Dnorm                    1010e22d f   libcpmt:xdnorm.obj
 0001:0010d39e       __Dint                     1010e39e f   libcpmt:xdint.obj
 0001:0010d49a       __Dunscale                 1010e49a f   libcpmt:xdunscal.obj
 0001:0010d52e       __LDint                    1010e52e f   libcpmt:xldint.obj
 0001:0010d537       __LDunscale                1010e537 f   libcpmt:xldunsca.obj
 0001:0010d540       ??_Ggeneric_error_category@?A0x2ad791f3@system@boost@@UAEPAXI@Z 1010e540 f i libboost_system-vc120-mt-s-1_55:error_code.obj
 0001:0010d540       ??_Gsystem_error_category@?A0x2ad791f3@system@boost@@UAEPAXI@Z 1010e540 f i libboost_system-vc120-mt-s-1_55:error_code.obj
 0001:0010d540       ??_Egeneric_error_category@?A0x2ad791f3@system@boost@@UAEPAXI@Z 1010e540 f i libboost_system-vc120-mt-s-1_55:error_code.obj
 0001:0010d540       ??_Ecodecvt_error_cat@?A0xed6114aa@@UAEPAXI@Z 1010e540 f i libboost_filesystem-vc120-mt-s-1_55:codecvt_error_category.obj
 0001:0010d540       ??_Gcodecvt_error_cat@?A0xed6114aa@@UAEPAXI@Z 1010e540 f i libboost_filesystem-vc120-mt-s-1_55:codecvt_error_category.obj
 0001:0010d540       ??_Esystem_error_category@?A0x2ad791f3@system@boost@@UAEPAXI@Z 1010e540 f i libboost_system-vc120-mt-s-1_55:error_code.obj
 0001:0010d560       ?default_error_condition@system_error_category@?A0x2ad791f3@system@boost@@UBE?AVerror_condition@34@H@Z 1010e560 f   libboost_system-vc120-mt-s-1_55:error_code.obj
 0001:0010df30       ?generic_category@system@boost@@YAABVerror_category@12@XZ 1010ef30 f   libboost_system-vc120-mt-s-1_55:error_code.obj
 0001:0010dfb0       ?make_error_condition@errc@system@boost@@YA?AVerror_condition@23@W4errc_t@123@@Z 1010efb0 f i libboost_system-vc120-mt-s-1_55:error_code.obj
 0001:0010e030       ?message@generic_error_category@?A0x2ad791f3@system@boost@@UBE?AV?$basic_string@DU?$char_traits@D@std@@V?$allocator@D@2@@std@@H@Z 1010f030 f   libboost_system-vc120-mt-s-1_55:error_code.obj
 0001:0010e220       ?message@system_error_category@?A0x2ad791f3@system@boost@@UBE?AV?$basic_string@DU?$char_traits@D@std@@V?$allocator@D@2@@std@@H@Z 1010f220 f   libboost_system-vc120-mt-s-1_55:error_code.obj
 0001:0010e470       ?system_category@system@boost@@YAABVerror_category@12@XZ 1010f470 f   libboost_system-vc120-mt-s-1_55:error_code.obj
 0001:0010e4d5       @__security_check_cookie@4 1010f4d5 f   LIBCMT:secchk.obj
 0001:0010e4e4       _fputc                     1010f4e4 f   LIBCMT:fputc.obj
 0001:0010e5e5       ??0bad_cast@std@@QAE@ABV01@@Z 1010f5e5 f   LIBCMT:stdexcpt.obj
 0001:0010e600       ??0bad_cast@std@@QAE@PBD@Z 1010f600 f   LIBCMT:stdexcpt.obj
 0001:0010e61c       ??0exception@std@@QAE@ABQBD@Z 1010f61c f   LIBCMT:stdexcpt.obj
 0001:0010e641       ??0exception@std@@QAE@ABQBDH@Z 1010f641 f   LIBCMT:stdexcpt.obj
 0001:0010e65c       ??0exception@std@@QAE@ABV01@@Z 1010f65c f   LIBCMT:stdexcpt.obj
 0001:0010e67f       ??1exception@std@@UAE@XZ   1010f67f f   LIBCMT:stdexcpt.obj
 0001:0010e67f       ??1bad_cast@std@@UAE@XZ    1010f67f f   LIBCMT:stdexcpt.obj
 0001:0010e68a       ??4exception@std@@QAEAAV01@ABV01@@Z 1010f68a f   LIBCMT:stdexcpt.obj
 0001:0010e6bd       ??_Ebad_cast@std@@UAEPAXI@Z 1010f6bd f i LIBCMT:stdexcpt.obj
 0001:0010e6bd       ??_Eexception@std@@UAEPAXI@Z 1010f6bd f i LIBCMT:stdexcpt.obj
 0001:0010e6bd       ??_Gexception@std@@UAEPAXI@Z 1010f6bd f i LIBCMT:stdexcpt.obj
 0001:0010e6bd       ??_Gbad_cast@std@@UAEPAXI@Z 1010f6bd f i LIBCMT:stdexcpt.obj
 0001:0010e6e2       ?_Copy_str@exception@std@@AAEXPBD@Z 1010f6e2 f   LIBCMT:stdexcpt.obj
 0001:0010e720       ?_Tidy@exception@std@@AAEXXZ 1010f720 f   LIBCMT:stdexcpt.obj
 0001:0010e73c       ?what@exception@std@@UBEPBDXZ 1010f73c f   LIBCMT:stdexcpt.obj
 0001:0010e749       ??1type_info@@UAE@XZ       1010f749 f   LIBCMT:typinfo.obj
 0001:0010e757       ??8type_info@@QBE_NABV0@@Z 1010f757 f   LIBCMT:typinfo.obj
 0001:0010e775       ??_Etype_info@@UAEPAXI@Z   1010f775 f i LIBCMT:typinfo.obj
 0001:0010e775       ??_Gtype_info@@UAEPAXI@Z   1010f775 f i LIBCMT:typinfo.obj
 0001:0010e7a0       _memmove                   1010f7a0 f   LIBCMT:memmove.obj
 0001:0010ede4       _free                      1010fde4 f   LIBCMT:free.obj
 0001:0010ee1c       ___initstdio               1010fe1c f   LIBCMT:_file.obj
 0001:0010ee8f       ___endstdio                1010fe8f f   LIBCMT:_file.obj
 0001:0010eeb6       ___iob_func                1010feb6 f   LIBCMT:_file.obj
 0001:0010eebc       __lock_file                1010febc f   LIBCMT:_file.obj
 0001:0010eefb       __lock_file2               1010fefb f   LIBCMT:_file.obj
 0001:0010ef2b       __unlock_file              1010ff2b f   LIBCMT:_file.obj
 0001:0010ef65       __unlock_file2             1010ff65 f   LIBCMT:_file.obj
 0001:0010ef92       __ungetc_nolock            1010ff92 f   LIBCMT:ungetc.obj
 0001:0010f072       _ungetc                    10110072 f   LIBCMT:ungetc.obj
 0001:0010f0e2       _fgetpos                   101100e2 f   LIBCMT:fgetpos.obj
 0001:0010f140       _memchr                    10110140 f   LIBCMT:memchr.obj
 0001:0010f1ed       __fseeki64                 101101ed f   LIBCMT:fseeki64.obj
 0001:0010f273       __fseeki64_nolock          10110273 f   LIBCMT:fseeki64.obj
 0001:0010f324       __fflush_nolock            10110324 f   LIBCMT:fflush.obj
 0001:0010f36a       __flush                    1011036a f   LIBCMT:fflush.obj
 0001:0010f3ce       __flushall                 101103ce f   LIBCMT:fflush.obj
 0001:0010f3d7       _fflush                    101103d7 f   LIBCMT:fflush.obj
 0001:0010f514       ??_M@YGXPAXIHP6EX0@Z@Z     10110514 f   LIBCMT:ehvecdtr.obj
 0001:0010f583       ?__ArrayUnwind@@YGXPAXIHP6EX0@Z@Z 10110583 f   LIBCMT:ehvecdtr.obj
 0001:0010f5e1       _fgetc                     101105e1 f   LIBCMT:fgetc.obj
 0001:0010f6da       ___onexitinit              101106da f   LIBCMT:onexit.obj
 0001:0010f709       __onexit                   10110709 f   LIBCMT:onexit.obj
 0001:0010f805       _atexit                    10110805 f   LIBCMT:onexit.obj
 0001:0010f81a       _fsetpos                   1011081a f   LIBCMT:fsetpos.obj
 0001:0010f853       __get_printf_count_output  10110853 f   LIBCMT:printf.obj
 0001:0010f868       _printf                    10110868 f   LIBCMT:printf.obj
 0001:0010f917       _setvbuf                   10110917 f   LIBCMT:setvbuf.obj
 0001:0010fa1d       ??_V@YAXPAX@Z              10110a1d f   LIBCMT:delete2.obj
 0001:0010fa22       __purecall                 10110a22 f   LIBCMT:purevirt.obj
 0001:0010fa44       ??3@YAXPAX@Z               10110a44 f   LIBCMT:delete.obj
 0001:0010fa49       _memcpy_s                  10110a49 f   LIBCMT:memcpy_s.obj
 0001:0010fac8       __fwrite_nolock            10110ac8 f   LIBCMT:fwrite.obj
 0001:0010fc21       _fwrite                    10110c21 f   LIBCMT:fwrite.obj
 0001:0010fca3       ?_inconsistency@@YAXXZ     10110ca3 f   LIBCMT:hooks.obj
 0001:0010fcdb       ?terminate@@YAXXZ          10110cdb f   LIBCMT:hooks.obj
 0001:0010fd0f       ?unexpected@@YAXXZ         10110d0f f   LIBCMT:hooks.obj
 0001:0010fd22       __initp_eh_hooks           10110d22 f   LIBCMT:hooks.obj
 0001:0010fd33       __fclose_nolock            10110d33 f   LIBCMT:fclose.obj
 0001:0010fd9f       _fclose                    10110d9f f   LIBCMT:fclose.obj
 0001:0010fe16       ??2@YAPAXI@Z               10110e16 f   LIBCMT:new.obj
 0001:0010fe67       _sprintf                   10110e67 f   LIBCMT:sprintf.obj
 0001:0010feeb       _sprintf_s                 10110eeb f   LIBCMT:sprintf.obj
 0001:0010ff07       _atoi                      10110f07 f   LIBCMT:atox.obj
 0001:0010ff10       _atol                      10110f10 f   LIBCMT:atox.obj
 0001:0010ff24       _malloc                    10110f24 f   LIBCMT:malloc.obj
 0001:0010ffb6       _realloc                   10110fb6 f   LIBCMT:realloc.obj
 0001:00110061       __wfopen                   10111061 f   LIBCMT:wfopen.obj
 0001:00110076       __wfsopen                  10111076 f   LIBCMT:wfopen.obj
 0001:00110140       __fread_nolock_s           10111140 f   LIBCMT:fread.obj
 0001:00110305       _fread                     10111305 f   LIBCMT:fread.obj
 0001:00110320       _fread_s                   10111320 f   LIBCMT:fread.obj
 0001:001103b1       ___raise_securityfailure   101113b1 f   LIBCMT:gs_report.obj
 0001:001103ee       ___report_gsfailure        101113ee f   LIBCMT:gs_report.obj
 0001:001104e9       ___report_rangecheckfailure 101114e9 f   LIBCMT:gs_report.obj
 0001:001104f5       ___report_securityfailure  101114f5 f   LIBCMT:gs_report.obj
 0001:001105c5       ??0_LocaleUpdate@@QAE@PAUlocaleinfo_struct@@@Z 101115c5 f i LIBCMT:strtol.obj
 0001:00110873       _strtol                    10111873 f   LIBCMT:strtol.obj
 0001:0011089d       _strtoul                   1011189d f   LIBCMT:strtol.obj
 0001:001108c7       _swprintf_s                101118c7 f   LIBCMT:swprintf.obj
 0001:001108e3       _sscanf                    101118e3 f   LIBCMT:sscanf.obj
 0001:00110974       _rand                      10111974 f   LIBCMT:rand.obj
 0001:00110995       _srand                     10111995 f   LIBCMT:rand.obj
 0001:001109a5       __time64                   101119a5 f   LIBCMT:time64.obj
 0001:001109f6       __vswprintf_helper         101119f6 f   LIBCMT:vswprnc.obj
 0001:00110af1       __vswprintf_s_l            10111af1 f   LIBCMT:vswprnc.obj
 0001:00110b68       _vswprintf_s               10111b68 f   LIBCMT:vswprnc.obj
 0001:00110b83       _localeconv                10111b83 f   LIBCMT:lconv.obj
 0001:00110bb0       _strcspn                   10111bb0 f   LIBCMT:strcspn.obj
 0001:00110bf6       __toupper_l                10111bf6 f   LIBCMT:toupper.obj
 0001:00110d3a       _toupper                   10111d3a f   LIBCMT:toupper.obj
 0001:00110d66       __wcsicmp                  10111d66 f   LIBCMT:wcsicmp.obj
 0001:00110df9       __wcsicmp_l                10111df9 f   LIBCMT:wcsicmp.obj
 0001:00110ed4       __ftelli64                 10111ed4 f   LIBCMT:ftelli64.obj
 0001:00110f4f       __ftelli64_nolock          10111f4f f   LIBCMT:ftelli64.obj
 0001:00111324       _feof                      10112324 f   LIBCMT:feoferr.obj
 0001:0011134a       _ferror                    1011234a f   LIBCMT:feoferr.obj
 0001:00111370       _wcsncpy_s                 10112370 f   LIBCMT:wcsncpy_s.obj
 0001:0011142e       __wtoi                     1011242e f   LIBCMT:wtox.obj
 0001:00111437       __wtol                     10112437 f   LIBCMT:wtox.obj
 0001:0011144b       __chsize_nolock            1011244b f   LIBCMT:chsize.obj
 0001:00111601       __chsize_s                 10112601 f   LIBCMT:chsize.obj
 0001:001116ef       _wcsrchr                   101126ef f   LIBCMT:wcsrchr.obj
 0001:00111795       ??_L@YGXPAXIHP6EX0@Z1@Z    10112795 f   LIBCMT:ehvecctr.obj
 0001:001117f7       _fprintf                   101127f7 f   LIBCMT:fprintf.obj
 0001:00111909       __isalnum_l                10112909 f i LIBCMT:_ctype.obj
 0001:00111961       __isalpha_l                10112961 f i LIBCMT:_ctype.obj
 0001:001119b9       __isdigit_l                101129b9 f i LIBCMT:_ctype.obj
 0001:00111a0b       __isgraph_l                10112a0b f i LIBCMT:_ctype.obj
 0001:00111a63       __islower_l                10112a63 f i LIBCMT:_ctype.obj
 0001:00111ab5       __isprint_l                10112ab5 f i LIBCMT:_ctype.obj
 0001:00111b0d       __isspace_l                10112b0d f i LIBCMT:_ctype.obj
 0001:00111b5f       __isupper_l                10112b5f f i LIBCMT:_ctype.obj
 0001:00111bb1       __isxdigit_l               10112bb1 f i LIBCMT:_ctype.obj
 0001:00111c09       _isalnum                   10112c09 f i LIBCMT:_ctype.obj
 0001:00111c36       _isalpha                   10112c36 f i LIBCMT:_ctype.obj
 0001:00111c63       _isdigit                   10112c63 f i LIBCMT:_ctype.obj
 0001:00111c8e       _isgraph                   10112c8e f i LIBCMT:_ctype.obj
 0001:00111cbb       _islower                   10112cbb f i LIBCMT:_ctype.obj
 0001:00111ce6       _isprint                   10112ce6 f i LIBCMT:_ctype.obj
 0001:00111d13       _isspace                   10112d13 f i LIBCMT:_ctype.obj
 0001:00111d3e       _isupper                   10112d3e f i LIBCMT:_ctype.obj
 0001:00111d69       _isxdigit                  10112d69 f i LIBCMT:_ctype.obj
 0001:00111d96       __fileno                   10112d96 f   LIBCMT:fileno.obj
 0001:00111dba       __ftell_nolock             10112dba f   LIBCMT:ftell.obj
 0001:0011214a       _ftell                     1011314a f   LIBCMT:ftell.obj
 0001:001121b6       __fseek_nolock             101131b6 f   LIBCMT:fseek.obj
 0001:00112245       _fseek                     10113245 f   LIBCMT:fseek.obj
 0001:001122c8       _wcscpy_s                  101132c8 f   LIBCMT:wcscpy_s.obj
 0001:00112324       _strncpy_s                 10113324 f   LIBCMT:strncpy_s.obj
 0001:001123c8       _wcsstr                    101133c8 f   LIBCMT:wcsstr.obj
 0001:0011265b       __CRT_INIT@12              1011365b f   LIBCMT:dllcrt0.obj
 0001:001127cd       __DllMainCRTStartup@12     101137cd f   LIBCMT:dllcrt0.obj
 0001:001128fe       ___DllXcptFilter           101138fe f   LIBCMT:dllcrt0.obj
 0001:00112923       __gmtime64                 10113923 f   LIBCMT:gmtime64.obj
 0001:00112948       __gmtime64_s               10113948 f   LIBCMT:gmtime64.obj
 0001:00112b73       __beginthreadex            10113b73 f   LIBCMT:threadex.obj
 0001:00112c4d       __endthreadex              10113c4d f   LIBCMT:threadex.obj
 0001:00112da0       __CxxThrowException@8      10113da0 f   LIBCMT:throw.obj
 0001:00112ed3       ?_CallCatchBlock2@@YAPAXPAUEHRegistrationNode@@PBU_s_FuncInfo@@PAXHK@Z 10113ed3 f   LIBCMT:_trnsctrl_.obj
 0001:00112f33       ?_CallMemberFunction1@@YGXPAX00@Z 10113f33 f   LIBCMT:_trnsctrl_.obj
 0001:00112f33       ?_CallMemberFunction2@@YGXPAX00H@Z 10113f33 f   LIBCMT:_trnsctrl_.obj
 0001:00112f33       ?_CallMemberFunction0@@YGXPAX0@Z 10113f33 f   LIBCMT:_trnsctrl_.obj
 0001:00112f3a       ?_CallSETranslator@@YAHPAUEHExceptionRecord@@PAUEHRegistrationNode@@PAX2PBU_s_FuncInfo@@H1@Z 10113f3a f   LIBCMT:_trnsctrl_.obj
 0001:00113011       ?_GetRangeOfTrysToCheck@@YAPBU_s_TryBlockMapEntry@@PBU_s_FuncInfo@@HHPAI1@Z 10114011 f   LIBCMT:_trnsctrl_.obj
 0001:0011308f       ?_JumpToContinuation@@YGXPAXPAUEHRegistrationNode@@@Z 1011408f f   LIBCMT:_trnsctrl_.obj
 0001:001130c1       ?_UnwindNestedFrames@@YGXPAUEHRegistrationNode@@PAUEHExceptionRecord@@@Z 101140c1 f   LIBCMT:_trnsctrl_.obj
 0001:00113116       __CreateFrameInfo          10114116 f   LIBCMT:_trnsctrl_.obj
 0001:00113140       __FindAndUnlinkFrame       10114140 f   LIBCMT:_trnsctrl_.obj
 0001:00113190       __IsExceptionObjectToBeDestroyed 10114190 f   LIBCMT:_trnsctrl_.obj
 0001:001131b9       ___CxxFrameHandler3        101141b9 f   LIBCMT:_trnsctrl_.obj
 0001:001131f0       __alldiv                   101141f0 f   LIBCMT:lldiv.obj
 0001:001132a0       __allmul                   101142a0 f   LIBCMT:llmul.obj
 0001:001132e0       __allrem                   101142e0 f   LIBCMT:llrem.obj
 0001:001133a0       __aulldiv                  101143a0 f   LIBCMT:ulldiv.obj
 0001:00113410       _memcpy                    10114410 f   LIBCMT:memcpy.obj
 0001:00113a54       __fpmath                   10114a54 f   LIBCMT:fpinit.obj
 0001:00113a6b       __cfltcvt_init             10114a6b f   LIBCMT:fpinit.obj
 0001:00113acb       ___ascii_stricmp           10114acb f   LIBCMT:stricmp.obj
 0001:00113b04       __stricmp                  10114b04 f   LIBCMT:stricmp.obj
 0001:00113b4b       __stricmp_l                10114b4b f   LIBCMT:stricmp.obj
 0001:00113be0       __alloca_probe             10114be0 f   LIBCMT:chkstk.obj
 0001:00113be0       __chkstk                   10114be0 f   LIBCMT:chkstk.obj
 0001:00113c0b       ____lc_codepage_func       10114c0b f   LIBCMT:initctyp.obj
 0001:00113c31       ____lc_collate_cp_func     10114c31 f   LIBCMT:initctyp.obj
 0001:00113c57       ____lc_locale_name_func    10114c57 f   LIBCMT:initctyp.obj
 0001:00113c7f       ____mb_cur_max_func        10114c7f f   LIBCMT:initctyp.obj
 0001:00113ca5       ___init_ctype              10114ca5 f   LIBCMT:initctyp.obj
 0001:00114040       _memset                    10115040 f   LIBCMT:memset.obj
 0001:001140d0       _strcpy                    101150d0 f   LIBCMT:strcat.obj
 0001:001140e0       _strcat                    101150e0 f   LIBCMT:strcat.obj
 0001:001141d0       __global_unwind2           101151d0 f   LIBCMT:exsup.obj
 0001:00114235       __local_unwind2            10115235 f   LIBCMT:exsup.obj
 0001:001142b9       __abnormal_termination     101152b9 f   LIBCMT:exsup.obj
 0001:001142dc       __NLG_Notify1              101152dc f   LIBCMT:exsup.obj
 0001:001142e5       __NLG_Notify               101152e5 f   LIBCMT:exsup.obj
 0001:001142fc       __NLG_Dispatch             101152fc     LIBCMT:exsup.obj
 0001:001142fc       __NLG_Dispatch2            101152fc     LIBCMT:exsup.obj
 0001:00114304       __NLG_Call                 10115304 f   LIBCMT:exsup.obj
 0001:00114306       __NLG_Return2              10115306     LIBCMT:exsup.obj
 0001:00114318       __except_handler3          10115318 f   LIBCMT:exsup3.obj
 0001:00114416       __seh_longjmp_unwind@4     10115416 f   LIBCMT:exsup3.obj
 0001:00114440       _strcmp                    10115440 f   LIBCMT:strcmp.obj
 0001:001144cc       _memcmp                    101154cc f   LIBCMT:memcmp.obj
 0001:00115c44       _calloc                    10116c44 f   LIBCMT:calloc.obj
 0001:00115c90       _strchr                    10116c90 f   LIBCMT:strchr.obj
 0001:00115cfe       ___from_strstr_to_strchr   10116cfe     LIBCMT:strchr.obj
 0001:00115dc0       _strncmp                   10116dc0 f   LIBCMT:strncmp.obj
 0001:00115e40       _strrchr                   10116e40 f   LIBCMT:strrchr.obj
 0001:00115f77       _fgets                     10116f77 f   LIBCMT:fgets.obj
 0001:001160b6       __fsopen                   101170b6 f   LIBCMT:fopen.obj
 0001:0011617a       _fopen                     1011717a f   LIBCMT:fopen.obj
 0001:0011618f       _fputs                     1011718f f   LIBCMT:fputs.obj
 0001:001162a0       _qsort                     101172a0 f   LIBCMT:qsort.obj
 0001:00116917       __strtoi64                 10117917 f   LIBCMT:strtoq.obj
 0001:00116941       _strtoll                   10117941 f   LIBCMT:strtoq.obj
 0001:0011694a       ___doserrno                1011794a f   LIBCMT:dosmap.obj
 0001:0011695d       __dosmaperr                1011795d f   LIBCMT:dosmap.obj
 0001:0011697e       __errno                    1011797e f   LIBCMT:dosmap.obj
 0001:00116991       __get_errno_from_oserr     10117991 f   LIBCMT:dosmap.obj
 0001:001169d2       __tolower_l                101179d2 f   LIBCMT:tolower.obj
 0001:00116b15       _tolower                   10117b15 f   LIBCMT:tolower.obj
 0001:00116b50       _strstr                    10117b50 f   LIBCMT:strstr.obj
 0001:00116dc0       _strncpy                   10117dc0 f   LIBCMT:strncpy.obj
 0001:00116ef0       _strpbrk                   10117ef0 f   LIBCMT:strpbrk.obj
 0001:00116f30       __ftoui3                   10117f30 f   LIBCMT:ftol3.obj
 0001:00116f3f       __ftoul3                   10117f3f f   LIBCMT:ftol3.obj
 0001:00116f4e       __ftol3                    10117f4e f   LIBCMT:ftol3.obj
 0001:00116f5b       __ftol3_NaN                10117f5b f   LIBCMT:ftol3.obj
 0001:00116f73       __ftol3_work               10117f73 f   LIBCMT:ftol3.obj
 0001:00116ff9       __ftol3_common             10117ff9 f   LIBCMT:ftol3.obj
 0001:001170bb       __ftol3_arg_error          101180bb f   LIBCMT:ftol3.obj
 0001:001170cd       __ftol3_except             101180cd f   LIBCMT:ftol3.obj
 0001:00117111       __dtoui3                   10118111 f   LIBCMT:ftol3.obj
 0001:00117120       __dtoul3                   10118120 f   LIBCMT:ftol3.obj
 0001:0011712f       __dtol3                    1011812f f   LIBCMT:ftol3.obj
 0001:0011713c       __dtol3_NaN                1011813c f   LIBCMT:ftol3.obj
 0001:00117159       __dtol3_work               10118159 f   LIBCMT:ftol3.obj
 0001:0011723e       __ultod3                   1011823e f   LIBCMT:ftol3.obj
 0001:001172cf       __ltod3                    101182cf f   LIBCMT:ftol3.obj
 0001:00117300       __aulldvrm                 10118300 f   LIBCMT:ulldvrm.obj
 0001:00117395       __get_sys_err_msg          10118395 f i LIBCMT:strerror.obj
 0001:001173bb       _strerror                  101183bb f   LIBCMT:strerror.obj
 0001:00117423       ___sys_errlist             10118423 f   LIBCMT:syserr.obj
 0001:00117429       ___sys_nerr                10118429 f   LIBCMT:syserr.obj
 0001:0011742f       __lseeki64                 1011842f f   LIBCMT:lseeki64.obj
 0001:0011752b       __lseeki64_nolock          1011852b f   LIBCMT:lseeki64.obj
 0001:0011759e       __fstat64                  1011859e f   LIBCMT:fstat64.obj
 0001:00117925       __getpid                   10118925 f   LIBCMT:getpid.obj
 0001:0011792b       __getenv_helper_nolock     1011892b f   LIBCMT:getenv.obj
 0001:001179af       _getenv                    101189af f   LIBCMT:getenv.obj
 0001:00117a2f       __stat64                   10118a2f f   LIBCMT:stat64.obj
 0001:00117a75       ___isa_available_init      10118a75 f   LIBCMT:cpu_disp.obj
 0001:00117bee       __set_abort_behavior       10118bee f   LIBCMT:abort.obj
 0001:00117c0d       _abort                     10118c0d f   LIBCMT:abort.obj
 0001:00117c50       _open                      10118c50 f   LIBCMT:open.obj
 0001:00117c50       __open                     10118c50 f   LIBCMT:open.obj
 0001:00117d00       __sopen_helper             10118d00 f   LIBCMT:open.obj
 0001:00117dc9       __sopen_nolock             10118dc9 f   LIBCMT:open.obj
 0001:00117e17       __sopen_s                  10118e17 f   LIBCMT:open.obj
 0001:00117e35       __stat64i32                10118e35 f   LIBCMT:stati32.obj
 0001:00117e7b       ___copy_path_to_wide_string 10118e7b f   LIBCMT:crt0dat.obj
 0001:00117f2d       ___crtCorExitProcess       10118f2d f   LIBCMT:crt0dat.obj
 0001:00117f61       ___crtExitProcess          10118f61 f   LIBCMT:crt0dat.obj
 0001:00117f77       ___freeCrtMemory           10118f77 f   LIBCMT:crt0dat.obj
 0001:00118084       __amsg_exit                10119084 f   LIBCMT:crt0dat.obj
 0001:001180a0       __cexit                    101190a0 f   LIBCMT:crt0dat.obj
 0001:001180af       __cinit                    101190af f   LIBCMT:crt0dat.obj
 0001:00118133       __exit                     10119133 f   LIBCMT:crt0dat.obj
 0001:00118147       __init_pointers            10119147 f   LIBCMT:crt0dat.obj
 0001:001181b5       __initterm_e               101191b5 f   LIBCMT:crt0dat.obj
 0001:001181d7       __lockexit                 101191d7 f   LIBCMT:crt0dat.obj
 0001:001181e0       __unlockexit               101191e0 f   LIBCMT:crt0dat.obj
 0001:00118318       _vfprintf                  10119318 f   LIBCMT:vfprintf.obj
 0001:00118335       _vfprintf_helper           10119335 f   LIBCMT:vfprintf.obj
 0001:00118446       __vsnprintf                10119446 f   LIBCMT:vsnprint.obj
 0001:00118446       _vsnprintf                 10119446 f   LIBCMT:vsnprint.obj
 0001:00118461       __vsnprintf_l              10119461 f   LIBCMT:vsnprint.obj
 0001:0011850d       ___get_sigabrt             1011950d f   LIBCMT:winsig.obj
 0001:0011851a       __initp_misc_winsig        1011951a f   LIBCMT:winsig.obj
 0001:001185db       _raise                     101195db f   LIBCMT:winsig.obj
 0001:001187d0       _signal                    101197d0 f   LIBCMT:winsig.obj
 0001:00118a30       __alloca_probe_16          10119a30 f   LIBCMT:alloca16.obj
 0001:00118a46       __alloca_probe_8           10119a46     LIBCMT:alloca16.obj
 0001:00118a5c       __get_fmode                10119a5c f   LIBCMT:setmode.obj
 0001:00118a86       __setmode                  10119a86 f   LIBCMT:setmode.obj
 0001:00118b8b       __setmode_nolock           10119b8b f   LIBCMT:setmode.obj
 0001:00118c60       __aullrem                  10119c60 f   LIBCMT:ullrem.obj
 0001:00118cd5       __strnicmp                 10119cd5 f   LIBCMT:strnicmp.obj
 0001:00118d40       __strnicmp_l               10119d40 f   LIBCMT:strnicmp.obj
 0001:00118e00       __aullshr                  10119e00 f   LIBCMT:ullshr.obj
 0001:00118e20       __except_handler4          10119e20 f   LIBCMT:chandler4.obj
 0001:00118fb4       __ftime64                  10119fb4 f   LIBCMT:ftime64.obj
 0001:00118fb9       __ftime64_s                10119fb9 f   LIBCMT:ftime64.obj
 0001:00119124       __freea                    1011a124 f i LIBCMT:getch.obj
 0001:00119142       __getch                    1011a142 f   LIBCMT:getch.obj
 0001:00119188       __getch_nolock             1011a188 f   LIBCMT:getch.obj
 0001:00119265       __getextendedkeycode       1011a265 f   LIBCMT:getch.obj
 0001:00119310       _strlen                    1011a310 f   LIBCMT:strlen.obj
 0001:0011939b       __EH_epilog3               1011a39b f   LIBCMT:ehprolg3.obj
 0001:001193af       __EH_epilog3_GS            1011a3af f   LIBCMT:ehprolg3.obj
 0001:001193be       __EH_epilog3_catch_GS      1011a3be f   LIBCMT:ehprolg3.obj
 0001:001193cd       __EH_prolog3               1011a3cd f   LIBCMT:ehprolg3.obj
 0001:00119400       __EH_prolog3_GS            1011a400 f   LIBCMT:ehprolg3.obj
 0001:00119436       __EH_prolog3_catch         1011a436 f   LIBCMT:ehprolg3.obj
 0001:0011946c       __EH_prolog3_catch_GS      1011a46c f   LIBCMT:ehprolg3.obj
 0001:001194a5       _setlocale                 1011a4a5 f   LIBCMT:setlocal.obj
 0001:00119689       __lock                     1011a689 f   LIBCMT:mlock.obj
 0001:001196bd       __mtdeletelocks            1011a6bd f   LIBCMT:mlock.obj
 0001:00119711       __mtinitlocknum            1011a711 f   LIBCMT:mlock.obj
 0001:001197ba       __mtinitlocks              1011a7ba f   LIBCMT:mlock.obj
 0001:001197f3       __unlock                   1011a7f3 f   LIBCMT:mlock.obj
 0001:00119808       ___DestructExceptionObject 1011a808 f   LIBCMT:frame.obj
 0001:0011a0a2       ?__uncaught_exception@@YA_NXZ 1011b0a2 f   LIBCMT:frame.obj
 0001:0011a0b3       ___AdjustPointer           1011b0b3 f   LIBCMT:frame.obj
 0001:0011a0d8       ___BuildCatchObject        1011b0d8 f   LIBCMT:frame.obj
 0001:0011a166       ___BuildCatchObjectHelper  1011b166 f   LIBCMT:frame.obj
 0001:0011a328       ___FrameUnwindFilter       1011b328 f   LIBCMT:frame.obj
 0001:0011a376       ___FrameUnwindToState      1011b376 f   LIBCMT:frame.obj
 0001:0011a44f       ___InternalCxxFrameHandler 1011b44f f   LIBCMT:frame.obj
 0001:0011a530       ___TypeMatch               1011b530 f   LIBCMT:frame.obj
 0001:0011a597       ___pctype_func             1011b597 f   LIBCMT:ctype.obj
 0001:0011a5c0       __wcsdup                   1011b5c0 f   LIBCMT:wcsdup.obj
 0001:0011a817       ___crtLCMapStringA         1011b817 f   LIBCMT:a_map.obj
 0001:0011a85d       __calloc_crt               1011b85d f   LIBCMT:crtheap.obj
 0001:0011a8a5       __malloc_crt               1011b8a5 f   LIBCMT:crtheap.obj
 0001:0011a8ec       __realloc_crt              1011b8ec f   LIBCMT:crtheap.obj
 0001:0011a936       __recalloc_crt             1011b936 f   LIBCMT:crtheap.obj
 0001:0011a9de       __ismbblead                1011b9de f   LIBCMT:ismbbyte.obj
 0001:0011a9f4       _ldexp                     1011b9f4 f   LIBCMT:ldexp.obj
 0001:0011abe0       ___crtFlsAlloc             1011bbe0 f   LIBCMT:winapisupp.obj
 0001:0011abfe       ___crtFlsFree              1011bbfe f   LIBCMT:winapisupp.obj
 0001:0011ac1d       ___crtFlsGetValue          1011bc1d f   LIBCMT:winapisupp.obj
 0001:0011ac3c       ___crtFlsSetValue          1011bc3c f   LIBCMT:winapisupp.obj
 0001:0011ac5e       ___crtInitializeCriticalSectionEx 1011bc5e f   LIBCMT:winapisupp.obj
 0001:0011ac8c       ___crtIsPackagedApp        1011bc8c f   LIBCMT:winapisupp.obj
 0001:0011accc       ___crtLoadWinApiPointers   1011bccc f   LIBCMT:winapisupp.obj
 0001:0011af57       ___crtSleep                1011bf57 f   LIBCMT:winapisupp.obj
 0001:0011af65       ___crtTerminateProcess     1011bf65 f   LIBCMT:winapisupp.obj
 0001:0011af7a       ___crtUnhandledException   1011bf7a f   LIBCMT:winapisupp.obj
 0001:0011af90       _wcslen                    1011bf90 f   LIBCMT:wcslen.obj
 0001:0011afa9       __Getdays                  1011bfa9 f   LIBCMT:strftime.obj
 0001:0011afb2       __Getdays_l                1011bfb2 f   LIBCMT:strftime.obj
 0001:0011b099       __Getmonths                1011c099 f   LIBCMT:strftime.obj
 0001:0011b0a2       __Getmonths_l              1011c0a2 f   LIBCMT:strftime.obj
 0001:0011b195       __W_Gettnames              1011c195 f   LIBCMT:wcsftime.obj
 0001:0011b195       __Gettnames                1011c195 f   LIBCMT:strftime.obj
 0001:0011b19e       __Strftime                 1011c19e f   LIBCMT:strftime.obj
 0001:0011b1bc       __Strftime_l               1011c1bc f   LIBCMT:strftime.obj
 0001:0011bcf8       __W_Getdays                1011ccf8 f   LIBCMT:wcsftime.obj
 0001:0011bd01       __W_Getdays_l              1011cd01 f   LIBCMT:wcsftime.obj
 0001:0011be1a       __W_Getmonths              1011ce1a f   LIBCMT:wcsftime.obj
 0001:0011be23       __W_Getmonths_l            1011ce23 f   LIBCMT:wcsftime.obj
 0001:0011bf3c       __W_Gettnames_l            1011cf3c f   LIBCMT:wcsftime.obj
 0001:0011c5eb       __Wcsftime                 1011d5eb f   LIBCMT:wcsftime.obj
 0001:0011c609       __Wcsftime_l               1011d609 f   LIBCMT:wcsftime.obj
 0001:0011c9f0       ___crtCompareStringA       1011d9f0 f   LIBCMT:a_cmp.obj
 0001:0011ca33       _GetTableIndexFromLcid     1011da33 f   LIBCMT:winapinls.obj
 0001:0011ca68       _GetTableIndexFromLocaleName 1011da68 f   LIBCMT:winapinls.obj
 0001:0011cab6       ___crtCompareStringEx      1011dab6 f   LIBCMT:winapinls.obj
 0001:0011cb02       ___crtDownlevelLCIDToLocaleName 1011db02 f   LIBCMT:winapinls.obj
 0001:0011cb7e       ___crtDownlevelLocaleNameToLCID 1011db7e f   LIBCMT:winapinls.obj
 0001:0011cbbc       ___crtEnumSystemLocalesEx  1011dbbc f   LIBCMT:winapinls.obj
 0001:0011cbf9       ___crtGetDateFormatEx      1011dbf9 f   LIBCMT:winapinls.obj
 0001:0011cc42       ___crtGetLocaleInfoEx      1011dc42 f   LIBCMT:winapinls.obj
 0001:0011cc71       ___crtGetTimeFormatEx      1011dc71 f   LIBCMT:winapinls.obj
 0001:0011cca6       ___crtGetUserDefaultLocaleName 1011dca6 f   LIBCMT:winapinls.obj
 0001:0011ccd1       ___crtIsValidLocaleName    1011dcd1 f   LIBCMT:winapinls.obj
 0001:0011ccfc       ___crtLCMapStringEx        1011dcfc f   LIBCMT:winapinls.obj
 0001:0011cd48       ___wcsnicmp_ascii          1011dd48 f   LIBCMT:winapinls.obj
 0001:0011cdb6       ___crtCompareStringW       1011ddb6 f   LIBCMT:w_cmp.obj
 0001:0011ce1a       ___crtLCMapStringW         1011de1a f   LIBCMT:w_map.obj
 0001:0011ce50       __CIsqrt                   1011de50 f   LIBCMT:sqrt.obj
 0001:0011ce64       _sqrt                      1011de64     LIBCMT:sqrt.obj
 0001:0011cf0a       __call_reportfault         1011df0a f   LIBCMT:invarg.obj
 0001:0011d02f       __initp_misc_invarg        1011e02f f   LIBCMT:invarg.obj
 0001:0011d03c       __invalid_parameter        1011e03c f   LIBCMT:invarg.obj
 0001:0011d067       __invalid_parameter_noinfo 1011e067 f   LIBCMT:invarg.obj
 0001:0011d077       __invoke_watson            1011e077 f   LIBCMT:invarg.obj
 0001:0011d0a2       __flsbuf                   1011e0a2 f   LIBCMT:_flsbuf.obj
 0001:0011d200       __SEH_prolog4              1011e200 f   LIBCMT:sehprolg4.obj
 0001:0011d245       __SEH_epilog4              1011e245 f   LIBCMT:sehprolg4.obj
 0001:0011d259       __ioinit                   1011e259 f   LIBCMT:ioinit.obj
 0001:0011d50d       __ioterm                   1011e50d f   LIBCMT:ioinit.obj
 0001:0011d55f       _strcpy_s                  1011e55f f   LIBCMT:strcpy_s.obj
 0001:0011d5b4       ?_Type_info_dtor@type_info@@CAXPAV1@@Z 1011e5b4 f   LIBCMT:typname.obj
 0001:0011d625       __heap_init                1011e625 f   LIBCMT:heapinit.obj
 0001:0011d63a       __heap_term                1011e63a f   LIBCMT:heapinit.obj
 0001:0011d642       __fcloseall                1011e642 f   LIBCMT:closeall.obj
 0001:0011d6df       __getbuf                   1011e6df f   LIBCMT:_getbuf.obj
 0001:0011d725       __commit                   1011e725 f   LIBCMT:commit.obj
 0001:0011d80e       __write                    1011e80e f   LIBCMT:write.obj
 0001:0011d80e       _write                     1011e80e f   LIBCMT:write.obj
 0001:0011d8fd       __write_nolock             1011e8fd f   LIBCMT:write.obj
 0001:0011e162       __filbuf                   1011f162 f   LIBCMT:_filbuf.obj
 0001:0011e283       __msize                    1011f283 f   LIBCMT:msize.obj
 0001:0011e2b4       __ftbuf                    1011f2b4 f   LIBCMT:_sftbuf.obj
 0001:0011e2e5       __stbuf                    1011f2e5 f   LIBCMT:_sftbuf.obj
 0001:0011e38b       __output_l                 1011f38b f   LIBCMT:output.obj
 0001:0011eff7       __freebuf                  1011fff7 f   LIBCMT:_freebuf.obj
 0001:0011f027       ___getlocaleinfo           10120027 f   LIBCMT:inithelp.obj
 0001:0011f200       __initp_misc_purevirt      10120200 f   LIBCMT:inithelp.obj
 0001:0011f20d       __decomp                   1012020d f   LIBCMT:util.obj
 0001:0011f2df       __set_exp                  101202df f   LIBCMT:util.obj
 0001:0011f30e       __sptype                   1012030e f   LIBCMT:util.obj
 0001:0011f369       __errcode                  10120369 f   LIBCMT:fpexcept.obj
 0001:0011f39b       __except1                  1012039b f   LIBCMT:fpexcept.obj
 0001:0011f463       __except2                  10120463 f   LIBCMT:fpexcept.obj
 0001:0011f53f       __handle_exc               1012053f f   LIBCMT:fpexcept.obj
 0001:0011f71d       __handle_qnan2             1012071d f   LIBCMT:fpexcept.obj
 0001:0011f77d       __raise_exc                1012077d f   LIBCMT:fpexcept.obj
 0001:0011f79e       __raise_exc_ex             1012079e f   LIBCMT:fpexcept.obj
 0001:0011fa83       __set_errno_from_matherr   10120a83 f   LIBCMT:fpexcept.obj
 0001:0011fab0       __umatherr                 10120ab0 f   LIBCMT:fpexcept.obj
 0001:0011fb50       ___set_fpsr_sse2           10120b50 f   LIBCMT:fpctrl.obj
 0001:0011fbc6       __clrfp                    10120bc6 f   LIBCMT:fpctrl.obj
 0001:0011fbd7       __ctrlfp                   10120bd7 f   LIBCMT:fpctrl.obj
 0001:0011fc02       __set_statfp               10120c02 f   LIBCMT:fpctrl.obj
 0001:0011fc5a       __statfp                   10120c5a f   LIBCMT:fpctrl.obj
 0001:0011fc6a       ___get_flsindex            10120c6a f   LIBCMT:tidtable.obj
 0001:0011fc70       __freefls@4                10120c70 f   LIBCMT:tidtable.obj
 0001:0011fda5       __freeptd                  10120da5 f   LIBCMT:tidtable.obj
 0001:0011fddb       __getptd                   10120ddb f   LIBCMT:tidtable.obj
 0001:0011fdf3       __getptd_noexit            10120df3 f   LIBCMT:tidtable.obj
 0001:0011fe62       __initptd                  10120e62 f   LIBCMT:tidtable.obj
 0001:0011ff15       __mtinit                   10120f15 f   LIBCMT:tidtable.obj
 0001:0011ff8b       __mtterm                   10120f8b f   LIBCMT:tidtable.obj
 0001:0011ffa8       __close                    10120fa8 f   LIBCMT:close.obj
 0001:0011ffa8       _close                     10120fa8 f   LIBCMT:close.obj
 0001:00120083       __close_nolock             10121083 f   LIBCMT:close.obj
 0001:0012011d       __callnewh                 1012111d f   LIBCMT:handler.obj
 0001:00120143       __initp_heap_handler       10121143 f   LIBCMT:handler.obj
 0001:00120150       __vsnprintf_helper         10121150 f   LIBCMT:vsnprnc.obj
 0001:0012021a       __vsprintf_s_l             1012121a f   LIBCMT:vsnprnc.obj
 0001:0012028f       __FF_MSGBANNER             1012128f f   LIBCMT:crt0msg.obj
 0001:001202c8       __GET_RTERRMSG             101212c8 f   LIBCMT:crt0msg.obj
 0001:001202ec       __NMSG_WRITE               101212ec f   LIBCMT:crt0msg.obj
 0001:001204a9       __getstream                101214a9 f   LIBCMT:stream.obj
 0001:001205c8       __wopenfile                101215c8 f   LIBCMT:_wopen.obj
 0001:00120870       __local_unwind4            10121870 f   LIBCMT:exsup4.obj
 0001:00120946       __seh_longjmp_unwind4@4    10121946 f   LIBCMT:exsup4.obj
 0001:00120962       @_EH4_CallFilterFunc@8     10121962 f   LIBCMT:exsup4.obj
 0001:00120979       @_EH4_TransferToHandler@8  10121979 f   LIBCMT:exsup4.obj
 0001:00120992       @_EH4_GlobalUnwind2@8      10121992 f   LIBCMT:exsup4.obj
 0001:001209ab       @_EH4_LocalUnwind@16       101219ab f   LIBCMT:exsup4.obj
 0001:001209c2       _read                      101219c2 f   LIBCMT:read.obj
 0001:001209c2       __read                     101219c2 f   LIBCMT:read.obj
 0001:00120ad6       __read_nolock              10121ad6 f   LIBCMT:read.obj
 0001:00121267       __crt_debugger_hook        10122267 f   LIBCMT:dbghook.obj
 0001:0012126f       ___addlocaleref            1012226f f   LIBCMT:localref.obj
 0001:00121304       ___freetlocinfo            10122304 f   LIBCMT:localref.obj
 0001:0012145e       ___removelocaleref         1012245e f   LIBCMT:localref.obj
 0001:001214fe       ___updatetlocinfo          101224fe f   LIBCMT:localref.obj
 0001:0012157e       __updatetlocinfoEx_nolock  1012257e f   LIBCMT:localref.obj
 0001:001215c9       ___initmbctable            101225c9 f   LIBCMT:mbctype.obj
 0001:00121880       ___updatetmbcinfo          10122880 f   LIBCMT:mbctype.obj
 0001:00121926       __setmbcp                  10122926 f   LIBCMT:mbctype.obj
 0001:00121ace       __setmbcp_nolock           10122ace f   LIBCMT:mbctype.obj
 0001:00121cb9       __isctype_l                10122cb9 f   LIBCMT:isctype.obj
 0001:00121d6a       __locterm                  10122d6a f   LIBCMT:wsetloca.obj
 0001:00121dbc       ___copy_locale_name        10122dbc f   LIBCMT:wsetloca.obj
 0001:00121e20       ___lc_lctowcs              10122e20 f   LIBCMT:wsetloca.obj
 0001:00121e8e       ___lc_wcstolc              10122e8e f   LIBCMT:wsetloca.obj
 0001:00121fe6       __expandlocale             10122fe6 f   LIBCMT:wsetloca.obj
 0001:001222dd       __wcscats                  101232dd f   LIBCMT:wsetloca.obj
 0001:0012231c       __wsetlocale               1012331c f   LIBCMT:wsetloca.obj
 0001:00122cdb       __input_l                  10123cdb f   LIBCMT:input.obj
 0001:00123e58       __woutput_s_l              10124e58 f   LIBCMT:woutputs.obj
 0001:00124b6f       ___daylight                10125b6f f   LIBCMT:timeset.obj
 0001:00124b75       ___dstbias                 10125b75 f   LIBCMT:timeset.obj
 0001:00124b7b       ___timezone                10125b7b f   LIBCMT:timeset.obj
 0001:00124b81       ___tzname                  10125b81 f   LIBCMT:timeset.obj
 0001:00124b87       __get_daylight             10125b87 f   LIBCMT:timeset.obj
 0001:00124bb1       __get_dstbias              10125bb1 f   LIBCMT:timeset.obj
 0001:00124bdb       __get_timezone             10125bdb f   LIBCMT:timeset.obj
 0001:00124c05       ___tzset                   10125c05 f   LIBCMT:tzset.obj
 0001:00124c55       __isindst                  10125c55 f   LIBCMT:tzset.obj
 0001:00125399       ___getgmtimebuf            10126399 f   LIBCMT:gmtime.obj
 0001:001253ce       __isleadbyte_l             101263ce f i LIBCMT:_wctype.obj
 0001:00125408       _isleadbyte                10126408 f i LIBCMT:_wctype.obj
 0001:00125419       __towlower_l               10126419 f   LIBCMT:towlower.obj
 0001:001254ca       _towlower                  101264ca f   LIBCMT:towlower.obj
 0001:001256bc       _wcstol                    101266bc f   LIBCMT:wcstol.obj
 0001:001256d4       ___lock_fhandle            101266d4 f   LIBCMT:osfinfo.obj
 0001:00125762       __alloc_osfhnd             10126762 f   LIBCMT:osfinfo.obj
 0001:0012590b       __free_osfhnd              1012690b f   LIBCMT:osfinfo.obj
 0001:00125991       __get_osfhandle            10126991 f   LIBCMT:osfinfo.obj
 0001:001259f8       __set_osfhnd               101269f8 f   LIBCMT:osfinfo.obj
 0001:00125a7a       __unlock_fhandle           10126a7a f   LIBCMT:osfinfo.obj
 0001:00125aa0       __lseek                    10126aa0 f   LIBCMT:lseek.obj
 0001:00125b8f       __lseek_nolock             10126b8f f   LIBCMT:lseek.obj
 0001:00125c36       __XcptFilter               10126c36 f   LIBCMT:winxfltr.obj
 0001:00125d91       ___CppXcptFilter           10126d91 f   LIBCMT:winxfltr.obj
 0001:00125daf       __setargv                  10126daf f   LIBCMT:stdargv.obj
 0001:00125fde       __setenvp                  10126fde f   LIBCMT:stdenvp.obj
 0001:001260bf       ___security_init_cookie    101270bf f   LIBCMT:gs_support.obj
 0001:0012615b       ___crtGetEnvironmentStringsA 1012715b f   LIBCMT:a_env.obj
 0001:001261e8       __RTC_Initialize           101271e8 f   LIBCMT:initsect.obj
 0001:00126208       __RTC_Terminate            10127208 f   LIBCMT:initsect.obj
 0001:00126230       __CallSettingFrame@12      10127230 f   LIBCMT:lowhelpr.obj
 0001:00126257       __NLG_Return               10127257     LIBCMT:lowhelpr.obj
 0001:0012627c       __cfltcvt                  1012727c f   LIBCMT:cvt.obj
 0001:0012629d       __cfltcvt_l                1012729d f   LIBCMT:cvt.obj
 0001:00126323       __cftoa_l                  10127323 f   LIBCMT:cvt.obj
 0001:0012667f       __cftoe                    1012767f f   LIBCMT:cvt.obj
 0001:001267ee       __cftoe_l                  101277ee f   LIBCMT:cvt.obj
 0001:001269a8       __cftof_l                  101279a8 f   LIBCMT:cvt.obj
 0001:00126a69       __cftog_l                  10127a69 f   LIBCMT:cvt.obj
 0001:00126b68       __cropzeros                10127b68 f   LIBCMT:cvt.obj
 0001:00126b79       __cropzeros_l              10127b79 f   LIBCMT:cvt.obj
 0001:00126bf9       __fassign                  10127bf9 f   LIBCMT:cvt.obj
 0001:00126c11       __fassign_l                10127c11 f   LIBCMT:cvt.obj
 0001:00126c53       __forcdecpt                10127c53 f   LIBCMT:cvt.obj
 0001:00126c64       __forcdecpt_l              10127c64 f   LIBCMT:cvt.obj
 0001:00126cd8       __positive                 10127cd8 f   LIBCMT:cvt.obj
 0001:00126d1a       __setdefaultprecision      10127d1a f   LIBCMT:fp8.obj
 0001:00126d41       __initp_misc_cfltcvt_tab   10127d41 f   LIBCMT:cmiscdat.obj
 0001:00126e58       ___crtGetStringTypeA       10127e58 f   LIBCMT:a_str.obj
 0001:00126e98       __VEC_memset               10127e98 f   LIBCMT:p4_memset.obj
 0001:00126f60       _CallDestructExceptionObject 10127f60 f   LIBCMT:calldtor.obj
 0001:00127060       __ValidateEH3RN            10128060 f   LIBCMT:eh3valid.obj
 0001:001273c2       __calloc_impl              101283c2 f   LIBCMT:calloc_impl.obj
 0001:0012743c       __openfile                 1012843c f   LIBCMT:_open.obj
 0001:001276b6       ___crt_atoflt_l            101286b6 f   LIBCMT:atodbl.obj
 0001:0012775a       __atodbl_l                 1012875a f   LIBCMT:atodbl.obj
 0001:001277e8       __atoflt_l                 101287e8 f   LIBCMT:atodbl.obj
 0001:00127800       ___loctotime64_t           10128800 f   LIBCMT:dtoxtm64.obj
 0001:00127a70       __SEH_prolog4_GS           10128a70 f   LIBCMT:sehprolg4gs.obj
 0001:00127ab8       __SEH_epilog4_GS           10128ab8 f   LIBCMT:sehprolg4gs.obj
 0001:00127ac7       _strnlen                   10128ac7 f   LIBCMT:strlen_s.obj
 0001:00127ae2       ___wtomb_environ           10128ae2 f   LIBCMT:wtombenv.obj
 0001:00127b71       __mbsnbicoll               10128b71 f   LIBCMT:mbsnbico.obj
 0001:00127b89       __mbsnbicoll_l             10128b89 f   LIBCMT:mbsnbico.obj
 0001:00127c9d       __wstat64                  10128c9d f   LIBCMT:wstat64.obj
 0001:0012819a       __wsopen_helper            1012919a f   LIBCMT:wopen.obj
 0001:00128263       __wsopen_nolock            10129263 f   LIBCMT:wopen.obj
 0001:001289b6       __wsopen_s                 101299b6 f   LIBCMT:wopen.obj
 0001:00128a7f       __wstat64i32               10129a7f f   LIBCMT:wstati32.obj
 0001:00128f00       __FindPESection            10129f00 f   LIBCMT:pesect.obj
 0001:00128f50       __IsNonwritableInCurrentImage 10129f50 f   LIBCMT:pesect.obj
 0001:00129010       __ValidateImageBase        1012a010 f   LIBCMT:pesect.obj
 0001:00129041       __initp_misc_rand_s        1012a041 f   LIBCMT:rand_s.obj
 0001:0012904e       __output_s_l               1012a04e f   LIBCMT:outputs.obj
 0001:00129bf0       ___ascii_strnicmp          1012abf0 f   LIBCMT:_strnicm.obj
 0001:00129c51       ___termconin               1012ac51 f   LIBCMT:initconin.obj
 0001:00129c68       ___initconin               1012ac68 f   LIBCMT:initconin.obj
 0001:00129c87       __mbstowcs_l_helper        1012ac87 f   LIBCMT:mbstowcs.obj
 0001:00129de8       __mbstowcs_s_l             1012ade8 f   LIBCMT:mbstowcs.obj
 0001:00129ec6       _mbstowcs_s                1012aec6 f   LIBCMT:mbstowcs.obj
 0001:00129ee4       __wcstombs_l_helper        1012aee4 f   LIBCMT:wcstombs.obj
 0001:0012a14b       __wcstombs_s_l             1012b14b f   LIBCMT:wcstombs.obj
 0001:0012a216       ?_ValidateWrite@@YAHPAXI@Z 1012b216 f   LIBCMT:validate.obj
 0001:0012a216       ?_ValidateExecute@@YAHP6GHXZ@Z 1012b216 f   LIBCMT:validate.obj
 0001:0012a216       ?_ValidateRead@@YAHPBXI@Z  1012b216 f   LIBCMT:validate.obj
 0001:0012a225       __recalloc                 1012b225 f   LIBCMT:recalloc.obj
 0001:0012a28e       __copysign                 1012b28e f   LIBCMT:ieeemisc.obj
 0001:0012a2b6       _wcsnlen                   1012b2b6 f   LIBCMT:wcslen_s.obj
 0001:0012a2e0       __trandisp1                1012b2e0 f   LIBCMT:87disp.obj
 0001:0012a347       __trandisp2                1012b347 f   LIBCMT:87disp.obj
 0001:0012a3d3       __rttospopde               1012b3d3     LIBCMT:87disp.obj
